(dp0
c__builtin__
frozenset
p1
((lp2
g1
((lp3
I1
aI3
aI5
aI6
atp4
Rp5
ag1
((lp6
I2
aI3
aI5
aI6
atp7
Rp8
ag1
((lp9
I3
aI4
aI5
aI6
atp10
Rp11
ag1
((lp12
I2
aI3
aI4
aI6
atp13
Rp14
ag1
((lp15
I1
aI2
aI5
atp16
Rp17
ag1
((lp18
I1
aI2
aI4
atp19
Rp20
ag1
((lp21
I1
aI4
aI5
aI6
atp22
Rp23
ag1
((lp24
I1
aI3
aI4
aI5
atp25
Rp26
ag1
((lp27
I2
aI4
aI5
aI6
atp28
Rp29
ag1
((lp30
I1
aI3
aI4
aI6
atp31
Rp32
ag1
((lp33
I1
aI2
aI6
atp34
Rp35
atp36
Rp37
I360
sg1
((lp38
g1
((lp39
I1
aI3
aI5
aI6
atp40
Rp41
ag1
((lp42
I2
aI3
aI5
atp43
Rp44
ag1
((lp45
I1
aI2
aI3
atp46
Rp47
ag1
((lp48
I2
aI3
aI4
aI6
atp49
Rp50
ag1
((lp51
I1
aI4
aI5
aI6
atp52
Rp53
ag1
((lp54
I3
aI4
aI5
aI6
atp55
Rp56
ag1
((lp57
I1
aI3
aI4
aI5
atp58
Rp59
ag1
((lp60
I2
aI4
aI5
aI6
atp61
Rp62
ag1
((lp63
I1
aI2
aI4
aI5
atp64
Rp65
ag1
((lp66
I1
aI3
aI4
aI6
atp67
Rp68
ag35
atp69
Rp70
I360
sg1
((lp71
g1
((lp72
I3
aI4
aI6
atp73
Rp74
ag1
((lp75
I2
aI3
aI6
atp76
Rp77
ag1
((lp78
I1
aI2
aI4
aI6
atp79
Rp80
ag1
((lp81
I1
aI3
aI5
aI6
atp82
Rp83
ag1
((lp84
I2
aI3
aI4
atp85
Rp86
ag1
((lp87
I1
aI4
aI5
aI6
atp88
Rp89
ag1
((lp90
I1
aI2
aI3
aI5
atp91
Rp92
ag1
((lp93
I1
aI2
aI5
aI6
atp94
Rp95
ag1
((lp96
I1
aI3
aI4
aI5
atp97
Rp98
ag1
((lp99
I2
aI4
aI5
aI6
atp100
Rp101
ag1
((lp102
I1
aI2
aI4
aI5
atp103
Rp104
atp105
Rp106
I60
sg1
((lp107
g1
((lp108
I1
aI2
aI4
aI6
atp109
Rp110
ag1
((lp111
I3
aI4
aI5
atp112
Rp113
ag44
ag1
((lp114
I3
aI5
aI6
atp115
Rp116
ag1
((lp117
I1
aI4
aI5
aI6
atp118
Rp119
ag1
((lp120
I1
aI2
aI5
aI6
atp121
Rp122
ag1
((lp123
I1
aI2
aI3
aI4
atp124
Rp125
ag1
((lp126
I1
aI2
aI3
aI6
atp127
Rp128
ag1
((lp129
I2
aI3
aI4
aI6
atp130
Rp131
ag1
((lp132
I1
aI2
aI4
aI5
atp133
Rp134
ag1
((lp135
I1
aI3
aI4
aI6
atp136
Rp137
atp138
Rp139
I120
sg1
((lp140
g1
((lp141
I1
aI3
aI5
atp142
Rp143
ag1
((lp144
I1
aI2
aI4
aI6
atp145
Rp146
ag1
((lp147
I2
aI3
aI5
aI6
atp148
Rp149
ag1
((lp150
I1
aI3
aI6
atp151
Rp152
ag1
((lp153
I1
aI4
aI5
aI6
atp154
Rp155
ag1
((lp156
I1
aI2
aI5
aI6
atp157
Rp158
ag1
((lp159
I3
aI4
aI5
aI6
atp160
Rp161
ag1
((lp162
I1
aI3
aI4
atp163
Rp164
ag1
((lp165
I2
aI3
aI4
aI6
atp166
Rp167
ag1
((lp168
I1
aI2
aI4
aI5
atp169
Rp170
ag1
((lp171
I2
aI3
aI4
aI5
atp172
Rp173
atp174
Rp175
I60
s.