(dp0
c__builtin__
frozenset
p1
((lp2
g1
((lp3
I1
aI2
aI4
aI6
atp4
Rp5
ag1
((lp6
I2
aI3
aI5
aI6
atp7
Rp8
ag1
((lp9
I1
aI2
aI3
aI4
atp10
Rp11
ag1
((lp12
I1
aI3
aI4
aI5
atp13
Rp14
ag1
((lp15
I1
aI2
aI5
atp16
Rp17
ag1
((lp18
I1
aI2
aI3
aI6
atp19
Rp20
ag1
((lp21
I1
aI4
aI5
aI6
atp22
Rp23
ag1
((lp24
I2
aI3
aI4
aI6
atp25
Rp26
atp27
Rp28
I360
sg1
((lp29
g1
((lp30
I1
aI3
aI5
aI6
atp31
Rp32
ag1
((lp33
I1
aI3
aI4
aI6
atp34
Rp35
ag1
((lp36
I1
aI4
aI5
aI6
atp37
Rp38
ag1
((lp39
I2
aI4
aI6
atp40
Rp41
ag1
((lp42
I1
aI2
aI3
aI6
atp43
Rp44
ag1
((lp45
I1
aI3
aI4
aI5
atp46
Rp47
ag1
((lp48
I2
aI3
aI4
aI5
atp49
Rp50
ag1
((lp51
I1
aI2
aI5
aI6
atp52
Rp53
atp54
Rp55
I360
sg1
((lp56
g1
((lp57
I1
aI3
aI5
atp58
Rp59
ag1
((lp60
I1
aI2
aI4
aI6
atp61
Rp62
ag1
((lp63
I1
aI2
aI3
aI4
atp64
Rp65
ag1
((lp66
I1
aI3
aI4
aI6
atp67
Rp68
ag1
((lp69
I1
aI4
aI5
aI6
atp70
Rp71
ag1
((lp72
I2
aI4
aI5
aI6
atp73
Rp74
ag1
((lp75
I1
aI2
aI4
aI5
atp76
Rp77
ag1
((lp78
I2
aI3
aI4
aI5
atp79
Rp80
atp81
Rp82
I720
sg1
((lp83
g1
((lp84
I1
aI2
aI4
aI6
atp85
Rp86
ag1
((lp87
I1
aI2
aI3
aI4
atp88
Rp89
ag1
((lp90
I1
aI3
aI4
aI5
atp91
Rp92
ag1
((lp93
I1
aI2
aI3
aI5
atp94
Rp95
ag1
((lp96
I1
aI2
aI5
aI6
atp97
Rp98
ag1
((lp99
I2
aI3
aI4
aI6
atp100
Rp101
ag1
((lp102
I2
aI4
aI5
aI6
atp103
Rp104
ag1
((lp105
I3
aI5
aI6
atp106
Rp107
atp108
Rp109
I720
sg1
((lp110
g59
ag65
ag1
((lp111
I1
aI2
aI5
aI6
atp112
Rp113
ag1
((lp114
I1
aI2
aI3
aI6
atp115
Rp116
ag1
((lp117
I2
aI3
aI4
aI6
atp118
Rp119
ag74
ag77
ag68
atp120
Rp121
I360
sg1
((lp122
g1
((lp123
I1
aI3
aI5
aI6
atp124
Rp125
ag1
((lp126
I3
aI4
aI5
atp127
Rp128
ag1
((lp129
I1
aI2
aI3
aI4
atp130
Rp131
ag1
((lp132
I1
aI2
aI3
aI5
atp133
Rp134
ag1
((lp135
I1
aI2
aI3
aI6
atp136
Rp137
ag1
((lp138
I2
aI3
aI4
aI6
atp139
Rp140
ag1
((lp141
I2
aI4
aI5
aI6
atp142
Rp143
ag1
((lp144
I1
aI3
aI4
aI6
atp145
Rp146
atp147
Rp148
I360
sg1
((lp149
g1
((lp150
I3
aI4
aI6
atp151
Rp152
ag1
((lp153
I1
aI2
aI4
aI6
atp154
Rp155
ag1
((lp156
I2
aI3
aI5
aI6
atp157
Rp158
ag1
((lp159
I1
aI2
aI3
aI4
atp160
Rp161
ag1
((lp162
I1
aI2
aI5
aI6
atp163
Rp164
ag1
((lp165
I1
aI2
aI3
aI6
atp166
Rp167
ag1
((lp168
I1
aI3
aI4
aI5
atp169
Rp170
ag1
((lp171
I2
aI3
aI4
aI5
atp172
Rp173
atp174
Rp175
I720
sg1
((lp176
g152
ag155
ag1
((lp177
I1
aI3
aI5
aI6
atp178
Rp179
ag1
((lp180
I1
aI2
aI3
aI5
atp181
Rp182
ag164
ag170
ag1
((lp183
I1
aI2
aI4
aI5
atp184
Rp185
ag173
atp186
Rp187
I720
sg1
((lp188
g1
((lp189
I2
aI5
aI6
atp190
Rp191
ag1
((lp192
I1
aI2
aI3
aI5
atp193
Rp194
ag1
((lp195
I1
aI4
aI5
aI6
atp196
Rp197
ag1
((lp198
I1
aI2
aI3
aI6
atp199
Rp200
ag1
((lp201
I1
aI3
aI4
aI5
atp202
Rp203
ag1
((lp204
I1
aI2
aI4
aI5
atp205
Rp206
ag1
((lp207
I2
aI3
aI4
aI5
atp208
Rp209
ag1
((lp210
I1
aI2
aI4
aI6
atp211
Rp212
atp213
Rp214
I720
sg1
((lp215
g59
ag62
ag1
((lp216
I2
aI3
aI5
aI6
atp217
Rp218
ag68
ag71
ag113
ag116
ag80
atp219
Rp220
I360
sg1
((lp221
g1
((lp222
I1
aI3
aI5
aI6
atp223
Rp224
ag1
((lp225
I2
aI3
aI5
aI6
atp226
Rp227
ag1
((lp228
I3
aI4
aI5
aI6
atp229
Rp230
ag1
((lp231
I2
aI3
aI4
atp232
Rp233
ag1
((lp234
I1
aI2
aI5
aI6
atp235
Rp236
ag1
((lp237
I1
aI2
aI3
aI6
atp238
Rp239
ag1
((lp240
I1
aI3
aI4
aI5
atp241
Rp242
ag1
((lp243
I2
aI4
aI5
aI6
atp244
Rp245
atp246
Rp247
I720
sg1
((lp248
g32
ag1
((lp249
I1
aI2
aI3
aI5
atp250
Rp251
ag41
ag44
ag47
ag1
((lp252
I1
aI2
aI4
aI5
atp253
Rp254
ag35
ag53
atp255
Rp256
I360
sg1
((lp257
g1
((lp258
I1
aI2
aI4
aI6
atp259
Rp260
ag1
((lp261
I3
aI4
aI5
aI6
atp262
Rp263
ag1
((lp264
I1
aI3
aI4
aI6
atp265
Rp266
ag1
((lp267
I1
aI2
aI3
aI5
atp268
Rp269
ag1
((lp270
I1
aI2
aI3
aI6
atp271
Rp272
ag1
((lp273
I2
aI4
aI5
aI6
atp274
Rp275
ag1
((lp276
I1
aI5
aI6
atp277
Rp278
ag1
((lp279
I2
aI3
aI4
aI5
atp280
Rp281
atp282
Rp283
I360
sg1
((lp284
g224
ag1
((lp285
I1
aI2
aI4
aI6
atp286
Rp287
ag230
ag233
ag1
((lp288
I1
aI4
aI5
aI6
atp289
Rp290
ag242
ag245
ag1
((lp291
I1
aI3
aI4
aI6
atp292
Rp293
atp294
Rp295
I360
sg1
((lp296
g1
((lp297
I1
aI2
aI4
aI6
atp298
Rp299
ag1
((lp300
I1
aI2
aI3
aI4
atp301
Rp302
ag1
((lp303
I1
aI3
aI4
aI6
atp304
Rp305
ag1
((lp306
I1
aI2
aI3
aI5
atp307
Rp308
ag1
((lp309
I4
aI5
aI6
atp310
Rp311
ag1
((lp312
I1
aI2
aI3
aI6
atp313
Rp314
ag1
((lp315
I1
aI3
aI4
aI5
atp316
Rp317
ag1
((lp318
I2
aI3
aI4
aI5
atp319
Rp320
atp321
Rp322
I360
sg1
((lp323
g1
((lp324
I1
aI3
aI5
aI6
atp325
Rp326
ag1
((lp327
I2
aI3
aI5
aI6
atp328
Rp329
ag1
((lp330
I1
aI2
aI3
aI4
atp331
Rp332
ag1
((lp333
I2
aI4
aI5
aI6
atp334
Rp335
ag1
((lp336
I2
aI3
aI4
aI6
atp337
Rp338
ag1
((lp339
I1
aI2
aI6
atp340
Rp341
ag1
((lp342
I1
aI2
aI4
aI5
atp343
Rp344
ag1
((lp345
I1
aI3
aI4
aI6
atp346
Rp347
atp348
Rp349
I360
sg1
((lp350
g1
((lp351
I1
aI2
aI4
aI6
atp352
Rp353
ag1
((lp354
I2
aI3
aI5
aI6
atp355
Rp356
ag1
((lp357
I1
aI3
aI6
atp358
Rp359
ag1
((lp360
I1
aI2
aI3
aI5
atp361
Rp362
ag1
((lp363
I1
aI2
aI5
aI6
atp364
Rp365
ag1
((lp366
I1
aI2
aI3
aI4
atp367
Rp368
ag1
((lp369
I2
aI3
aI4
aI6
atp370
Rp371
ag1
((lp372
I2
aI3
aI4
aI5
atp373
Rp374
atp375
Rp376
I180
sg1
((lp377
g1
((lp378
I1
aI3
aI5
aI6
atp379
Rp380
ag1
((lp381
I2
aI3
aI6
atp382
Rp383
ag1
((lp384
I1
aI2
aI4
aI6
atp385
Rp386
ag1
((lp387
I3
aI4
aI5
aI6
atp388
Rp389
ag1
((lp390
I1
aI2
aI3
aI5
atp391
Rp392
ag1
((lp393
I1
aI2
aI5
aI6
atp394
Rp395
ag1
((lp396
I1
aI3
aI4
aI5
atp397
Rp398
ag1
((lp399
I1
aI2
aI4
aI5
atp400
Rp401
atp402
Rp403
I360
sg1
((lp404
g1
((lp405
I1
aI3
aI5
aI6
atp406
Rp407
ag299
ag1
((lp408
I2
aI3
aI5
aI6
atp409
Rp410
ag308
ag311
ag1
((lp411
I1
aI2
aI5
aI6
atp412
Rp413
ag317
ag1
((lp414
I1
aI2
aI4
aI5
atp415
Rp416
atp417
Rp418
I720
sg1
((lp419
g1
((lp420
I1
aI2
aI3
aI4
atp421
Rp422
ag263
ag272
ag1
((lp423
I1
aI3
aI4
aI5
atp424
Rp425
ag275
ag278
ag266
ag1
((lp426
I1
aI2
aI4
aI5
atp427
Rp428
atp429
Rp430
I720
sg1
((lp431
g260
ag1
((lp432
I2
aI3
aI5
aI6
atp433
Rp434
ag263
ag272
ag1
((lp435
I2
aI3
aI4
aI6
atp436
Rp437
ag275
ag278
ag266
atp438
Rp439
I60
sg1
((lp440
g59
ag62
ag218
ag65
ag1
((lp441
I3
aI4
aI5
aI6
atp442
Rp443
ag119
ag74
ag77
atp444
Rp445
I180
sg1
((lp446
g89
ag107
ag95
ag1
((lp447
I1
aI4
aI5
aI6
atp448
Rp449
ag98
ag101
ag1
((lp450
I1
aI2
aI4
aI5
atp451
Rp452
ag1
((lp453
I2
aI3
aI4
aI5
atp454
Rp455
atp456
Rp457
I720
sg1
((lp458
g407
ag410
ag317
ag308
ag311
ag413
ag314
ag1
((lp459
I2
aI3
aI4
aI6
atp460
Rp461
atp462
Rp463
I360
sg1
((lp464
g356
ag359
ag1
((lp465
I1
aI3
aI4
aI5
atp466
Rp467
ag1
((lp468
I1
aI4
aI5
aI6
atp469
Rp470
ag365
ag368
ag371
ag374
atp471
Rp472
I360
sg1
((lp473
g407
ag299
ag305
ag317
ag311
ag461
ag416
ag320
atp474
Rp475
I180
sg1
((lp476
g353
ag359
ag362
ag365
ag368
ag371
ag1
((lp477
I2
aI4
aI5
aI6
atp478
Rp479
ag374
atp480
Rp481
I360
sg1
((lp482
g86
ag89
ag107
ag95
ag1
((lp483
I1
aI2
aI3
aI6
atp484
Rp485
ag92
ag452
ag1
((lp486
I1
aI3
aI4
aI6
atp487
Rp488
atp489
Rp490
I180
sg1
((lp491
g152
ag155
ag161
ag182
ag1
((lp492
I1
aI4
aI5
aI6
atp493
Rp494
ag164
ag1
((lp495
I2
aI4
aI5
aI6
atp496
Rp497
ag185
atp498
Rp499
I360
sg1
((lp500
g326
ag329
ag332
ag1
((lp501
I1
aI2
aI3
aI5
atp502
Rp503
ag338
ag335
ag347
ag341
atp504
Rp505
I180
sg1
((lp506
g359
ag362
ag470
ag1
((lp507
I3
aI4
aI5
aI6
atp508
Rp509
ag467
ag479
ag1
((lp510
I1
aI2
aI4
aI5
atp511
Rp512
ag374
atp513
Rp514
I360
sg1
((lp515
g5
ag8
ag11
ag17
ag1
((lp516
I3
aI4
aI5
aI6
atp517
Rp518
ag23
ag26
ag1
((lp519
I2
aI3
aI4
aI5
atp520
Rp521
atp522
Rp523
I720
sg1
((lp524
g260
ag266
ag272
ag437
ag275
ag278
ag281
ag428
atp525
Rp526
I360
sg1
((lp527
g1
((lp528
I1
aI2
aI4
aI6
atp529
Rp530
ag1
((lp531
I2
aI3
aI5
aI6
atp532
Rp533
ag1
((lp534
I1
aI2
aI3
aI4
atp535
Rp536
ag1
((lp537
I1
aI3
aI4
aI6
atp538
Rp539
ag1
((lp540
I1
aI4
aI5
atp541
Rp542
ag1
((lp543
I3
aI4
aI5
aI6
atp544
Rp545
ag1
((lp546
I2
aI4
aI5
aI6
atp547
Rp548
ag1
((lp549
I2
aI3
aI4
aI5
atp550
Rp551
atp552
Rp553
I120
sg1
((lp554
g1
((lp555
I1
aI3
aI5
aI6
atp556
Rp557
ag1
((lp558
I1
aI2
aI4
aI6
atp559
Rp560
ag1
((lp561
I3
aI4
aI5
aI6
atp562
Rp563
ag1
((lp564
I1
aI2
aI3
atp565
Rp566
ag1
((lp567
I1
aI4
aI5
aI6
atp568
Rp569
ag1
((lp570
I2
aI3
aI4
aI6
atp571
Rp572
ag1
((lp573
I1
aI2
aI4
aI5
atp574
Rp575
ag1
((lp576
I2
aI3
aI4
aI5
atp577
Rp578
atp579
Rp580
I180
sg1
((lp581
g1
((lp582
I1
aI3
aI5
aI6
atp583
Rp584
ag1
((lp585
I1
aI2
aI4
aI6
atp586
Rp587
ag1
((lp588
I2
aI3
aI5
aI6
atp589
Rp590
ag1
((lp591
I1
aI3
aI4
atp592
Rp593
ag1
((lp594
I1
aI4
aI5
aI6
atp595
Rp596
ag1
((lp597
I1
aI2
aI5
aI6
atp598
Rp599
ag1
((lp600
I1
aI2
aI3
aI6
atp601
Rp602
ag1
((lp603
I1
aI2
aI4
aI5
atp604
Rp605
atp606
Rp607
I360
sg1
((lp608
g1
((lp609
I1
aI2
aI4
aI6
atp610
Rp611
ag1
((lp612
I2
aI3
aI5
atp613
Rp614
ag1
((lp615
I1
aI3
aI4
aI5
atp616
Rp617
ag1
((lp618
I1
aI2
aI3
aI4
atp619
Rp620
ag1
((lp621
I1
aI2
aI3
aI6
atp622
Rp623
ag1
((lp624
I2
aI3
aI4
aI6
atp625
Rp626
ag1
((lp627
I1
aI2
aI4
aI5
atp628
Rp629
ag1
((lp630
I1
aI3
aI4
aI6
atp631
Rp632
atp633
Rp634
I180
sg1
((lp635
g1
((lp636
I2
aI3
aI5
aI6
atp637
Rp638
ag128
ag131
ag1
((lp639
I1
aI4
aI5
aI6
atp640
Rp641
ag1
((lp642
I1
aI2
aI5
aI6
atp643
Rp644
ag137
ag143
ag1
((lp645
I1
aI2
aI4
aI5
atp646
Rp647
atp648
Rp649
I720
s.