(dp0
c__builtin__
frozenset
p1
((lp2
g1
((lp3
I2
aI5
aI6
atp4
Rp5
ag1
((lp6
I3
aI4
aI5
aI6
atp7
Rp8
ag1
((lp9
I2
aI3
aI4
atp10
Rp11
ag1
((lp12
I1
aI4
aI5
aI6
atp13
Rp14
ag1
((lp15
I1
aI2
aI4
atp16
Rp17
ag1
((lp18
I1
aI2
aI3
aI6
atp19
Rp20
atp21
Rp22
I360
sg1
((lp23
g5
ag1
((lp24
I3
aI4
aI5
aI6
atp25
Rp26
ag1
((lp27
I1
aI4
aI5
atp28
Rp29
ag1
((lp30
I1
aI2
aI3
aI4
atp31
Rp32
ag1
((lp33
I1
aI2
aI6
atp34
Rp35
ag1
((lp36
I1
aI3
aI4
aI6
atp37
Rp38
atp39
Rp40
I720
sg1
((lp41
g1
((lp42
I1
aI3
aI5
aI6
atp43
Rp44
ag1
((lp45
I1
aI2
aI3
aI5
atp46
Rp47
ag1
((lp48
I4
aI5
aI6
atp49
Rp50
ag1
((lp51
I2
aI4
aI6
atp52
Rp53
ag1
((lp54
I1
aI2
aI3
aI6
atp55
Rp56
ag1
((lp57
I1
aI4
aI6
atp58
Rp59
atp60
Rp61
I360
sg1
((lp62
g1
((lp63
I1
aI3
aI6
atp64
Rp65
ag50
ag1
((lp66
I1
aI3
aI4
aI5
atp67
Rp68
ag35
ag1
((lp69
I1
aI2
aI4
aI5
atp70
Rp71
ag1
((lp72
I2
aI3
aI4
aI5
atp73
Rp74
atp75
Rp76
I180
sg1
((lp77
g1
((lp78
I1
aI3
aI5
aI6
atp79
Rp80
ag1
((lp81
I2
aI3
aI5
atp82
Rp83
ag50
ag1
((lp84
I1
aI2
aI5
aI6
atp85
Rp86
ag1
((lp87
I2
aI3
aI4
aI6
atp88
Rp89
ag59
atp90
Rp91
I360
sg1
((lp92
g1
((lp93
I1
aI3
aI5
aI6
atp94
Rp95
ag1
((lp96
I2
aI3
aI5
aI6
atp97
Rp98
ag1
((lp99
I3
aI4
aI5
atp100
Rp101
ag50
ag17
ag1
((lp102
I1
aI3
aI4
aI6
atp103
Rp104
atp105
Rp106
I360
sg1
((lp107
g1
((lp108
I1
aI3
aI5
atp109
Rp110
ag1
((lp111
I2
aI3
aI5
aI6
atp112
Rp113
ag1
((lp114
I3
aI4
aI5
aI6
atp115
Rp116
ag1
((lp117
I1
aI2
aI5
atp118
Rp119
ag1
((lp120
I2
aI4
aI5
aI6
atp121
Rp122
ag1
((lp123
I1
aI2
aI3
atp124
Rp125
atp126
Rp127
I360
sg1
((lp128
g1
((lp129
I3
aI4
aI5
aI6
atp130
Rp131
ag11
ag1
((lp132
I1
aI2
aI3
aI6
atp133
Rp134
ag17
ag1
((lp135
I1
aI3
aI4
atp136
Rp137
ag1
((lp138
I2
aI4
aI5
aI6
atp139
Rp140
atp141
Rp142
I360
sg1
((lp143
g110
ag1
((lp144
I2
aI3
aI5
aI6
atp145
Rp146
ag1
((lp147
I1
aI2
aI3
aI6
atp148
Rp149
ag29
ag137
ag1
((lp150
I2
aI4
aI5
aI6
atp151
Rp152
atp153
Rp154
I360
sg1
((lp155
g1
((lp156
I3
aI4
aI5
aI6
atp157
Rp158
ag1
((lp159
I1
aI2
aI3
aI5
atp160
Rp161
ag53
ag35
ag1
((lp162
I1
aI2
aI4
aI5
atp163
Rp164
ag59
atp165
Rp166
I360
sg1
((lp167
g110
ag125
ag137
ag1
((lp168
I2
aI4
aI5
aI6
atp169
Rp170
ag1
((lp171
I1
aI2
aI4
aI5
atp172
Rp173
ag1
((lp174
I2
aI3
aI4
aI5
atp175
Rp176
atp177
Rp178
I60
sg1
((lp179
g1
((lp180
I2
aI3
aI6
atp181
Rp182
ag1
((lp183
I1
aI2
aI4
aI6
atp184
Rp185
ag65
ag1
((lp186
I1
aI3
aI4
aI5
atp187
Rp188
ag1
((lp189
I2
aI4
aI5
aI6
atp190
Rp191
ag1
((lp192
I3
aI5
aI6
atp193
Rp194
atp195
Rp196
I360
sg1
((lp197
g1
((lp198
I1
aI2
aI4
aI6
atp199
Rp200
ag1
((lp201
I1
aI2
aI3
aI4
atp202
Rp203
ag50
ag83
ag1
((lp204
I2
aI4
aI5
atp205
Rp206
ag1
((lp207
I1
aI3
aI4
aI6
atp208
Rp209
atp210
Rp211
I720
sg1
((lp212
g110
ag1
((lp213
I2
aI3
aI4
aI6
atp214
Rp215
ag1
((lp216
I2
aI4
aI5
aI6
atp217
Rp218
ag1
((lp219
I1
aI2
aI4
aI5
atp220
Rp221
ag59
ag1
((lp222
I1
aI5
aI6
atp223
Rp224
atp225
Rp226
I720
sg1
((lp227
g1
((lp228
I3
aI4
aI6
atp229
Rp230
ag182
ag1
((lp231
I1
aI2
aI4
aI6
atp232
Rp233
ag11
ag1
((lp234
I1
aI3
aI4
aI5
atp235
Rp236
ag1
((lp237
I1
aI2
aI4
aI5
atp238
Rp239
atp240
Rp241
I720
sg1
((lp242
g5
ag1
((lp243
I3
aI4
aI5
aI6
atp244
Rp245
ag1
((lp246
I1
aI4
aI5
aI6
atp247
Rp248
ag17
ag35
ag1
((lp249
I2
aI3
aI4
aI5
atp250
Rp251
atp252
Rp253
I720
sg1
((lp254
g1
((lp255
I2
aI3
aI5
aI6
atp256
Rp257
ag65
ag1
((lp258
I1
aI2
aI3
aI5
atp259
Rp260
ag35
ag59
ag1
((lp261
I2
aI3
aI4
aI5
atp262
Rp263
atp264
Rp265
I180
sg1
((lp266
g182
ag1
((lp267
I1
aI2
aI3
aI4
atp268
Rp269
ag119
ag1
((lp270
I1
aI4
aI5
aI6
atp271
Rp272
ag35
ag1
((lp273
I2
aI3
aI4
aI5
atp274
Rp275
atp276
Rp277
I720
sg1
((lp278
g182
ag1
((lp279
I3
aI4
aI5
aI6
atp280
Rp281
ag1
((lp282
I1
aI2
aI3
aI5
atp283
Rp284
ag137
ag224
ag1
((lp285
I1
aI2
aI4
aI5
atp286
Rp287
atp288
Rp289
I720
sg1
((lp290
g110
ag1
((lp291
I1
aI3
aI4
aI6
atp292
Rp293
ag1
((lp294
I2
aI3
aI4
aI6
atp295
Rp296
ag1
((lp297
I2
aI4
aI5
aI6
atp298
Rp299
ag125
ag194
atp300
Rp301
I720
sg1
((lp302
g1
((lp303
I1
aI2
aI5
aI6
atp304
Rp305
ag50
ag29
ag1
((lp306
I1
aI2
aI3
aI6
atp307
Rp308
ag1
((lp309
I2
aI3
aI4
aI6
atp310
Rp311
ag194
atp312
Rp313
I720
sg1
((lp314
g83
ag194
ag1
((lp315
I1
aI3
aI4
aI5
atp316
Rp317
ag1
((lp318
I1
aI2
aI4
aI5
atp319
Rp320
ag125
ag1
((lp321
I1
aI3
aI4
aI6
atp322
Rp323
atp324
Rp325
I720
sg1
((lp326
g1
((lp327
I1
aI2
aI5
aI6
atp328
Rp329
ag83
ag11
ag29
ag1
((lp330
I3
aI4
aI5
aI6
atp331
Rp332
ag1
((lp333
I1
aI3
aI4
aI6
atp334
Rp335
atp336
Rp337
I720
sg1
((lp338
g230
ag1
((lp339
I2
aI3
aI5
aI6
atp340
Rp341
ag1
((lp342
I1
aI2
aI3
aI5
atp343
Rp344
ag29
ag1
((lp345
I1
aI2
aI3
aI6
atp346
Rp347
ag224
atp348
Rp349
I360
sg1
((lp350
g1
((lp351
I2
aI3
aI5
aI6
atp352
Rp353
ag1
((lp354
I3
aI4
aI5
aI6
atp355
Rp356
ag1
((lp357
I1
aI2
aI3
aI5
atp358
Rp359
ag137
ag35
ag59
atp360
Rp361
I720
sg1
((lp362
g1
((lp363
I1
aI3
aI5
aI6
atp364
Rp365
ag1
((lp366
I3
aI4
aI5
aI6
atp367
Rp368
ag83
ag1
((lp369
I1
aI3
aI4
aI5
atp370
Rp371
ag59
ag125
atp372
Rp373
I360
sg1
((lp374
g1
((lp375
I1
aI2
aI3
aI5
atp376
Rp377
ag11
ag29
ag35
ag1
((lp378
I2
aI4
aI5
aI6
atp379
Rp380
ag1
((lp381
I1
aI3
aI4
aI6
atp382
Rp383
atp384
Rp385
I120
sg1
((lp386
g230
ag1
((lp387
I2
aI3
aI5
aI6
atp388
Rp389
ag1
((lp390
I1
aI3
aI5
aI6
atp391
Rp392
ag1
((lp393
I1
aI2
aI3
aI5
atp394
Rp395
ag137
ag206
atp396
Rp397
I360
sg1
((lp398
g1
((lp399
I1
aI3
aI5
aI6
atp400
Rp401
ag182
ag1
((lp402
I1
aI2
aI3
aI4
atp403
Rp404
ag1
((lp405
I1
aI2
aI3
aI5
atp406
Rp407
ag35
ag59
atp408
Rp409
I720
sg1
((lp410
g1
((lp411
I1
aI2
aI4
aI6
atp412
Rp413
ag1
((lp414
I2
aI3
aI5
aI6
atp415
Rp416
ag11
ag119
ag29
ag1
((lp417
I2
aI4
aI5
aI6
atp418
Rp419
atp420
Rp421
I720
sg1
((lp422
g1
((lp423
I1
aI3
aI5
aI6
atp424
Rp425
ag1
((lp426
I1
aI2
aI4
aI6
atp427
Rp428
ag101
ag1
((lp429
I2
aI3
aI5
aI6
atp430
Rp431
ag137
ag206
atp432
Rp433
I360
sg1
((lp434
g50
ag1
((lp435
I1
aI3
aI4
aI5
atp436
Rp437
ag224
ag59
ag1
((lp438
I2
aI3
aI4
aI5
atp439
Rp440
ag1
((lp441
I1
aI2
aI4
aI5
atp442
Rp443
atp444
Rp445
I180
sg1
((lp446
g182
ag1
((lp447
I1
aI2
aI3
aI4
atp448
Rp449
ag1
((lp450
I2
aI3
aI4
aI5
atp451
Rp452
ag1
((lp453
I1
aI2
aI3
aI5
atp454
Rp455
ag59
ag194
atp456
Rp457
I360
sg1
((lp458
g110
ag1
((lp459
I1
aI2
aI4
aI6
atp460
Rp461
ag11
ag1
((lp462
I1
aI4
aI5
aI6
atp463
Rp464
ag1
((lp465
I1
aI2
aI3
aI6
atp466
Rp467
ag194
atp468
Rp469
I360
sg1
((lp470
g1
((lp471
I1
aI2
aI4
aI6
atp472
Rp473
ag1
((lp474
I3
aI4
aI5
aI6
atp475
Rp476
ag1
((lp477
I1
aI3
aI4
aI6
atp478
Rp479
ag224
ag206
ag125
atp480
Rp481
I720
sg1
((lp482
g1
((lp483
I1
aI2
aI4
aI6
atp484
Rp485
ag65
ag1
((lp486
I1
aI2
aI3
aI5
atp487
Rp488
ag50
ag1
((lp489
I2
aI3
aI4
aI6
atp490
Rp491
ag206
atp492
Rp493
I360
sg1
((lp494
g1
((lp495
I1
aI2
aI3
aI4
atp496
Rp497
ag83
ag1
((lp498
I1
aI3
aI4
aI5
atp499
Rp500
ag35
ag224
ag1
((lp501
I1
aI3
aI4
aI6
atp502
Rp503
atp504
Rp505
I360
sg1
((lp506
g5
ag1
((lp507
I1
aI2
aI3
aI5
atp508
Rp509
ag1
((lp510
I1
aI4
aI5
aI6
atp511
Rp512
ag11
ag1
((lp513
I1
aI3
aI4
aI5
atp514
Rp515
ag194
atp516
Rp517
I720
sg1
((lp518
g230
ag182
ag1
((lp519
I1
aI3
aI5
aI6
atp520
Rp521
ag125
ag1
((lp522
I1
aI2
aI4
aI5
atp523
Rp524
ag1
((lp525
I2
aI3
aI4
aI5
atp526
Rp527
atp528
Rp529
I720
sg1
((lp530
g230
ag1
((lp531
I2
aI3
aI5
aI6
atp532
Rp533
ag1
((lp534
I1
aI3
aI5
aI6
atp535
Rp536
ag1
((lp537
I1
aI2
aI3
aI4
atp538
Rp539
ag50
ag206
atp540
Rp541
I720
sg1
((lp542
g230
ag1
((lp543
I1
aI2
aI4
aI6
atp544
Rp545
ag1
((lp546
I1
aI2
aI3
aI4
atp547
Rp548
ag1
((lp549
I1
aI2
aI3
aI5
atp550
Rp551
ag29
ag206
atp552
Rp553
I360
sg1
((lp554
g110
ag1
((lp555
I1
aI2
aI4
aI6
atp556
Rp557
ag101
ag1
((lp558
I2
aI3
aI5
aI6
atp559
Rp560
ag1
((lp561
I2
aI3
aI4
aI6
atp562
Rp563
ag224
atp564
Rp565
I720
sg1
((lp566
g1
((lp567
I1
aI2
aI5
aI6
atp568
Rp569
ag1
((lp570
I3
aI4
aI5
aI6
atp571
Rp572
ag11
ag1
((lp573
I1
aI4
aI5
aI6
atp574
Rp575
ag53
ag206
atp576
Rp577
I360
sg1
((lp578
g5
ag1
((lp579
I1
aI2
aI3
aI5
atp580
Rp581
ag1
((lp582
I1
aI4
aI5
aI6
atp583
Rp584
ag137
ag1
((lp585
I2
aI3
aI4
aI6
atp586
Rp587
ag35
atp588
Rp589
I360
sg1
((lp590
g230
ag1
((lp591
I1
aI2
aI4
aI6
atp592
Rp593
ag1
((lp594
I1
aI3
aI5
aI6
atp595
Rp596
ag1
((lp597
I1
aI2
aI3
aI5
atp598
Rp599
ag11
ag206
atp600
Rp601
I720
sg1
((lp602
g230
ag1
((lp603
I2
aI3
aI5
aI6
atp604
Rp605
ag101
ag65
ag1
((lp606
I1
aI4
aI5
aI6
atp607
Rp608
ag1
((lp609
I1
aI2
aI4
aI5
atp610
Rp611
atp612
Rp613
I720
sg1
((lp614
g1
((lp615
I1
aI3
aI5
aI6
atp616
Rp617
ag182
ag11
ag119
ag1
((lp618
I1
aI4
aI5
aI6
atp619
Rp620
ag1
((lp621
I2
aI4
aI5
aI6
atp622
Rp623
atp624
Rp625
I720
sg1
((lp626
g1
((lp627
I1
aI3
aI5
aI6
atp628
Rp629
ag5
ag245
ag17
ag35
ag251
atp630
Rp631
I720
sg1
((lp632
g1
((lp633
I1
aI3
aI5
aI6
atp634
Rp635
ag5
ag1
((lp636
I3
aI4
aI5
aI6
atp637
Rp638
ag29
ag206
ag1
((lp639
I1
aI2
aI4
aI6
atp640
Rp641
atp642
Rp643
I720
sg1
((lp644
g110
ag5
ag1
((lp645
I1
aI2
aI3
aI4
atp646
Rp647
ag50
ag1
((lp648
I1
aI2
aI4
aI5
atp649
Rp650
ag1
((lp651
I2
aI3
aI4
aI5
atp652
Rp653
atp654
Rp655
I180
sg1
((lp656
g1
((lp657
I1
aI3
aI5
aI6
atp658
Rp659
ag182
ag5
ag1
((lp660
I1
aI2
aI3
aI5
atp661
Rp662
ag11
ag1
((lp663
I1
aI3
aI4
aI5
atp664
Rp665
atp666
Rp667
I720
sg1
((lp668
g1
((lp669
I1
aI2
aI4
aI6
atp670
Rp671
ag1
((lp672
I2
aI3
aI5
aI6
atp673
Rp674
ag65
ag50
ag1
((lp675
I1
aI2
aI4
aI5
atp676
Rp677
ag125
atp678
Rp679
I720
sg1
((lp680
g1
((lp681
I2
aI3
aI5
aI6
atp682
Rp683
ag1
((lp684
I3
aI4
aI5
aI6
atp685
Rp686
ag1
((lp687
I2
aI3
aI4
aI5
atp688
Rp689
ag29
ag137
ag125
atp690
Rp691
I720
sg1
((lp692
g1
((lp693
I1
aI3
aI5
aI6
atp694
Rp695
ag101
ag1
((lp696
I1
aI4
aI5
aI6
atp697
Rp698
ag1
((lp699
I2
aI3
aI4
aI6
atp700
Rp701
ag206
ag125
atp702
Rp703
I720
sg1
((lp704
g110
ag5
ag1
((lp705
I1
aI2
aI3
aI4
atp706
Rp707
ag53
ag1
((lp708
I1
aI2
aI4
aI5
atp709
Rp710
ag1
((lp711
I1
aI3
aI4
aI6
atp712
Rp713
atp714
Rp715
I720
sg1
((lp716
g230
ag182
ag1
((lp717
I1
aI2
aI4
aI6
atp718
Rp719
ag1
((lp720
I2
aI3
aI4
aI5
atp721
Rp722
ag1
((lp723
I1
aI4
aI5
aI6
atp724
Rp725
ag194
atp726
Rp727
I360
sg1
((lp728
g83
ag1
((lp729
I1
aI3
aI4
aI5
atp730
Rp731
ag119
ag1
((lp732
I2
aI3
aI4
aI6
atp733
Rp734
ag1
((lp735
I2
aI4
aI5
aI6
atp736
Rp737
ag194
atp738
Rp739
I720
sg1
((lp740
g1
((lp741
I2
aI3
aI5
aI6
atp742
Rp743
ag11
ag1
((lp744
I1
aI2
aI3
aI5
atp745
Rp746
ag17
ag53
ag1
((lp747
I1
aI2
aI3
aI6
atp748
Rp749
atp750
Rp751
I360
sg1
((lp752
g1
((lp753
I1
aI2
aI4
aI6
atp754
Rp755
ag65
ag11
ag1
((lp756
I2
aI4
aI5
aI6
atp757
Rp758
ag224
ag1
((lp759
I1
aI2
aI4
aI5
atp760
Rp761
atp762
Rp763
I180
sg1
((lp764
g80
ag83
ag50
ag1
((lp765
I1
aI3
aI4
aI5
atp766
Rp767
ag1
((lp768
I1
aI2
aI4
aI5
atp769
Rp770
ag59
atp771
Rp772
I720
sg1
((lp773
g125
ag1
((lp774
I2
aI3
aI4
aI5
atp775
Rp776
ag1
((lp777
I2
aI3
aI4
aI6
atp778
Rp779
ag1
((lp780
I2
aI4
aI5
aI6
atp781
Rp782
ag59
ag194
atp783
Rp784
I360
sg1
((lp785
g5
ag1
((lp786
I2
aI3
aI4
aI5
atp787
Rp788
ag50
ag1
((lp789
I1
aI3
aI4
aI5
atp790
Rp791
ag194
ag1
((lp792
I1
aI2
aI4
aI6
atp793
Rp794
atp795
Rp796
I720
sg1
((lp797
g1
((lp798
I1
aI3
aI5
aI6
atp799
Rp800
ag83
ag11
ag1
((lp801
I2
aI4
aI5
aI6
atp802
Rp803
ag35
ag1
((lp804
I1
aI2
aI4
aI5
atp805
Rp806
atp807
Rp808
I360
sg1
((lp809
g182
ag1
((lp810
I3
aI4
aI5
aI6
atp811
Rp812
ag1
((lp813
I1
aI2
aI5
aI6
atp814
Rp815
ag65
ag1
((lp816
I1
aI3
aI4
aI5
atp817
Rp818
ag206
atp819
Rp820
I720
sg1
((lp821
g182
ag1
((lp822
I1
aI2
aI4
aI6
atp823
Rp824
ag1
((lp825
I1
aI2
aI3
aI4
atp826
Rp827
ag50
ag206
ag1
((lp828
I1
aI3
aI4
aI6
atp829
Rp830
atp831
Rp832
I360
sg1
((lp833
g1
((lp834
I1
aI3
aI5
aI6
atp835
Rp836
ag1
((lp837
I1
aI2
aI4
aI6
atp838
Rp839
ag1
((lp840
I1
aI2
aI3
aI6
atp841
Rp842
ag119
ag29
ag137
atp843
Rp844
I360
sg1
((lp845
g182
ag1
((lp846
I1
aI2
aI3
aI4
atp847
Rp848
ag1
((lp849
I2
aI3
aI4
aI5
atp850
Rp851
ag29
ag194
ag1
((lp852
I1
aI3
aI4
aI6
atp853
Rp854
atp855
Rp856
I720
sg1
((lp857
g110
ag1
((lp858
I1
aI2
aI4
aI6
atp859
Rp860
ag83
ag1
((lp861
I1
aI4
aI5
aI6
atp862
Rp863
ag1
((lp864
I2
aI4
aI5
aI6
atp865
Rp866
ag125
atp867
Rp868
I60
sg1
((lp869
g182
ag101
ag65
ag1
((lp870
I1
aI2
aI3
aI5
atp871
Rp872
ag1
((lp873
I1
aI2
aI5
aI6
atp874
Rp875
ag1
((lp876
I1
aI2
aI4
aI5
atp877
Rp878
atp879
Rp880
I360
sg1
((lp881
g5
ag1
((lp882
I3
aI4
aI5
aI6
atp883
Rp884
ag1
((lp885
I1
aI4
aI5
aI6
atp886
Rp887
ag65
ag1
((lp888
I1
aI3
aI4
aI5
atp889
Rp890
ag35
atp891
Rp892
I720
sg1
((lp893
g1
((lp894
I1
aI3
aI4
aI5
atp895
Rp896
ag119
ag50
ag1
((lp897
I1
aI2
aI3
aI6
atp898
Rp899
ag1
((lp900
I2
aI3
aI4
aI6
atp901
Rp902
ag194
atp903
Rp904
I720
sg1
((lp905
g5
ag1
((lp906
I1
aI3
aI4
aI6
atp907
Rp908
ag11
ag1
((lp909
I1
aI4
aI5
aI6
atp910
Rp911
ag1
((lp912
I1
aI3
aI4
aI5
atp913
Rp914
ag125
atp915
Rp916
I180
sg1
((lp917
g110
ag5
ag119
ag1
((lp918
I1
aI2
aI3
aI6
atp919
Rp920
ag1
((lp921
I2
aI3
aI4
aI5
atp922
Rp923
ag1
((lp924
I1
aI2
aI4
aI6
atp925
Rp926
atp927
Rp928
I720
sg1
((lp929
g110
ag1
((lp930
I2
aI3
aI5
aI6
atp931
Rp932
ag65
ag35
ag1
((lp933
I2
aI4
aI5
aI6
atp934
Rp935
ag1
((lp936
I2
aI3
aI4
aI5
atp937
Rp938
atp939
Rp940
I360
sg1
((lp941
g1
((lp942
I2
aI3
aI5
aI6
atp943
Rp944
ag1
((lp945
I3
aI4
aI5
aI6
atp946
Rp947
ag119
ag1
((lp948
I1
aI3
aI4
aI5
atp949
Rp950
ag206
ag125
atp951
Rp952
I720
sg1
((lp953
g65
ag1
((lp954
I2
aI3
aI4
aI6
atp955
Rp956
ag35
ag1
((lp957
I1
aI2
aI4
aI5
atp958
Rp959
ag59
ag263
atp960
Rp961
I360
sg1
((lp962
g1
((lp963
I2
aI3
aI5
aI6
atp964
Rp965
ag101
ag50
ag1
((lp966
I1
aI2
aI5
aI6
atp967
Rp968
ag1
((lp969
I1
aI2
aI4
aI5
atp970
Rp971
ag59
atp972
Rp973
I720
sg1
((lp974
g83
ag1
((lp975
I1
aI3
aI4
aI6
atp976
Rp977
ag50
ag1
((lp978
I1
aI3
aI4
aI5
atp979
Rp980
ag1
((lp981
I1
aI2
aI4
aI5
atp982
Rp983
ag125
atp984
Rp985
I720
sg1
((lp986
g1
((lp987
I1
aI2
aI5
aI6
atp988
Rp989
ag182
ag11
ag1
((lp990
I1
aI4
aI5
aI6
atp991
Rp992
ag1
((lp993
I1
aI2
aI3
aI5
atp994
Rp995
ag53
atp996
Rp997
I360
sg1
((lp998
g110
ag1
((lp999
I1
aI2
aI3
aI4
atp1000
Rp1001
ag215
ag224
ag59
ag1
((lp1002
I2
aI3
aI4
aI5
atp1003
Rp1004
atp1005
Rp1006
I360
sg1
((lp1007
g110
ag1
((lp1008
I3
aI4
aI5
aI6
atp1009
Rp1010
ag1
((lp1011
I1
aI3
aI4
aI6
atp1012
Rp1013
ag83
ag1
((lp1014
I2
aI3
aI4
aI6
atp1015
Rp1016
ag125
atp1017
Rp1018
I60
sg1
((lp1019
g182
ag404
ag407
ag35
ag59
ag1
((lp1020
I2
aI3
aI4
aI5
atp1021
Rp1022
atp1023
Rp1024
I720
sg1
((lp1025
g110
ag1
((lp1026
I1
aI2
aI4
aI6
atp1027
Rp1028
ag1
((lp1029
I2
aI3
aI5
aI6
atp1030
Rp1031
ag11
ag119
ag1
((lp1032
I2
aI4
aI5
aI6
atp1033
Rp1034
atp1035
Rp1036
I720
sg1
((lp1037
g1
((lp1038
I1
aI2
aI4
aI6
atp1039
Rp1040
ag1
((lp1041
I2
aI3
aI4
aI5
atp1042
Rp1043
ag119
ag50
ag1
((lp1044
I1
aI3
aI4
aI5
atp1045
Rp1046
ag125
atp1047
Rp1048
I360
sg1
((lp1049
g230
ag1
((lp1050
I1
aI3
aI5
aI6
atp1051
Rp1052
ag1
((lp1053
I1
aI2
aI3
aI5
atp1054
Rp1055
ag17
ag1
((lp1056
I1
aI2
aI5
aI6
atp1057
Rp1058
ag50
atp1059
Rp1060
I720
sg1
((lp1061
g230
ag1
((lp1062
I2
aI3
aI5
aI6
atp1063
Rp1064
ag50
ag1
((lp1065
I1
aI2
aI3
aI6
atp1066
Rp1067
ag59
ag1
((lp1068
I2
aI3
aI4
aI5
atp1069
Rp1070
atp1071
Rp1072
I720
sg1
((lp1073
g1
((lp1074
I1
aI3
aI4
aI6
atp1075
Rp1076
ag1
((lp1077
I1
aI2
aI3
aI5
atp1078
Rp1079
ag50
ag1
((lp1080
I1
aI3
aI4
aI5
atp1081
Rp1082
ag224
ag194
atp1083
Rp1084
I360
sg1
((lp1085
g1
((lp1086
I1
aI3
aI4
aI6
atp1087
Rp1088
ag119
ag1
((lp1089
I1
aI4
aI5
aI6
atp1090
Rp1091
ag1
((lp1092
I1
aI3
aI4
aI5
atp1093
Rp1094
ag35
ag125
atp1095
Rp1096
I120
sg1
((lp1097
g230
ag182
ag1
((lp1098
I1
aI3
aI5
aI6
atp1099
Rp1100
ag1
((lp1101
I1
aI2
aI3
aI4
atp1102
Rp1103
ag53
ag1
((lp1104
I2
aI3
aI4
aI5
atp1105
Rp1106
atp1107
Rp1108
I180
sg1
((lp1109
g65
ag1
((lp1110
I1
aI2
aI3
aI5
atp1111
Rp1112
ag17
ag29
ag1
((lp1113
I2
aI3
aI4
aI6
atp1114
Rp1115
ag1
((lp1116
I2
aI3
aI4
aI5
atp1117
Rp1118
atp1119
Rp1120
I720
sg1
((lp1121
g1
((lp1122
I1
aI3
aI5
aI6
atp1123
Rp1124
ag1
((lp1125
I1
aI2
aI4
aI6
atp1126
Rp1127
ag1
((lp1128
I3
aI4
aI5
aI6
atp1129
Rp1130
ag29
ag83
ag137
atp1131
Rp1132
I180
sg1
((lp1133
g659
ag182
ag5
ag11
ag1
((lp1134
I1
aI4
aI5
aI6
atp1135
Rp1136
ag665
atp1137
Rp1138
I720
sg1
((lp1139
g1
((lp1140
I1
aI2
aI4
aI6
atp1141
Rp1142
ag1
((lp1143
I2
aI3
aI5
aI6
atp1144
Rp1145
ag119
ag1
((lp1146
I1
aI3
aI4
aI5
atp1147
Rp1148
ag224
ag125
atp1149
Rp1150
I360
sg1
((lp1151
g1
((lp1152
I2
aI3
aI5
aI6
atp1153
Rp1154
ag1
((lp1155
I1
aI2
aI3
aI5
atp1156
Rp1157
ag17
ag53
ag59
ag1
((lp1158
I2
aI3
aI4
aI5
atp1159
Rp1160
atp1161
Rp1162
I180
sg1
((lp1163
g1
((lp1164
I1
aI2
aI4
aI6
atp1165
Rp1166
ag83
ag29
ag65
ag1
((lp1167
I2
aI3
aI4
aI6
atp1168
Rp1169
ag1
((lp1170
I2
aI4
aI5
aI6
atp1171
Rp1172
atp1173
Rp1174
I120
sg1
((lp1175
g1
((lp1176
I1
aI3
aI5
aI6
atp1177
Rp1178
ag1
((lp1179
I3
aI4
aI5
aI6
atp1180
Rp1181
ag119
ag17
ag1
((lp1182
I2
aI3
aI4
aI6
atp1183
Rp1184
ag35
atp1185
Rp1186
I360
sg1
((lp1187
g1
((lp1188
I2
aI3
aI5
aI6
atp1189
Rp1190
ag101
ag1
((lp1191
I1
aI2
aI3
aI5
atp1192
Rp1193
ag50
ag1
((lp1194
I1
aI2
aI3
aI6
atp1195
Rp1196
ag206
atp1197
Rp1198
I360
sg1
((lp1199
g1
((lp1200
I1
aI2
aI3
aI5
atp1201
Rp1202
ag29
ag137
ag1
((lp1203
I2
aI3
aI4
aI6
atp1204
Rp1205
ag1
((lp1206
I2
aI4
aI5
aI6
atp1207
Rp1208
ag194
atp1209
Rp1210
I360
sg1
((lp1211
g230
ag1
((lp1212
I1
aI3
aI5
aI6
atp1213
Rp1214
ag83
ag1
((lp1215
I1
aI4
aI5
aI6
atp1216
Rp1217
ag53
ag1
((lp1218
I1
aI2
aI4
aI5
atp1219
Rp1220
atp1221
Rp1222
I360
sg1
((lp1223
g182
ag1
((lp1224
I1
aI2
aI4
aI6
atp1225
Rp1226
ag1
((lp1227
I1
aI2
aI3
aI4
atp1228
Rp1229
ag1
((lp1230
I1
aI2
aI3
aI5
atp1231
Rp1232
ag224
ag206
atp1233
Rp1234
I360
sg1
((lp1235
g1
((lp1236
I1
aI2
aI4
aI6
atp1237
Rp1238
ag83
ag11
ag1
((lp1239
I1
aI2
aI3
aI6
atp1240
Rp1241
ag206
ag1
((lp1242
I1
aI3
aI4
aI6
atp1243
Rp1244
atp1245
Rp1246
I180
sg1
((lp1247
g1
((lp1248
I1
aI2
aI4
aI6
atp1249
Rp1250
ag1
((lp1251
I1
aI2
aI3
aI4
atp1252
Rp1253
ag29
ag83
ag1
((lp1254
I2
aI3
aI4
aI6
atp1255
Rp1256
ag206
atp1257
Rp1258
I360
s.