(dp0
c__builtin__
frozenset
p1
((lp2
g1
((lp3
I1
aI2
aI4
aI6
atp4
Rp5
ag1
((lp6
I2
aI3
aI5
aI6
atp7
Rp8
ag1
((lp9
I2
aI3
aI4
aI5
atp10
Rp11
ag1
((lp12
I1
aI2
aI5
aI6
atp13
Rp14
ag1
((lp15
I2
aI3
aI4
aI6
atp16
Rp17
ag1
((lp18
I1
aI2
aI3
atp19
Rp20
atp21
Rp22
I360
sg1
((lp23
g1
((lp24
I1
aI3
aI5
aI6
atp25
Rp26
ag1
((lp27
I2
aI5
aI6
atp28
Rp29
ag1
((lp30
I3
aI4
aI5
aI6
atp31
Rp32
ag1
((lp33
I1
aI3
aI4
aI5
atp34
Rp35
ag1
((lp36
I1
aI2
aI3
aI5
atp37
Rp38
ag1
((lp39
I2
aI3
aI4
aI6
atp40
Rp41
atp42
Rp43
I720
sg1
((lp44
g1
((lp45
I1
aI2
aI3
aI4
atp46
Rp47
ag1
((lp48
I4
aI5
aI6
atp49
Rp50
ag1
((lp51
I1
aI2
aI5
aI6
atp52
Rp53
ag1
((lp54
I1
aI2
aI3
aI6
atp55
Rp56
ag1
((lp57
I1
aI3
aI4
aI5
atp58
Rp59
ag1
((lp60
I2
aI3
aI4
aI5
atp61
Rp62
atp63
Rp64
I360
sg1
((lp65
g1
((lp66
I1
aI2
aI5
aI6
atp67
Rp68
ag1
((lp69
I1
aI2
aI3
aI4
atp70
Rp71
ag1
((lp72
I2
aI3
aI4
aI5
atp73
Rp74
ag1
((lp75
I2
aI4
aI6
atp76
Rp77
ag1
((lp78
I1
aI2
aI4
aI5
atp79
Rp80
ag1
((lp81
I1
aI3
aI4
aI6
atp82
Rp83
atp84
Rp85
I360
sg1
((lp86
g1
((lp87
I3
aI4
aI6
atp88
Rp89
ag1
((lp90
I1
aI2
aI4
aI6
atp91
Rp92
ag1
((lp93
I1
aI2
aI3
aI4
atp94
Rp95
ag1
((lp96
I1
aI4
aI5
aI6
atp97
Rp98
ag1
((lp99
I1
aI2
aI5
aI6
atp100
Rp101
ag1
((lp102
I1
aI2
aI4
aI5
atp103
Rp104
atp105
Rp106
I720
sg1
((lp107
g1
((lp108
I1
aI2
aI4
aI6
atp109
Rp110
ag1
((lp111
I1
aI3
aI4
aI6
atp112
Rp113
ag1
((lp114
I1
aI4
aI5
aI6
atp115
Rp116
ag1
((lp117
I1
aI2
aI5
aI6
atp118
Rp119
ag1
((lp120
I1
aI2
aI3
aI6
atp121
Rp122
ag1
((lp123
I3
aI5
aI6
atp124
Rp125
atp126
Rp127
I180
sg1
((lp128
g89
ag1
((lp129
I1
aI3
aI5
aI6
atp130
Rp131
ag98
ag1
((lp132
I1
aI2
aI3
aI6
atp133
Rp134
ag1
((lp135
I1
aI3
aI4
aI5
atp136
Rp137
ag1
((lp138
I2
aI3
aI4
aI5
atp139
Rp140
atp141
Rp142
I360
sg1
((lp143
g1
((lp144
I1
aI2
aI4
aI6
atp145
Rp146
ag1
((lp147
I1
aI2
aI3
aI4
atp148
Rp149
ag38
ag1
((lp150
I1
aI4
aI5
aI6
atp151
Rp152
ag1
((lp153
I2
aI3
aI4
aI5
atp154
Rp155
ag29
atp156
Rp157
I360
sg1
((lp158
g1
((lp159
I3
aI4
aI5
aI6
atp160
Rp161
ag20
ag11
ag1
((lp162
I1
aI3
aI4
aI5
atp163
Rp164
ag1
((lp165
I2
aI4
aI5
aI6
atp166
Rp167
ag1
((lp168
I1
aI3
aI4
aI6
atp169
Rp170
atp171
Rp172
I720
sg1
((lp173
g1
((lp174
I1
aI2
aI4
aI6
atp175
Rp176
ag1
((lp177
I2
aI3
aI5
aI6
atp178
Rp179
ag1
((lp180
I1
aI2
aI3
aI4
atp181
Rp182
ag1
((lp183
I1
aI4
aI5
atp184
Rp185
ag1
((lp186
I1
aI2
aI3
aI6
atp187
Rp188
ag1
((lp189
I2
aI3
aI4
aI5
atp190
Rp191
atp192
Rp193
I720
sg1
((lp194
g1
((lp195
I2
aI3
aI5
aI6
atp196
Rp197
ag1
((lp198
I3
aI4
aI5
aI6
atp199
Rp200
ag1
((lp201
I1
aI2
aI3
aI5
atp202
Rp203
ag1
((lp204
I1
aI2
aI3
aI4
atp205
Rp206
ag1
((lp207
I2
aI3
aI4
aI6
atp208
Rp209
ag1
((lp210
I2
aI4
aI5
atp211
Rp212
atp213
Rp214
I360
sg1
((lp215
g89
ag92
ag131
ag95
ag1
((lp216
I2
aI4
aI5
aI6
atp217
Rp218
ag140
atp219
Rp220
I180
sg1
((lp221
g1
((lp222
I1
aI3
aI5
aI6
atp223
Rp224
ag1
((lp225
I2
aI3
aI5
aI6
atp226
Rp227
ag1
((lp228
I1
aI2
aI4
atp229
Rp230
ag1
((lp231
I1
aI2
aI5
aI6
atp232
Rp233
ag1
((lp234
I1
aI3
aI4
aI5
atp235
Rp236
ag1
((lp237
I2
aI3
aI4
aI5
atp238
Rp239
atp240
Rp241
I360
sg1
((lp242
g1
((lp243
I1
aI2
aI4
aI6
atp244
Rp245
ag1
((lp246
I1
aI2
aI3
aI4
atp247
Rp248
ag1
((lp249
I1
aI2
aI3
aI6
atp250
Rp251
ag1
((lp252
I1
aI3
aI4
aI5
atp253
Rp254
ag1
((lp255
I1
aI5
aI6
atp256
Rp257
ag1
((lp258
I2
aI3
aI4
aI5
atp259
Rp260
atp261
Rp262
I360
sg1
((lp263
g1
((lp264
I1
aI3
aI5
aI6
atp265
Rp266
ag1
((lp267
I3
aI4
aI5
aI6
atp268
Rp269
ag1
((lp270
I1
aI3
aI4
aI5
atp271
Rp272
ag1
((lp273
I2
aI3
aI4
aI6
atp274
Rp275
ag1
((lp276
I2
aI4
aI5
aI6
atp277
Rp278
ag1
((lp279
I1
aI4
aI6
atp280
Rp281
atp282
Rp283
I180
sg1
((lp284
g1
((lp285
I1
aI3
aI5
aI6
atp286
Rp287
ag179
ag182
ag185
ag188
ag1
((lp288
I2
aI3
aI4
aI6
atp289
Rp290
atp291
Rp292
I360
sg1
((lp293
g266
ag1
((lp294
I2
aI3
aI5
aI6
atp295
Rp296
ag269
ag1
((lp297
I1
aI2
aI5
aI6
atp298
Rp299
ag272
ag281
atp300
Rp301
I720
sg1
((lp302
g110
ag1
((lp303
I2
aI3
aI4
aI5
atp304
Rp305
ag119
ag122
ag1
((lp306
I1
aI3
aI4
aI5
atp307
Rp308
ag125
atp309
Rp310
I180
sg1
((lp311
g287
ag176
ag1
((lp312
I1
aI2
aI3
aI5
atp313
Rp314
ag185
ag290
ag191
atp315
Rp316
I720
sg1
((lp317
g206
ag203
ag1
((lp318
I1
aI2
aI5
aI6
atp319
Rp320
ag1
((lp321
I1
aI3
aI4
aI5
atp322
Rp323
ag212
ag1
((lp324
I1
aI3
aI4
aI6
atp325
Rp326
atp327
Rp328
I360
sg1
((lp329
g176
ag182
ag185
ag188
ag1
((lp330
I2
aI4
aI5
aI6
atp331
Rp332
ag191
atp333
Rp334
I360
sg1
((lp335
g1
((lp336
I2
aI3
aI6
atp337
Rp338
ag1
((lp339
I1
aI2
aI3
aI4
atp340
Rp341
ag1
((lp342
I1
aI2
aI3
aI5
atp343
Rp344
ag1
((lp345
I1
aI2
aI5
aI6
atp346
Rp347
ag1
((lp348
I1
aI3
aI4
aI5
atp349
Rp350
ag1
((lp351
I2
aI4
aI5
aI6
atp352
Rp353
atp354
Rp355
I720
sg1
((lp356
g68
ag71
ag77
ag1
((lp357
I3
aI4
aI5
aI6
atp358
Rp359
ag1
((lp360
I1
aI2
aI3
aI6
atp361
Rp362
ag74
atp363
Rp364
I720
sg1
((lp365
g296
ag272
ag275
ag278
ag281
ag1
((lp366
I2
aI3
aI4
aI5
atp367
Rp368
atp369
Rp370
I360
sg1
((lp371
g1
((lp372
I1
aI3
aI5
aI6
atp373
Rp374
ag1
((lp375
I1
aI2
aI4
aI6
atp376
Rp377
ag47
ag50
ag1
((lp378
I2
aI3
aI4
aI6
atp379
Rp380
ag62
atp381
Rp382
I720
sg1
((lp383
g26
ag29
ag149
ag38
ag155
ag146
atp384
Rp385
I720
sg1
((lp386
g1
((lp387
I1
aI3
aI5
aI6
atp388
Rp389
ag1
((lp390
I1
aI2
aI4
aI6
atp391
Rp392
ag206
ag200
ag209
ag212
atp393
Rp394
I360
sg1
((lp395
g47
ag59
ag1
((lp396
I1
aI2
aI3
aI5
atp397
Rp398
ag50
ag53
ag380
atp399
Rp400
I360
sg1
((lp401
g1
((lp402
I2
aI3
aI5
aI6
atp403
Rp404
ag1
((lp405
I3
aI4
aI5
aI6
atp406
Rp407
ag1
((lp408
I1
aI2
aI3
aI5
atp409
Rp410
ag1
((lp411
I1
aI3
aI6
atp412
Rp413
ag1
((lp414
I2
aI3
aI4
aI6
atp415
Rp416
ag1
((lp417
I2
aI3
aI4
aI5
atp418
Rp419
atp420
Rp421
I360
sg1
((lp422
g227
ag236
ag230
ag1
((lp423
I2
aI3
aI4
aI6
atp424
Rp425
ag1
((lp426
I2
aI4
aI5
aI6
atp427
Rp428
ag239
atp429
Rp430
I360
sg1
((lp431
g1
((lp432
I1
aI2
aI3
aI4
atp433
Rp434
ag305
ag308
ag122
ag1
((lp435
I2
aI3
aI4
aI6
atp436
Rp437
ag125
atp438
Rp439
I360
sg1
((lp440
g89
ag1
((lp441
I2
aI3
aI5
aI6
atp442
Rp443
ag1
((lp444
I1
aI2
aI3
aI5
atp445
Rp446
ag218
ag104
ag140
atp447
Rp448
I180
sg1
((lp449
g1
((lp450
I3
aI4
aI5
aI6
atp451
Rp452
ag1
((lp453
I1
aI2
aI5
atp454
Rp455
ag1
((lp456
I1
aI4
aI5
aI6
atp457
Rp458
ag1
((lp459
I2
aI3
aI4
aI6
atp460
Rp461
ag1
((lp462
I2
aI4
aI5
aI6
atp463
Rp464
ag1
((lp465
I1
aI3
aI4
aI6
atp466
Rp467
atp468
Rp469
I180
sg1
((lp470
g5
ag161
ag14
ag167
ag1
((lp471
I1
aI2
aI4
aI5
atp472
Rp473
ag20
atp474
Rp475
I120
sg1
((lp476
g1
((lp477
I1
aI3
aI5
aI6
atp478
Rp479
ag338
ag1
((lp480
I3
aI4
aI5
aI6
atp481
Rp482
ag1
((lp483
I1
aI4
aI5
aI6
atp484
Rp485
ag350
ag1
((lp486
I1
aI3
aI4
aI6
atp487
Rp488
atp489
Rp490
I60
sg1
((lp491
g287
ag179
ag185
ag188
ag332
ag1
((lp492
I1
aI3
aI4
aI6
atp493
Rp494
atp495
Rp496
I720
sg1
((lp497
g389
ag392
ag1
((lp498
I1
aI2
aI3
aI6
atp499
Rp500
ag209
ag212
ag326
atp501
Rp502
I180
sg1
((lp503
g1
((lp504
I1
aI2
aI4
aI6
atp505
Rp506
ag1
((lp507
I3
aI4
aI5
atp508
Rp509
ag1
((lp510
I1
aI2
aI3
aI4
atp511
Rp512
ag1
((lp513
I1
aI2
aI3
aI5
atp514
Rp515
ag1
((lp516
I2
aI3
aI5
aI6
atp517
Rp518
ag1
((lp519
I2
aI4
aI5
aI6
atp520
Rp521
atp522
Rp523
I360
s.