(dp0
c__builtin__
frozenset
p1
((lp2
g1
((lp3
I1
aI3
aI5
aI6
atp4
Rp5
ag1
((lp6
I2
aI5
aI6
atp7
Rp8
ag1
((lp9
I3
aI4
aI5
atp10
Rp11
ag1
((lp12
I1
aI2
aI4
atp13
Rp14
ag1
((lp15
I1
aI4
aI5
atp16
Rp17
ag1
((lp18
I2
aI3
aI4
aI6
atp19
Rp20
ag1
((lp21
I1
aI2
aI6
atp22
Rp23
ag1
((lp24
I2
aI4
aI5
atp25
Rp26
atp27
Rp28
I720
sg1
((lp29
g1
((lp30
I2
aI3
aI6
atp31
Rp32
ag1
((lp33
I2
aI3
aI5
atp34
Rp35
ag1
((lp36
I1
aI3
aI4
atp37
Rp38
ag23
ag1
((lp39
I2
aI4
aI5
aI6
atp40
Rp41
ag1
((lp42
I1
aI2
aI4
aI5
atp43
Rp44
ag1
((lp45
I1
aI4
aI6
atp46
Rp47
ag1
((lp48
I1
aI2
aI3
atp49
Rp50
atp51
Rp52
I720
sg1
((lp53
g1
((lp54
I1
aI3
aI5
atp55
Rp56
ag1
((lp57
I2
aI3
aI5
aI6
atp58
Rp59
ag11
ag26
ag14
ag1
((lp60
I2
aI3
aI4
aI6
atp61
Rp62
ag23
ag47
atp63
Rp64
I720
sg1
((lp65
g47
ag1
((lp66
I2
aI3
aI5
aI6
atp67
Rp68
ag1
((lp69
I1
aI3
aI6
atp70
Rp71
ag1
((lp72
I1
aI2
aI3
aI5
atp73
Rp74
ag1
((lp75
I2
aI4
aI6
atp76
Rp77
ag23
ag1
((lp78
I1
aI5
aI6
atp79
Rp80
ag26
atp81
Rp82
I720
sg1
((lp83
g1
((lp84
I1
aI3
aI5
aI6
atp85
Rp86
ag35
ag1
((lp87
I1
aI2
aI5
atp88
Rp89
ag14
ag17
ag1
((lp90
I4
aI5
aI6
atp91
Rp92
ag26
ag1
((lp93
I1
aI3
aI4
aI6
atp94
Rp95
atp96
Rp97
I720
sg1
((lp98
g56
ag71
ag1
((lp99
I2
aI3
aI4
atp100
Rp101
ag1
((lp102
I1
aI4
aI5
aI6
atp103
Rp104
ag35
ag38
ag89
ag1
((lp105
I3
aI4
aI5
aI6
atp106
Rp107
atp108
Rp109
I720
sg1
((lp110
g56
ag1
((lp111
I3
aI4
aI5
aI6
atp112
Rp113
ag1
((lp114
I1
aI4
aI5
aI6
atp115
Rp116
ag77
ag71
ag38
ag23
ag26
atp117
Rp118
I720
sg1
((lp119
g32
ag1
((lp120
I1
aI2
aI3
aI5
atp121
Rp122
ag101
ag23
ag1
((lp123
I2
aI4
aI5
aI6
atp124
Rp125
ag80
ag14
ag1
((lp126
I3
aI5
aI6
atp127
Rp128
atp129
Rp130
I360
sg1
((lp131
g1
((lp132
I3
aI4
aI6
atp133
Rp134
ag8
ag1
((lp135
I1
aI2
aI3
aI4
atp136
Rp137
ag89
ag1
((lp138
I1
aI3
aI4
aI5
atp139
Rp140
ag23
ag47
ag128
atp141
Rp142
I720
sg1
((lp143
g56
ag1
((lp144
I3
aI4
aI5
aI6
atp145
Rp146
ag50
ag101
ag17
ag23
ag26
ag1
((lp147
I1
aI3
aI4
aI6
atp148
Rp149
atp150
Rp151
I720
sg1
((lp152
g134
ag32
ag35
ag101
ag77
ag71
ag1
((lp153
I1
aI2
aI4
aI5
atp154
Rp155
ag1
((lp156
I1
aI2
aI5
aI6
atp157
Rp158
atp159
Rp160
I720
sg1
((lp161
g32
ag35
ag1
((lp162
I1
aI4
aI5
aI6
atp163
Rp164
ag77
ag89
ag1
((lp165
I1
aI3
aI4
aI5
atp166
Rp167
ag26
ag128
atp168
Rp169
I720
sg1
((lp170
g1
((lp171
I1
aI3
aI5
aI6
atp172
Rp173
ag1
((lp174
I2
aI3
aI5
aI6
atp175
Rp176
ag89
ag92
ag77
ag23
ag47
ag50
atp177
Rp178
I360
sg1
((lp179
g134
ag32
ag1
((lp180
I1
aI2
aI4
aI6
atp181
Rp182
ag11
ag35
ag1
((lp183
I1
aI4
aI5
aI6
atp184
Rp185
ag38
ag128
atp186
Rp187
I720
sg1
((lp188
g17
ag8
ag71
ag1
((lp189
I1
aI2
aI3
aI5
atp190
Rp191
ag14
ag77
ag1
((lp192
I3
aI4
aI5
aI6
atp193
Rp194
ag23
atp195
Rp196
I720
sg1
((lp197
g1
((lp198
I1
aI2
aI4
aI6
atp199
Rp200
ag71
ag50
ag89
ag17
ag38
ag80
ag1
((lp201
I2
aI3
aI4
aI5
atp202
Rp203
atp204
Rp205
I180
sg1
((lp206
g134
ag35
ag92
ag77
ag1
((lp207
I1
aI2
aI3
aI6
atp208
Rp209
ag80
ag128
ag1
((lp210
I1
aI2
aI4
aI5
atp211
Rp212
atp213
Rp214
I720
sg1
((lp215
g1
((lp216
I1
aI3
aI5
aI6
atp217
Rp218
ag47
ag1
((lp219
I3
aI4
aI5
aI6
atp220
Rp221
ag101
ag89
ag14
ag77
ag26
atp222
Rp223
I720
sg1
((lp224
g134
ag11
ag1
((lp225
I1
aI3
aI5
aI6
atp226
Rp227
ag1
((lp228
I1
aI2
aI3
aI4
atp229
Rp230
ag89
ag35
ag23
ag47
atp231
Rp232
I180
sg1
((lp233
g134
ag1
((lp234
I2
aI3
aI5
aI6
atp235
Rp236
ag71
ag14
ag38
ag80
ag47
ag1
((lp237
I2
aI3
aI4
aI5
atp238
Rp239
atp240
Rp241
I360
sg1
((lp242
g56
ag11
ag101
ag14
ag1
((lp243
I1
aI2
aI5
aI6
atp244
Rp245
ag38
ag1
((lp246
I2
aI4
aI5
aI6
atp247
Rp248
ag128
atp249
Rp250
I720
sg1
((lp251
g8
ag71
ag1
((lp252
I1
aI2
aI3
aI5
atp253
Rp254
ag92
ag77
ag1
((lp255
I1
aI3
aI4
aI5
atp256
Rp257
ag23
ag47
atp258
Rp259
I360
sg1
((lp260
g32
ag71
ag1
((lp261
I1
aI2
aI3
aI5
atp262
Rp263
ag14
ag1
((lp264
I1
aI2
aI5
aI6
atp265
Rp266
ag38
ag47
ag26
atp267
Rp268
I360
sg1
((lp269
g134
ag56
ag1
((lp270
I2
aI3
aI5
aI6
atp271
Rp272
ag38
ag23
ag80
ag47
ag1
((lp273
I1
aI2
aI4
aI5
atp274
Rp275
atp276
Rp277
I720
sg1
((lp278
g32
ag8
ag101
ag1
((lp279
I1
aI4
aI5
aI6
atp280
Rp281
ag14
ag77
ag26
ag1
((lp282
I1
aI3
aI4
aI6
atp283
Rp284
atp285
Rp286
I360
sg1
((lp287
g134
ag56
ag35
ag71
ag1
((lp288
I2
aI4
aI5
aI6
atp289
Rp290
ag23
ag80
ag1
((lp291
I1
aI2
aI4
aI5
atp292
Rp293
atp294
Rp295
I720
sg1
((lp296
g11
ag92
ag14
ag17
ag1
((lp297
I1
aI2
aI3
aI6
atp298
Rp299
ag80
ag26
ag1
((lp300
I1
aI3
aI4
aI6
atp301
Rp302
atp303
Rp304
I720
sg1
((lp305
g56
ag71
ag26
ag1
((lp306
I1
aI2
aI5
aI6
atp307
Rp308
ag35
ag1
((lp309
I3
aI4
aI5
aI6
atp310
Rp311
ag47
ag50
atp312
Rp313
I720
sg1
((lp314
g134
ag32
ag8
ag1
((lp315
I1
aI3
aI5
aI6
atp316
Rp317
ag14
ag92
ag47
ag1
((lp318
I2
aI3
aI4
aI5
atp319
Rp320
atp321
Rp322
I360
sg1
((lp323
g47
ag71
ag1
((lp324
I1
aI3
aI4
aI5
atp325
Rp326
ag92
ag35
ag1
((lp327
I2
aI3
aI4
aI6
atp328
Rp329
ag23
ag26
atp330
Rp331
I720
sg1
((lp332
g134
ag128
ag1
((lp333
I2
aI3
aI4
aI5
atp334
Rp335
ag89
ag14
ag38
ag1
((lp336
I2
aI4
aI5
aI6
atp337
Rp338
ag50
atp339
Rp340
I720
sg1
((lp341
g134
ag56
ag8
ag35
ag1
((lp342
I1
aI4
aI5
aI6
atp343
Rp344
ag14
ag77
ag1
((lp345
I1
aI2
aI3
aI6
atp346
Rp347
atp348
Rp349
I720
sg1
((lp350
g32
ag8
ag1
((lp351
I3
aI4
aI5
aI6
atp352
Rp353
ag14
ag38
ag23
ag47
ag1
((lp354
I2
aI3
aI4
aI5
atp355
Rp356
atp357
Rp358
I360
sg1
((lp359
g1
((lp360
I1
aI3
aI5
aI6
atp361
Rp362
ag32
ag1
((lp363
I3
aI4
aI5
aI6
atp364
Rp365
ag101
ag89
ag17
ag38
ag26
atp366
Rp367
I720
sg1
((lp368
g56
ag1
((lp369
I2
aI3
aI5
aI6
atp370
Rp371
ag11
ag101
ag89
ag14
ag17
ag1
((lp372
I1
aI2
aI3
aI6
atp373
Rp374
atp375
Rp376
I360
sg1
((lp377
g32
ag8
ag1
((lp378
I1
aI2
aI3
aI4
atp379
Rp380
ag71
ag56
ag23
ag80
ag1
((lp381
I2
aI3
aI4
aI5
atp382
Rp383
atp384
Rp385
I720
sg1
((lp386
g56
ag8
ag35
ag92
ag1
((lp387
I2
aI3
aI4
aI6
atp388
Rp389
ag1
((lp390
I1
aI2
aI4
aI5
atp391
Rp392
ag47
ag128
atp393
Rp394
I720
sg1
((lp395
g32
ag8
ag101
ag89
ag92
ag26
ag1
((lp396
I1
aI3
aI4
aI6
atp397
Rp398
ag1
((lp399
I1
aI2
aI4
aI6
atp400
Rp401
atp402
Rp403
I360
sg1
((lp404
g134
ag56
ag8
ag1
((lp405
I1
aI2
aI3
aI4
atp406
Rp407
ag92
ag32
ag23
ag1
((lp408
I2
aI3
aI4
aI5
atp409
Rp410
atp411
Rp412
I720
sg1
((lp413
g1
((lp414
I1
aI3
aI5
aI6
atp415
Rp416
ag32
ag11
ag35
ag92
ag23
ag26
ag1
((lp417
I1
aI3
aI4
aI6
atp418
Rp419
atp420
Rp421
I720
sg1
((lp422
g56
ag35
ag89
ag14
ag1
((lp423
I2
aI3
aI4
aI6
atp424
Rp425
ag1
((lp426
I2
aI4
aI5
aI6
atp427
Rp428
ag80
ag128
atp429
Rp430
I720
sg1
((lp431
g32
ag35
ag1
((lp432
I1
aI4
aI5
aI6
atp433
Rp434
ag14
ag56
ag23
ag26
ag1
((lp435
I1
aI3
aI4
aI6
atp436
Rp437
atp438
Rp439
I360
sg1
((lp440
g1
((lp441
I1
aI2
aI5
aI6
atp442
Rp443
ag71
ag1
((lp444
I1
aI2
aI3
aI5
atp445
Rp446
ag14
ag77
ag38
ag26
ag92
atp447
Rp448
I720
sg1
((lp449
g56
ag8
ag1
((lp450
I3
aI4
aI5
aI6
atp451
Rp452
ag17
ag35
ag38
ag26
ag1
((lp453
I1
aI2
aI4
aI6
atp454
Rp455
atp456
Rp457
I720
sg1
((lp458
g32
ag1
((lp459
I3
aI4
aI5
aI6
atp460
Rp461
ag14
ag77
ag71
ag1
((lp462
I1
aI3
aI4
aI5
atp463
Rp464
ag26
ag50
atp465
Rp466
I360
sg1
((lp467
g134
ag8
ag71
ag92
ag38
ag1
((lp468
I1
aI2
aI4
aI5
atp469
Rp470
ag128
ag1
((lp471
I1
aI2
aI4
aI6
atp472
Rp473
atp474
Rp475
I720
sg1
((lp476
g56
ag1
((lp477
I3
aI4
aI5
aI6
atp478
Rp479
ag17
ag71
ag1
((lp480
I2
aI4
aI5
aI6
atp481
Rp482
ag80
ag47
ag50
atp483
Rp484
I360
sg1
((lp485
g17
ag32
ag1
((lp486
I1
aI3
aI5
aI6
atp487
Rp488
ag101
ag92
ag77
ag23
ag1
((lp489
I1
aI3
aI4
aI6
atp490
Rp491
atp492
Rp493
I720
sg1
((lp494
g56
ag1
((lp495
I1
aI2
aI4
aI6
atp496
Rp497
ag11
ag35
ag101
ag1
((lp498
I2
aI4
aI5
aI6
atp499
Rp500
ag80
ag128
atp501
Rp502
I360
sg1
((lp503
g32
ag1
((lp504
I3
aI4
aI5
aI6
atp505
Rp506
ag77
ag1
((lp507
I1
aI2
aI3
aI4
atp508
Rp509
ag56
ag23
ag80
ag47
atp510
Rp511
I720
sg1
((lp512
g32
ag11
ag1
((lp513
I1
aI2
aI3
aI4
atp514
Rp515
ag1
((lp516
I1
aI4
aI5
aI6
atp517
Rp518
ag77
ag89
ag23
ag26
atp519
Rp520
I720
sg1
((lp521
g11
ag35
ag101
ag1
((lp522
I1
aI4
aI5
aI6
atp523
Rp524
ag38
ag23
ag1
((lp525
I1
aI2
aI4
aI5
atp526
Rp527
ag50
atp528
Rp529
I720
sg1
((lp530
g134
ag32
ag71
ag101
ag1
((lp531
I1
aI2
aI3
aI5
atp532
Rp533
ag38
ag1
((lp534
I1
aI2
aI4
aI5
atp535
Rp536
ag128
atp537
Rp538
I360
sg1
((lp539
g47
ag1
((lp540
I3
aI4
aI5
aI6
atp541
Rp542
ag89
ag35
ag1
((lp543
I2
aI3
aI4
aI6
atp544
Rp545
ag80
ag26
ag50
atp546
Rp547
I720
sg1
((lp548
g32
ag71
ag17
ag38
ag56
ag1
((lp549
I2
aI4
aI5
aI6
atp550
Rp551
ag23
ag1
((lp552
I2
aI3
aI4
aI5
atp553
Rp554
atp555
Rp556
I360
sg1
((lp557
g56
ag8
ag1
((lp558
I1
aI2
aI3
aI4
atp559
Rp560
ag89
ag77
ag80
ag47
ag1
((lp561
I2
aI3
aI4
aI5
atp562
Rp563
atp564
Rp565
I720
sg1
((lp566
g134
ag56
ag1
((lp567
I1
aI2
aI4
aI6
atp568
Rp569
ag1
((lp570
I2
aI3
aI4
aI5
atp571
Rp572
ag89
ag128
ag80
ag50
atp573
Rp574
I720
sg1
((lp575
g134
ag32
ag11
ag1
((lp576
I1
aI3
aI5
aI6
atp577
Rp578
ag1
((lp579
I1
aI2
aI3
aI4
atp580
Rp581
ag92
ag23
ag26
atp582
Rp583
I720
sg1
((lp584
g71
ag101
ag1
((lp585
I1
aI4
aI5
aI6
atp586
Rp587
ag14
ag35
ag89
ag1
((lp588
I3
aI4
aI5
aI6
atp589
Rp590
ag26
atp591
Rp592
I180
sg1
((lp593
g134
ag1
((lp594
I2
aI3
aI5
aI6
atp595
Rp596
ag11
ag71
ag77
ag17
ag47
ag1
((lp597
I1
aI2
aI5
aI6
atp598
Rp599
atp600
Rp601
I360
sg1
((lp602
g134
ag56
ag1
((lp603
I1
aI2
aI4
aI6
atp604
Rp605
ag11
ag89
ag32
ag1
((lp606
I2
aI4
aI5
aI6
atp607
Rp608
ag80
atp609
Rp610
I720
sg1
((lp611
g17
ag128
ag89
ag92
ag77
ag1
((lp612
I1
aI2
aI3
aI6
atp613
Rp614
ag26
ag1
((lp615
I1
aI3
aI4
aI6
atp616
Rp617
atp618
Rp619
I720
sg1
((lp620
g17
ag1
((lp621
I1
aI3
aI5
aI6
atp622
Rp623
ag1
((lp624
I3
aI4
aI5
aI6
atp625
Rp626
ag101
ag14
ag77
ag23
ag50
atp627
Rp628
I180
sg1
((lp629
g47
ag8
ag1
((lp630
I1
aI2
aI3
aI4
atp631
Rp632
ag77
ag71
ag1
((lp633
I1
aI3
aI4
aI5
atp634
Rp635
ag80
ag26
atp636
Rp637
I720
sg1
((lp638
g56
ag1
((lp639
I2
aI3
aI5
aI6
atp640
Rp641
ag71
ag92
ag1
((lp642
I2
aI3
aI4
aI6
atp643
Rp644
ag23
ag80
ag14
atp645
Rp646
I720
sg1
((lp647
g8
ag50
ag1
((lp648
I2
aI3
aI4
aI6
atp649
Rp650
ag14
ag1
((lp651
I1
aI3
aI4
aI5
atp652
Rp653
ag80
ag47
ag128
atp654
Rp655
I720
sg1
((lp656
g8
ag1
((lp657
I1
aI4
aI5
aI6
atp658
Rp659
ag14
ag77
ag89
ag23
ag26
ag1
((lp660
I1
aI3
aI4
aI6
atp661
Rp662
atp663
Rp664
I120
sg1
((lp665
g134
ag1
((lp666
I1
aI2
aI4
aI6
atp667
Rp668
ag11
ag71
ag101
ag1
((lp669
I1
aI2
aI5
aI6
atp670
Rp671
ag38
ag50
atp672
Rp673
I360
sg1
((lp674
g56
ag1
((lp675
I3
aI4
aI5
aI6
atp676
Rp677
ag50
ag14
ag71
ag38
ag23
ag1
((lp678
I2
aI3
aI4
aI5
atp679
Rp680
atp681
Rp682
I720
sg1
((lp683
g32
ag1
((lp684
I1
aI2
aI3
aI4
atp685
Rp686
ag92
ag1
((lp687
I1
aI2
aI5
aI6
atp688
Rp689
ag35
ag56
ag47
ag128
atp690
Rp691
I720
sg1
((lp692
g32
ag8
ag1
((lp693
I1
aI3
aI4
aI6
atp694
Rp695
ag101
ag92
ag1
((lp696
I1
aI2
aI4
aI5
atp697
Rp698
ag50
ag80
atp699
Rp700
I180
sg1
((lp701
g47
ag8
ag1
((lp702
I3
aI4
aI5
aI6
atp703
Rp704
ag101
ag1
((lp705
I1
aI2
aI3
aI6
atp706
Rp707
ag77
ag38
ag26
atp708
Rp709
I720
sg1
((lp710
g134
ag1
((lp711
I1
aI3
aI5
aI6
atp712
Rp713
ag35
ag14
ag77
ag1
((lp714
I1
aI2
aI3
aI6
atp715
Rp716
ag17
ag26
atp717
Rp718
I720
sg1
((lp719
g1
((lp720
I3
aI4
aI5
aI6
atp721
Rp722
ag50
ag14
ag71
ag38
ag23
ag47
ag1
((lp723
I2
aI3
aI4
aI5
atp724
Rp725
atp726
Rp727
I180
sg1
((lp728
g134
ag11
ag92
ag77
ag1
((lp729
I1
aI2
aI3
aI6
atp730
Rp731
ag80
ag128
ag1
((lp732
I1
aI2
aI4
aI5
atp733
Rp734
atp735
Rp736
I360
sg1
((lp737
g56
ag1
((lp738
I1
aI2
aI4
aI6
atp739
Rp740
ag11
ag92
ag1
((lp741
I1
aI2
aI5
aI6
atp742
Rp743
ag38
ag32
ag26
atp744
Rp745
I180
sg1
((lp746
g14
ag8
ag1
((lp747
I1
aI2
aI3
aI5
atp748
Rp749
ag92
ag1
((lp750
I1
aI3
aI4
aI5
atp751
Rp752
ag80
ag26
ag128
atp753
Rp754
I360
sg1
((lp755
g17
ag8
ag1
((lp756
I1
aI3
aI5
aI6
atp757
Rp758
ag1
((lp759
I3
aI4
aI5
aI6
atp760
Rp761
ag89
ag77
ag38
ag23
atp762
Rp763
I720
sg1
((lp764
g1
((lp765
I2
aI3
aI5
aI6
atp766
Rp767
ag89
ag17
ag38
ag23
ag1
((lp768
I2
aI4
aI5
aI6
atp769
Rp770
ag47
ag50
atp771
Rp772
I360
sg1
((lp773
g134
ag32
ag35
ag1
((lp774
I1
aI4
aI5
aI6
atp775
Rp776
ag71
ag1
((lp777
I1
aI3
aI4
aI5
atp778
Rp779
ag23
ag128
atp780
Rp781
I360
sg1
((lp782
g32
ag1
((lp783
I3
aI4
aI5
aI6
atp784
Rp785
ag14
ag17
ag23
ag1
((lp786
I2
aI4
aI5
aI6
atp787
Rp788
ag47
ag50
atp789
Rp790
I720
sg1
((lp791
g89
ag14
ag77
ag1
((lp792
I1
aI3
aI4
aI5
atp793
Rp794
ag23
ag80
ag26
ag1
((lp795
I1
aI3
aI4
aI6
atp796
Rp797
atp798
Rp799
I360
sg1
((lp800
g32
ag1
((lp801
I3
aI4
aI5
aI6
atp802
Rp803
ag17
ag71
ag56
ag23
ag47
ag1
((lp804
I2
aI3
aI4
aI5
atp805
Rp806
atp807
Rp808
I720
sg1
((lp809
g56
ag1
((lp810
I1
aI2
aI4
aI6
atp811
Rp812
ag1
((lp813
I3
aI4
aI5
aI6
atp814
Rp815
ag101
ag89
ag17
ag71
ag80
atp816
Rp817
I720
sg1
((lp818
g32
ag1
((lp819
I1
aI2
aI4
aI6
atp820
Rp821
ag71
ag89
ag92
ag17
ag56
ag1
((lp822
I2
aI3
aI4
aI5
atp823
Rp824
atp825
Rp826
I720
sg1
((lp827
g1
((lp828
I1
aI3
aI5
aI6
atp829
Rp830
ag1
((lp831
I3
aI4
aI5
aI6
atp832
Rp833
ag101
ag35
ag38
ag23
ag26
ag50
atp834
Rp835
I720
sg1
((lp836
g14
ag1
((lp837
I3
aI4
aI5
aI6
atp838
Rp839
ag1
((lp840
I1
aI2
aI3
aI5
atp841
Rp842
ag101
ag77
ag38
ag23
ag47
atp843
Rp844
I360
sg1
((lp845
g134
ag56
ag101
ag92
ag77
ag1
((lp846
I1
aI2
aI4
aI5
atp847
Rp848
ag47
ag1
((lp849
I1
aI2
aI5
aI6
atp850
Rp851
atp852
Rp853
I360
sg1
((lp854
g56
ag1
((lp855
I1
aI2
aI4
aI6
atp856
Rp857
ag35
ag101
ag1
((lp858
I1
aI4
aI5
aI6
atp859
Rp860
ag32
ag89
ag128
atp861
Rp862
I720
sg1
((lp863
g56
ag1
((lp864
I2
aI3
aI5
aI6
atp865
Rp866
ag1
((lp867
I1
aI3
aI4
aI6
atp868
Rp869
ag101
ag89
ag14
ag26
ag50
atp870
Rp871
I720
sg1
((lp872
g32
ag50
ag101
ag14
ag23
ag1
((lp873
I2
aI4
aI5
aI6
atp874
Rp875
ag80
ag1
((lp876
I1
aI3
aI4
aI6
atp877
Rp878
atp879
Rp880
I720
sg1
((lp881
g56
ag11
ag35
ag1
((lp882
I1
aI2
aI3
aI6
atp883
Rp884
ag80
ag47
ag128
ag1
((lp885
I1
aI2
aI4
aI5
atp886
Rp887
atp888
Rp889
I720
sg1
((lp890
g32
ag8
ag1
((lp891
I1
aI4
aI5
aI6
atp892
Rp893
ag14
ag77
ag23
ag26
ag1
((lp894
I1
aI3
aI4
aI6
atp895
Rp896
atp897
Rp898
I720
sg1
((lp899
g56
ag8
ag1
((lp900
I1
aI2
aI3
aI4
atp901
Rp902
ag92
ag35
ag80
ag26
ag1
((lp903
I1
aI2
aI4
aI6
atp904
Rp905
atp906
Rp907
I720
sg1
((lp908
g8
ag71
ag14
ag35
ag1
((lp909
I2
aI3
aI4
aI6
atp910
Rp911
ag1
((lp912
I3
aI4
aI5
aI6
atp913
Rp914
ag26
ag50
atp915
Rp916
I720
sg1
((lp917
g56
ag1
((lp918
I2
aI3
aI5
aI6
atp919
Rp920
ag1
((lp921
I3
aI4
aI5
aI6
atp922
Rp923
ag89
ag14
ag17
ag38
ag23
atp924
Rp925
I720
sg1
((lp926
g56
ag8
ag50
ag38
ag1
((lp927
I2
aI3
aI4
aI6
atp928
Rp929
ag80
ag128
ag1
((lp930
I1
aI2
aI4
aI5
atp931
Rp932
atp933
Rp934
I720
sg1
((lp935
g11
ag71
ag50
ag38
ag1
((lp936
I2
aI3
aI4
aI6
atp937
Rp938
ag1
((lp939
I2
aI4
aI5
aI6
atp940
Rp941
ag80
ag128
atp942
Rp943
I720
sg1
((lp944
g56
ag1
((lp945
I1
aI2
aI4
aI6
atp946
Rp947
ag11
ag101
ag89
ag92
ag1
((lp948
I1
aI2
aI3
aI6
atp949
Rp950
ag26
atp951
Rp952
I720
sg1
((lp953
g134
ag56
ag1
((lp954
I2
aI3
aI4
aI5
atp955
Rp956
ag89
ag38
ag128
ag1
((lp957
I2
aI4
aI5
aI6
atp958
Rp959
ag50
atp960
Rp961
I720
sg1
((lp962
g17
ag1
((lp963
I2
aI3
aI5
aI6
atp964
Rp965
ag11
ag101
ag77
ag38
ag47
ag1
((lp966
I1
aI2
aI5
aI6
atp967
Rp968
atp969
Rp970
I360
sg1
((lp971
g17
ag35
ag14
ag77
ag1
((lp972
I1
aI2
aI3
aI6
atp973
Rp974
ag26
ag92
ag1
((lp975
I1
aI2
aI5
aI6
atp976
Rp977
atp978
Rp979
I360
sg1
((lp980
g1
((lp981
I1
aI3
aI5
aI6
atp982
Rp983
ag50
ag14
ag38
ag23
ag92
ag47
ag1
((lp984
I2
aI3
aI4
aI5
atp985
Rp986
atp987
Rp988
I720
sg1
((lp989
g128
ag101
ag14
ag1
((lp990
I1
aI2
aI5
aI6
atp991
Rp992
ag1
((lp993
I1
aI3
aI4
aI5
atp994
Rp995
ag92
ag26
ag50
atp996
Rp997
I720
sg1
((lp998
g134
ag1
((lp999
I2
aI3
aI5
aI6
atp1000
Rp1001
ag11
ag1
((lp1002
I1
aI3
aI5
aI6
atp1003
Rp1004
ag92
ag17
ag47
ag50
atp1005
Rp1006
I360
sg1
((lp1007
g56
ag1
((lp1008
I1
aI2
aI3
aI6
atp1009
Rp1010
ag89
ag14
ag17
ag38
ag80
ag1
((lp1011
I2
aI3
aI4
aI5
atp1012
Rp1013
atp1014
Rp1015
I360
sg1
((lp1016
g1
((lp1017
I2
aI3
aI5
aI6
atp1018
Rp1019
ag11
ag1
((lp1020
I1
aI2
aI3
aI5
atp1021
Rp1022
ag101
ag38
ag23
ag26
ag92
atp1023
Rp1024
I360
sg1
((lp1025
g134
ag56
ag8
ag1
((lp1026
I1
aI2
aI3
aI4
atp1027
Rp1028
ag92
ag35
ag1
((lp1029
I1
aI2
aI3
aI6
atp1030
Rp1031
ag80
atp1032
Rp1033
I360
sg1
((lp1034
g17
ag1
((lp1035
I2
aI3
aI5
aI6
atp1036
Rp1037
ag1
((lp1038
I3
aI4
aI5
aI6
atp1039
Rp1040
ag77
ag38
ag80
ag26
ag50
atp1041
Rp1042
I720
sg1
((lp1043
g8
ag11
ag1
((lp1044
I1
aI3
aI4
aI6
atp1045
Rp1046
ag101
ag1
((lp1047
I1
aI4
aI5
aI6
atp1048
Rp1049
ag14
ag23
ag50
atp1050
Rp1051
I720
sg1
((lp1052
g11
ag35
ag1
((lp1053
I1
aI3
aI4
aI6
atp1054
Rp1055
ag101
ag89
ag17
ag1
((lp1056
I2
aI4
aI5
aI6
atp1057
Rp1058
ag50
atp1059
Rp1060
I720
sg1
((lp1061
g134
ag1
((lp1062
I1
aI2
aI3
aI5
atp1063
Rp1064
ag92
ag101
ag38
ag1
((lp1065
I1
aI2
aI4
aI5
atp1066
Rp1067
ag47
ag128
atp1068
Rp1069
I720
sg1
((lp1070
g11
ag35
ag1
((lp1071
I1
aI2
aI3
aI6
atp1072
Rp1073
ag101
ag38
ag1
((lp1074
I1
aI2
aI4
aI5
atp1075
Rp1076
ag92
ag128
atp1077
Rp1078
I720
sg1
((lp1079
g134
ag32
ag8
ag1
((lp1080
I2
aI3
aI4
aI5
atp1081
Rp1082
ag92
ag1
((lp1083
I1
aI3
aI4
aI5
atp1084
Rp1085
ag50
ag128
atp1086
Rp1087
I720
sg1
((lp1088
g134
ag8
ag50
ag77
ag23
ag1
((lp1089
I1
aI2
aI4
aI5
atp1090
Rp1091
ag47
ag1
((lp1092
I2
aI3
aI4
aI5
atp1093
Rp1094
atp1095
Rp1096
I720
sg1
((lp1097
g32
ag8
ag71
ag50
ag77
ag38
ag1
((lp1098
I1
aI2
aI4
aI5
atp1099
Rp1100
ag1
((lp1101
I2
aI3
aI4
aI5
atp1102
Rp1103
atp1104
Rp1105
I720
sg1
((lp1106
g134
ag1
((lp1107
I1
aI2
aI4
aI6
atp1108
Rp1109
ag71
ag101
ag1
((lp1110
I1
aI4
aI5
aI6
atp1111
Rp1112
ag35
ag38
ag128
atp1113
Rp1114
I360
sg1
((lp1115
g8
ag35
ag1
((lp1116
I1
aI2
aI3
aI6
atp1117
Rp1118
ag92
ag38
ag1
((lp1119
I2
aI3
aI4
aI6
atp1120
Rp1121
ag80
ag47
atp1122
Rp1123
I360
sg1
((lp1124
g17
ag32
ag1
((lp1125
I1
aI2
aI3
aI5
atp1126
Rp1127
ag14
ag77
ag23
ag80
ag1
((lp1128
I1
aI3
aI4
aI6
atp1129
Rp1130
atp1131
Rp1132
I720
sg1
((lp1133
g134
ag32
ag8
ag71
ag35
ag1
((lp1134
I1
aI2
aI4
aI5
atp1135
Rp1136
ag50
ag1
((lp1137
I1
aI2
aI4
aI6
atp1138
Rp1139
atp1140
Rp1141
I720
sg1
((lp1142
g32
ag11
ag35
ag101
ag1
((lp1143
I1
aI2
aI5
aI6
atp1144
Rp1145
ag1
((lp1146
I1
aI2
aI4
aI5
atp1147
Rp1148
ag47
ag50
atp1149
Rp1150
I720
sg1
((lp1151
g134
ag1
((lp1152
I2
aI3
aI5
aI6
atp1153
Rp1154
ag11
ag1
((lp1155
I1
aI3
aI5
aI6
atp1156
Rp1157
ag101
ag89
ag92
ag14
atp1158
Rp1159
I720
sg1
((lp1160
g56
ag8
ag101
ag92
ag1
((lp1161
I1
aI2
aI3
aI6
atp1162
Rp1163
ag80
ag47
ag1
((lp1164
I1
aI2
aI4
aI5
atp1165
Rp1166
atp1167
Rp1168
I720
sg1
((lp1169
g56
ag8
ag35
ag92
ag38
ag1
((lp1170
I2
aI3
aI4
aI6
atp1171
Rp1172
ag1
((lp1173
I1
aI2
aI4
aI5
atp1174
Rp1175
ag50
atp1176
Rp1177
I720
sg1
((lp1178
g1
((lp1179
I2
aI3
aI5
aI6
atp1180
Rp1181
ag11
ag101
ag1
((lp1182
I1
aI4
aI5
aI6
atp1183
Rp1184
ag14
ag38
ag23
ag50
atp1185
Rp1186
I180
sg1
((lp1187
g32
ag128
ag14
ag1
((lp1188
I1
aI2
aI5
aI6
atp1189
Rp1190
ag1
((lp1191
I1
aI3
aI4
aI5
atp1192
Rp1193
ag92
ag26
ag50
atp1194
Rp1195
I720
sg1
((lp1196
g134
ag47
ag1
((lp1197
I2
aI3
aI5
aI6
atp1198
Rp1199
ag11
ag1
((lp1200
I1
aI2
aI3
aI4
atp1201
Rp1202
ag17
ag23
ag26
atp1203
Rp1204
I720
sg1
((lp1205
g17
ag56
ag1
((lp1206
I2
aI3
aI5
aI6
atp1207
Rp1208
ag1
((lp1209
I3
aI4
aI5
aI6
atp1210
Rp1211
ag77
ag38
ag47
ag50
atp1212
Rp1213
I720
sg1
((lp1214
g134
ag8
ag1
((lp1215
I1
aI3
aI5
aI6
atp1216
Rp1217
ag92
ag77
ag1
((lp1218
I1
aI3
aI4
aI5
atp1219
Rp1220
ag26
ag50
atp1221
Rp1222
I360
sg1
((lp1223
g32
ag14
ag71
ag1
((lp1224
I1
aI2
aI3
aI5
atp1225
Rp1226
ag101
ag1
((lp1227
I1
aI3
aI4
aI5
atp1228
Rp1229
ag26
ag128
atp1230
Rp1231
I360
sg1
((lp1232
g1
((lp1233
I1
aI2
aI5
aI6
atp1234
Rp1235
ag35
ag1
((lp1236
I1
aI2
aI3
aI6
atp1237
Rp1238
ag101
ag77
ag38
ag47
ag92
atp1239
Rp1240
I720
sg1
((lp1241
g134
ag56
ag11
ag1
((lp1242
I1
aI4
aI5
aI6
atp1243
Rp1244
ag38
ag32
ag1
((lp1245
I2
aI4
aI5
aI6
atp1246
Rp1247
ag50
atp1248
Rp1249
I720
sg1
((lp1250
g17
ag1
((lp1251
I1
aI3
aI5
aI6
atp1252
Rp1253
ag35
ag101
ag89
ag77
ag1
((lp1254
I1
aI2
aI3
aI6
atp1255
Rp1256
ag47
atp1257
Rp1258
I720
sg1
((lp1259
g56
ag8
ag92
ag17
ag38
ag80
ag1
((lp1260
I2
aI3
aI4
aI5
atp1261
Rp1262
ag1
((lp1263
I1
aI2
aI4
aI6
atp1264
Rp1265
atp1266
Rp1267
I720
sg1
((lp1268
g8
ag1
((lp1269
I3
aI4
aI5
aI6
atp1270
Rp1271
ag14
ag17
ag35
ag38
ag1
((lp1272
I2
aI3
aI4
aI6
atp1273
Rp1274
ag80
atp1275
Rp1276
I720
sg1
((lp1277
g134
ag56
ag1
((lp1278
I1
aI2
aI4
aI6
atp1279
Rp1280
ag11
ag1
((lp1281
I2
aI3
aI5
aI6
atp1282
Rp1283
ag80
ag26
ag50
atp1284
Rp1285
I180
sg1
((lp1286
g1
((lp1287
I1
aI3
aI5
aI6
atp1288
Rp1289
ag32
ag11
ag14
ag1
((lp1290
I2
aI4
aI5
aI6
atp1291
Rp1292
ag23
ag47
ag50
atp1293
Rp1294
I360
sg1
((lp1295
g134
ag56
ag11
ag35
ag1
((lp1296
I1
aI4
aI5
aI6
atp1297
Rp1298
ag1
((lp1299
I1
aI2
aI5
aI6
atp1300
Rp1301
ag71
ag26
atp1302
Rp1303
I720
sg1
((lp1304
g14
ag71
ag1
((lp1305
I1
aI2
aI3
aI5
atp1306
Rp1307
ag1
((lp1308
I1
aI4
aI5
aI6
atp1309
Rp1310
ag101
ag77
ag26
ag128
atp1311
Rp1312
I180
sg1
((lp1313
g32
ag8
ag11
ag50
ag92
ag1
((lp1314
I1
aI2
aI4
aI5
atp1315
Rp1316
ag128
ag1
((lp1317
I1
aI2
aI4
aI6
atp1318
Rp1319
atp1320
Rp1321
I720
sg1
((lp1322
g11
ag35
ag101
ag1
((lp1323
I1
aI4
aI5
aI6
atp1324
Rp1325
ag14
ag77
ag26
ag1
((lp1326
I1
aI3
aI4
aI6
atp1327
Rp1328
atp1329
Rp1330
I180
sg1
((lp1331
g134
ag32
ag8
ag1
((lp1332
I1
aI3
aI5
aI6
atp1333
Rp1334
ag92
ag77
ag23
ag1
((lp1335
I1
aI2
aI4
aI5
atp1336
Rp1337
atp1338
Rp1339
I720
sg1
((lp1340
g134
ag56
ag71
ag128
ag23
ag1
((lp1341
I1
aI2
aI4
aI5
atp1342
Rp1343
ag50
ag1
((lp1344
I2
aI3
aI4
aI5
atp1345
Rp1346
atp1347
Rp1348
I720
sg1
((lp1349
g50
ag92
ag77
ag1
((lp1350
I2
aI3
aI4
aI5
atp1351
Rp1352
ag23
ag80
ag128
ag1
((lp1353
I1
aI2
aI4
aI5
atp1354
Rp1355
atp1356
Rp1357
I720
sg1
((lp1358
g134
ag1
((lp1359
I1
aI2
aI4
aI6
atp1360
Rp1361
ag1
((lp1362
I1
aI3
aI5
aI6
atp1363
Rp1364
ag35
ag92
ag38
ag26
ag50
atp1365
Rp1366
I360
sg1
((lp1367
g56
ag1
((lp1368
I3
aI4
aI5
aI6
atp1369
Rp1370
ag17
ag35
ag38
ag1
((lp1371
I2
aI3
aI4
aI6
atp1372
Rp1373
ag23
ag26
atp1374
Rp1375
I360
sg1
((lp1376
g134
ag32
ag1
((lp1377
I1
aI2
aI4
aI6
atp1378
Rp1379
ag11
ag71
ag38
ag80
ag1
((lp1380
I1
aI2
aI4
aI5
atp1381
Rp1382
atp1383
Rp1384
I720
sg1
((lp1385
g56
ag1
((lp1386
I2
aI3
aI5
aI6
atp1387
Rp1388
ag11
ag1
((lp1389
I1
aI2
aI3
aI6
atp1390
Rp1391
ag14
ag38
ag47
ag92
atp1392
Rp1393
I720
sg1
((lp1394
g56
ag8
ag1
((lp1395
I3
aI4
aI5
aI6
atp1396
Rp1397
ag101
ag14
ag32
ag80
ag1
((lp1398
I1
aI3
aI4
aI6
atp1399
Rp1400
atp1401
Rp1402
I720
sg1
((lp1403
g17
ag56
ag1
((lp1404
I1
aI2
aI3
aI4
atp1405
Rp1406
ag77
ag1
((lp1407
I1
aI2
aI3
aI6
atp1408
Rp1409
ag80
ag26
ag128
atp1410
Rp1411
I720
sg1
((lp1412
g134
ag32
ag1
((lp1413
I1
aI2
aI4
aI6
atp1414
Rp1415
ag92
ag1
((lp1416
I1
aI2
aI5
aI6
atp1417
Rp1418
ag38
ag26
ag50
atp1419
Rp1420
I720
sg1
((lp1421
g134
ag1
((lp1422
I2
aI3
aI5
aI6
atp1423
Rp1424
ag11
ag71
ag92
ag80
ag50
ag1
((lp1425
I1
aI2
aI4
aI5
atp1426
Rp1427
atp1428
Rp1429
I720
sg1
((lp1430
g134
ag56
ag1
((lp1431
I2
aI3
aI5
aI6
atp1432
Rp1433
ag71
ag50
ag14
ag77
ag1
((lp1434
I2
aI3
aI4
aI5
atp1435
Rp1436
atp1437
Rp1438
I720
sg1
((lp1439
g32
ag1
((lp1440
I3
aI4
aI5
aI6
atp1441
Rp1442
ag89
ag77
ag71
ag1
((lp1443
I1
aI3
aI4
aI5
atp1444
Rp1445
ag23
ag47
atp1446
Rp1447
I360
sg1
((lp1448
g35
ag92
ag17
ag1
((lp1449
I1
aI2
aI3
aI6
atp1450
Rp1451
ag1
((lp1452
I2
aI3
aI4
aI6
atp1453
Rp1454
ag80
ag47
ag128
atp1455
Rp1456
I360
sg1
((lp1457
g50
ag14
ag77
ag1
((lp1458
I1
aI3
aI4
aI5
atp1459
Rp1460
ag23
ag92
ag26
ag1
((lp1461
I1
aI3
aI4
aI6
atp1462
Rp1463
atp1464
Rp1465
I720
sg1
((lp1466
g134
ag35
ag101
ag1
((lp1467
I1
aI4
aI5
aI6
atp1468
Rp1469
ag71
ag23
ag1
((lp1470
I1
aI2
aI4
aI5
atp1471
Rp1472
ag128
atp1473
Rp1474
I360
sg1
((lp1475
g56
ag1
((lp1476
I2
aI3
aI5
aI6
atp1477
Rp1478
ag14
ag17
ag38
ag1
((lp1479
I2
aI4
aI5
aI6
atp1480
Rp1481
ag80
ag47
atp1482
Rp1483
I720
sg1
((lp1484
g47
ag35
ag101
ag92
ag1
((lp1485
I1
aI2
aI5
aI6
atp1486
Rp1487
ag1
((lp1488
I1
aI3
aI4
aI5
atp1489
Rp1490
ag26
ag128
atp1491
Rp1492
I720
sg1
((lp1493
g56
ag8
ag92
ag1
((lp1494
I1
aI2
aI3
aI6
atp1495
Rp1496
ag80
ag26
ag128
ag1
((lp1497
I1
aI2
aI4
aI6
atp1498
Rp1499
atp1500
Rp1501
I360
sg1
((lp1502
g1
((lp1503
I1
aI2
aI4
aI6
atp1504
Rp1505
ag71
ag50
ag89
ag35
ag1
((lp1506
I2
aI3
aI4
aI6
atp1507
Rp1508
ag80
ag128
atp1509
Rp1510
I180
sg1
((lp1511
g35
ag1
((lp1512
I1
aI3
aI4
aI6
atp1513
Rp1514
ag89
ag92
ag1
((lp1515
I1
aI3
aI4
aI5
atp1516
Rp1517
ag80
ag26
ag128
atp1518
Rp1519
I120
sg1
((lp1520
g134
ag35
ag50
ag101
ag1
((lp1521
I1
aI3
aI4
aI5
atp1522
Rp1523
ag23
ag1
((lp1524
I1
aI2
aI4
aI5
atp1525
Rp1526
ag128
atp1527
Rp1528
I360
sg1
((lp1529
g1
((lp1530
I1
aI3
aI5
aI6
atp1531
Rp1532
ag32
ag1
((lp1533
I3
aI4
aI5
aI6
atp1534
Rp1535
ag101
ag38
ag47
ag26
ag50
atp1536
Rp1537
I720
sg1
((lp1538
g11
ag35
ag101
ag1
((lp1539
I1
aI4
aI5
aI6
atp1540
Rp1541
ag14
ag1
((lp1542
I1
aI2
aI5
aI6
atp1543
Rp1544
ag26
ag128
atp1545
Rp1546
I360
sg1
((lp1547
g134
ag11
ag92
ag77
ag1
((lp1548
I1
aI2
aI3
aI6
atp1549
Rp1550
ag1
((lp1551
I1
aI2
aI4
aI5
atp1552
Rp1553
ag47
ag128
atp1554
Rp1555
I180
sg1
((lp1556
g32
ag71
ag1
((lp1557
I1
aI2
aI3
aI5
atp1558
Rp1559
ag92
ag77
ag1
((lp1560
I1
aI2
aI4
aI5
atp1561
Rp1562
ag47
ag128
atp1563
Rp1564
I60
sg1
((lp1565
g134
ag11
ag1
((lp1566
I1
aI2
aI3
aI5
atp1567
Rp1568
ag14
ag77
ag1
((lp1569
I1
aI2
aI3
aI6
atp1570
Rp1571
ag80
ag128
atp1572
Rp1573
I720
sg1
((lp1574
g14
ag8
ag128
ag92
ag38
ag1
((lp1575
I2
aI3
aI4
aI6
atp1576
Rp1577
ag50
ag1
((lp1578
I2
aI3
aI4
aI5
atp1579
Rp1580
atp1581
Rp1582
I60
sg1
((lp1583
g1
((lp1584
I1
aI2
aI4
aI6
atp1585
Rp1586
ag71
ag128
ag101
ag89
ag38
ag1
((lp1587
I2
aI4
aI5
aI6
atp1588
Rp1589
ag50
atp1590
Rp1591
I720
sg1
((lp1592
g56
ag11
ag1
((lp1593
I1
aI2
aI3
aI4
atp1594
Rp1595
ag128
ag17
ag80
ag26
ag1
((lp1596
I1
aI3
aI4
aI6
atp1597
Rp1598
atp1599
Rp1600
I360
sg1
((lp1601
g134
ag32
ag1
((lp1602
I1
aI2
aI3
aI5
atp1603
Rp1604
ag14
ag77
ag38
ag17
ag1
((lp1605
I2
aI3
aI4
aI5
atp1606
Rp1607
atp1608
Rp1609
I360
sg1
((lp1610
g134
ag8
ag1
((lp1611
I1
aI3
aI5
aI6
atp1612
Rp1613
ag1
((lp1614
I1
aI2
aI3
aI6
atp1615
Rp1616
ag89
ag14
ag38
ag47
atp1617
Rp1618
I720
sg1
((lp1619
g32
ag128
ag77
ag38
ag23
ag1
((lp1620
I1
aI2
aI4
aI5
atp1621
Rp1622
ag47
ag1
((lp1623
I2
aI3
aI4
aI5
atp1624
Rp1625
atp1626
Rp1627
I720
sg1
((lp1628
g35
ag50
ag1
((lp1629
I1
aI4
aI5
aI6
atp1630
Rp1631
ag14
ag77
ag128
ag89
ag1
((lp1632
I1
aI3
aI4
aI6
atp1633
Rp1634
atp1635
Rp1636
I360
sg1
((lp1637
g134
ag32
ag1
((lp1638
I1
aI2
aI4
aI6
atp1639
Rp1640
ag89
ag92
ag17
ag38
ag1
((lp1641
I2
aI3
aI4
aI5
atp1642
Rp1643
atp1644
Rp1645
I180
sg1
((lp1646
g134
ag56
ag128
ag1
((lp1647
I1
aI4
aI5
aI6
atp1648
Rp1649
ag14
ag77
ag50
ag1
((lp1650
I1
aI2
aI5
aI6
atp1651
Rp1652
atp1653
Rp1654
I360
sg1
((lp1655
g134
ag32
ag1
((lp1656
I1
aI2
aI4
aI6
atp1657
Rp1658
ag11
ag101
ag1
((lp1659
I1
aI4
aI5
aI6
atp1660
Rp1661
ag38
ag26
atp1662
Rp1663
I720
sg1
((lp1664
g134
ag32
ag101
ag92
ag1
((lp1665
I1
aI2
aI5
aI6
atp1666
Rp1667
ag38
ag1
((lp1668
I1
aI2
aI4
aI5
atp1669
Rp1670
ag50
atp1671
Rp1672
I720
sg1
((lp1673
g47
ag1
((lp1674
I2
aI3
aI5
aI6
atp1675
Rp1676
ag1
((lp1677
I3
aI4
aI5
aI6
atp1678
Rp1679
ag101
ag89
ag17
ag80
ag26
atp1680
Rp1681
I720
sg1
((lp1682
g1
((lp1683
I1
aI2
aI5
aI6
atp1684
Rp1685
ag35
ag1
((lp1686
I1
aI2
aI3
aI6
atp1687
Rp1688
ag14
ag17
ag38
ag47
ag128
atp1689
Rp1690
I180
sg1
((lp1691
g32
ag8
ag1
((lp1692
I1
aI2
aI3
aI5
atp1693
Rp1694
ag92
ag77
ag80
ag47
ag1
((lp1695
I1
aI2
aI4
aI5
atp1696
Rp1697
atp1698
Rp1699
I720
sg1
((lp1700
g56
ag1
((lp1701
I3
aI4
aI5
aI6
atp1702
Rp1703
ag89
ag38
ag23
ag80
ag47
ag1
((lp1704
I2
aI3
aI4
aI5
atp1705
Rp1706
atp1707
Rp1708
I720
sg1
((lp1709
g1
((lp1710
I1
aI2
aI5
aI6
atp1711
Rp1712
ag56
ag71
ag14
ag17
ag1
((lp1713
I2
aI3
aI4
aI6
atp1714
Rp1715
ag26
ag128
atp1716
Rp1717
I180
sg1
((lp1718
g56
ag128
ag14
ag23
ag1
((lp1719
I2
aI4
aI5
aI6
atp1720
Rp1721
ag80
ag47
ag1
((lp1722
I2
aI3
aI4
aI5
atp1723
Rp1724
atp1725
Rp1726
I360
sg1
((lp1727
g1
((lp1728
I1
aI3
aI5
aI6
atp1729
Rp1730
ag32
ag11
ag92
ag17
ag23
ag26
ag1
((lp1731
I1
aI3
aI4
aI6
atp1732
Rp1733
atp1734
Rp1735
I180
sg1
((lp1736
g134
ag8
ag1
((lp1737
I1
aI2
aI3
aI4
atp1738
Rp1739
ag89
ag71
ag1
((lp1740
I1
aI3
aI4
aI5
atp1741
Rp1742
ag23
ag26
atp1743
Rp1744
I720
sg1
((lp1745
g71
ag101
ag92
ag1
((lp1746
I1
aI3
aI4
aI5
atp1747
Rp1748
ag23
ag80
ag128
ag1
((lp1749
I1
aI2
aI4
aI5
atp1750
Rp1751
atp1752
Rp1753
I720
sg1
((lp1754
g32
ag11
ag1
((lp1755
I1
aI2
aI3
aI4
atp1756
Rp1757
ag1
((lp1758
I1
aI4
aI5
aI6
atp1759
Rp1760
ag77
ag23
ag26
ag128
atp1761
Rp1762
I720
sg1
((lp1763
g134
ag56
ag1
((lp1764
I2
aI3
aI5
aI6
atp1765
Rp1766
ag89
ag77
ag17
ag23
ag1
((lp1767
I2
aI3
aI4
aI5
atp1768
Rp1769
atp1770
Rp1771
I720
sg1
((lp1772
g32
ag8
ag1
((lp1773
I3
aI4
aI5
aI6
atp1774
Rp1775
ag89
ag71
ag56
ag80
ag1
((lp1776
I1
aI2
aI4
aI6
atp1777
Rp1778
atp1779
Rp1780
I360
sg1
((lp1781
g1
((lp1782
I1
aI2
aI5
aI6
atp1783
Rp1784
ag32
ag11
ag35
ag101
ag17
ag1
((lp1785
I2
aI4
aI5
aI6
atp1786
Rp1787
ag50
atp1788
Rp1789
I720
sg1
((lp1790
g14
ag1
((lp1791
I3
aI4
aI5
aI6
atp1792
Rp1793
ag1
((lp1794
I1
aI2
aI3
aI5
atp1795
Rp1796
ag101
ag17
ag38
ag23
ag26
atp1797
Rp1798
I180
sg1
((lp1799
g32
ag1
((lp1800
I1
aI2
aI4
aI6
atp1801
Rp1802
ag71
ag35
ag89
ag92
ag1
((lp1803
I1
aI2
aI3
aI4
atp1804
Rp1805
ag26
atp1806
Rp1807
I720
sg1
((lp1808
g35
ag128
ag1
((lp1809
I1
aI3
aI4
aI5
atp1810
Rp1811
ag89
ag92
ag1
((lp1812
I2
aI3
aI4
aI6
atp1813
Rp1814
ag47
ag50
atp1815
Rp1816
I720
sg1
((lp1817
g11
ag71
ag1
((lp1818
I1
aI2
aI3
aI5
atp1819
Rp1820
ag92
ag17
ag1
((lp1821
I2
aI3
aI4
aI6
atp1822
Rp1823
ag14
ag128
atp1824
Rp1825
I720
sg1
((lp1826
g17
ag32
ag8
ag1
((lp1827
I1
aI3
aI4
aI6
atp1828
Rp1829
ag89
ag77
ag23
ag1
((lp1830
I2
aI3
aI4
aI5
atp1831
Rp1832
atp1833
Rp1834
I720
sg1
((lp1835
g8
ag1
((lp1836
I3
aI4
aI5
aI6
atp1837
Rp1838
ag50
ag89
ag71
ag23
ag80
ag1
((lp1839
I2
aI3
aI4
aI5
atp1840
Rp1841
atp1842
Rp1843
I360
sg1
((lp1844
g32
ag11
ag71
ag101
ag1
((lp1845
I2
aI4
aI5
aI6
atp1846
Rp1847
ag1
((lp1848
I1
aI2
aI4
aI5
atp1849
Rp1850
ag47
ag50
atp1851
Rp1852
I360
sg1
((lp1853
g56
ag11
ag1
((lp1854
I1
aI2
aI3
aI4
atp1855
Rp1856
ag26
ag89
ag1
((lp1857
I1
aI2
aI3
aI6
atp1858
Rp1859
ag80
ag47
atp1860
Rp1861
I360
sg1
((lp1862
g101
ag89
ag14
ag1
((lp1863
I1
aI2
aI3
aI6
atp1864
Rp1865
ag1
((lp1866
I1
aI3
aI4
aI5
atp1867
Rp1868
ag80
ag26
ag92
atp1869
Rp1870
I720
sg1
((lp1871
g11
ag71
ag101
ag1
((lp1872
I1
aI2
aI3
aI5
atp1873
Rp1874
ag17
ag38
ag1
((lp1875
I2
aI4
aI5
aI6
atp1876
Rp1877
ag128
atp1878
Rp1879
I720
sg1
((lp1880
g32
ag8
ag1
((lp1881
I3
aI4
aI5
aI6
atp1882
Rp1883
ag77
ag71
ag1
((lp1884
I1
aI3
aI4
aI5
atp1885
Rp1886
ag23
ag50
atp1887
Rp1888
I360
sg1
((lp1889
g56
ag8
ag35
ag92
ag71
ag32
ag1
((lp1890
I1
aI2
aI4
aI5
atp1891
Rp1892
ag1
((lp1893
I1
aI2
aI4
aI6
atp1894
Rp1895
atp1896
Rp1897
I360
sg1
((lp1898
g134
ag56
ag8
ag35
ag101
ag1
((lp1899
I1
aI4
aI5
aI6
atp1900
Rp1901
ag38
ag1
((lp1902
I1
aI2
aI4
aI6
atp1903
Rp1904
atp1905
Rp1906
I720
sg1
((lp1907
g17
ag1
((lp1908
I2
aI3
aI5
aI6
atp1909
Rp1910
ag71
ag14
ag77
ag1
((lp1911
I3
aI4
aI5
aI6
atp1912
Rp1913
ag38
ag50
atp1914
Rp1915
I720
sg1
((lp1916
g47
ag11
ag71
ag35
ag89
ag1
((lp1917
I1
aI2
aI3
aI4
atp1918
Rp1919
ag1
((lp1920
I2
aI3
aI4
aI6
atp1921
Rp1922
ag26
atp1923
Rp1924
I360
sg1
((lp1925
g134
ag35
ag77
ag1
((lp1926
I1
aI2
aI3
aI6
atp1927
Rp1928
ag1
((lp1929
I1
aI3
aI4
aI5
atp1930
Rp1931
ag80
ag26
ag128
atp1932
Rp1933
I360
sg1
((lp1934
g1
((lp1935
I1
aI2
aI5
aI6
atp1936
Rp1937
ag47
ag1
((lp1938
I2
aI3
aI5
aI6
atp1939
Rp1940
ag11
ag14
ag17
ag26
ag92
atp1941
Rp1942
I360
sg1
((lp1943
g32
ag8
ag1
((lp1944
I1
aI2
aI3
aI5
atp1945
Rp1946
ag92
ag1
((lp1947
I1
aI3
aI4
aI5
atp1948
Rp1949
ag23
ag80
ag47
atp1950
Rp1951
I360
sg1
((lp1952
g134
ag56
ag1
((lp1953
I1
aI2
aI4
aI6
atp1954
Rp1955
ag11
ag71
ag32
ag1
((lp1956
I1
aI2
aI4
aI5
atp1957
Rp1958
ag128
atp1959
Rp1960
I360
sg1
((lp1961
g134
ag1
((lp1962
I1
aI2
aI4
aI6
atp1963
Rp1964
ag11
ag89
ag1
((lp1965
I2
aI3
aI5
aI6
atp1966
Rp1967
ag38
ag26
ag50
atp1968
Rp1969
I360
sg1
((lp1970
g71
ag1
((lp1971
I2
aI3
aI4
aI5
atp1972
Rp1973
ag1
((lp1974
I1
aI4
aI5
aI6
atp1975
Rp1976
ag77
ag38
ag89
ag50
ag128
atp1977
Rp1978
I360
sg1
((lp1979
g8
ag1
((lp1980
I2
aI3
aI4
aI5
atp1981
Rp1982
ag89
ag92
ag23
ag80
ag14
ag1
((lp1983
I1
aI3
aI4
aI6
atp1984
Rp1985
atp1986
Rp1987
I180
sg1
((lp1988
g32
ag1
((lp1989
I3
aI4
aI5
aI6
atp1990
Rp1991
ag50
ag14
ag17
ag71
ag23
ag1
((lp1992
I2
aI3
aI4
aI5
atp1993
Rp1994
atp1995
Rp1996
I720
sg1
((lp1997
g32
ag1
((lp1998
I1
aI2
aI4
aI6
atp1999
Rp2000
ag71
ag92
ag1
((lp2001
I1
aI2
aI5
aI6
atp2002
Rp2003
ag38
ag56
ag26
atp2004
Rp2005
I360
sg1
((lp2006
g32
ag1
((lp2007
I3
aI4
aI5
aI6
atp2008
Rp2009
ag101
ag89
ag14
ag77
ag35
ag1
((lp2010
I1
aI3
aI4
aI5
atp2011
Rp2012
atp2013
Rp2014
I720
sg1
((lp2015
g56
ag8
ag11
ag128
ag101
ag1
((lp2016
I1
aI2
aI3
aI6
atp2017
Rp2018
ag80
ag1
((lp2019
I1
aI3
aI4
aI6
atp2020
Rp2021
atp2022
Rp2023
I720
sg1
((lp2024
g134
ag1
((lp2025
I2
aI3
aI5
aI6
atp2026
Rp2027
ag11
ag1
((lp2028
I1
aI2
aI3
aI5
atp2029
Rp2030
ag14
ag77
ag17
ag23
atp2031
Rp2032
I360
sg1
((lp2033
g47
ag71
ag35
ag92
ag1
((lp2034
I1
aI2
aI5
aI6
atp2035
Rp2036
ag1
((lp2037
I1
aI2
aI3
aI4
atp2038
Rp2039
ag26
ag128
atp2040
Rp2041
I180
sg1
((lp2042
g134
ag1
((lp2043
I1
aI3
aI5
aI6
atp2044
Rp2045
ag101
ag14
ag1
((lp2046
I1
aI3
aI4
aI5
atp2047
Rp2048
ag23
ag26
ag92
atp2049
Rp2050
I360
sg1
((lp2051
g134
ag56
ag1
((lp2052
I1
aI2
aI4
aI6
atp2053
Rp2054
ag71
ag101
ag89
ag38
ag1
((lp2055
I2
aI4
aI5
aI6
atp2056
Rp2057
atp2058
Rp2059
I720
sg1
((lp2060
g134
ag56
ag1
((lp2061
I2
aI3
aI5
aI6
atp2062
Rp2063
ag50
ag89
ag77
ag47
ag1
((lp2064
I2
aI3
aI4
aI5
atp2065
Rp2066
atp2067
Rp2068
I180
sg1
((lp2069
g17
ag1
((lp2070
I1
aI2
aI3
aI4
atp2071
Rp2072
ag128
ag77
ag35
ag80
ag26
ag1
((lp2073
I1
aI3
aI4
aI6
atp2074
Rp2075
atp2076
Rp2077
I720
sg1
((lp2078
g56
ag1
((lp2079
I1
aI2
aI4
aI6
atp2080
Rp2081
ag35
ag1
((lp2082
I1
aI3
aI4
aI6
atp2083
Rp2084
ag101
ag89
ag32
ag50
atp2085
Rp2086
I180
sg1
((lp2087
g32
ag1
((lp2088
I2
aI3
aI4
aI5
atp2089
Rp2090
ag89
ag14
ag1
((lp2091
I1
aI3
aI4
aI5
atp2092
Rp2093
ag80
ag50
ag128
atp2094
Rp2095
I360
sg1
((lp2096
g11
ag101
ag14
ag1
((lp2097
I1
aI2
aI5
aI6
atp2098
Rp2099
ag38
ag1
((lp2100
I2
aI4
aI5
aI6
atp2101
Rp2102
ag47
ag128
atp2103
Rp2104
I720
sg1
((lp2105
g56
ag8
ag11
ag35
ag101
ag80
ag1
((lp2106
I1
aI3
aI4
aI6
atp2107
Rp2108
ag1
((lp2109
I1
aI2
aI4
aI5
atp2110
Rp2111
atp2112
Rp2113
I720
sg1
((lp2114
g32
ag8
ag1
((lp2115
I3
aI4
aI5
aI6
atp2116
Rp2117
ag101
ag71
ag38
ag26
ag1
((lp2118
I1
aI2
aI4
aI6
atp2119
Rp2120
atp2121
Rp2122
I180
sg1
((lp2123
g1
((lp2124
I1
aI3
aI5
aI6
atp2125
Rp2126
ag101
ag1
((lp2127
I1
aI4
aI5
aI6
atp2128
Rp2129
ag14
ag77
ag38
ag89
ag23
atp2130
Rp2131
I720
sg1
((lp2132
g134
ag11
ag35
ag101
ag77
ag1
((lp2133
I1
aI2
aI3
aI6
atp2134
Rp2135
ag26
ag1
((lp2136
I1
aI2
aI5
aI6
atp2137
Rp2138
atp2139
Rp2140
I720
sg1
((lp2141
g134
ag56
ag1
((lp2142
I1
aI2
aI4
aI6
atp2143
Rp2144
ag11
ag101
ag89
ag1
((lp2145
I2
aI3
aI5
aI6
atp2146
Rp2147
ag80
atp2148
Rp2149
I180
sg1
((lp2150
g1
((lp2151
I1
aI3
aI5
aI6
atp2152
Rp2153
ag32
ag8
ag101
ag89
ag92
ag17
ag1
((lp2154
I1
aI2
aI4
aI6
atp2155
Rp2156
atp2157
Rp2158
I720
sg1
((lp2159
g1
((lp2160
I1
aI2
aI4
aI6
atp2161
Rp2162
ag11
ag71
ag101
ag1
((lp2163
I1
aI2
aI5
aI6
atp2164
Rp2165
ag38
ag26
ag128
atp2166
Rp2167
I720
sg1
((lp2168
g1
((lp2169
I1
aI2
aI5
aI6
atp2170
Rp2171
ag56
ag35
ag50
ag14
ag17
ag26
ag1
((lp2172
I1
aI3
aI4
aI6
atp2173
Rp2174
atp2175
Rp2176
I180
sg1
((lp2177
g56
ag8
ag11
ag92
ag17
ag1
((lp2178
I2
aI3
aI4
aI6
atp2179
Rp2180
ag26
ag1
((lp2181
I1
aI2
aI4
aI6
atp2182
Rp2183
atp2184
Rp2185
I180
sg1
((lp2186
g134
ag32
ag8
ag101
ag1
((lp2187
I1
aI4
aI5
aI6
atp2188
Rp2189
ag77
ag1
((lp2190
I1
aI3
aI4
aI5
atp2191
Rp2192
ag128
atp2193
Rp2194
I720
sg1
((lp2195
g1
((lp2196
I1
aI2
aI5
aI6
atp2197
Rp2198
ag32
ag1
((lp2199
I1
aI3
aI5
aI6
atp2200
Rp2201
ag35
ag101
ag14
ag17
ag47
atp2202
Rp2203
I360
sg1
((lp2204
g56
ag11
ag50
ag92
ag1
((lp2205
I2
aI3
aI4
aI6
atp2206
Rp2207
ag23
ag80
ag1
((lp2208
I1
aI3
aI4
aI6
atp2209
Rp2210
atp2211
Rp2212
I360
sg1
((lp2213
g134
ag1
((lp2214
I2
aI3
aI5
aI6
atp2215
Rp2216
ag11
ag101
ag77
ag1
((lp2217
I1
aI2
aI4
aI5
atp2218
Rp2219
ag47
ag50
atp2220
Rp2221
I720
sg1
((lp2222
g134
ag11
ag71
ag101
ag38
ag1
((lp2223
I2
aI4
aI5
aI6
atp2224
Rp2225
ag80
ag1
((lp2226
I1
aI2
aI4
aI5
atp2227
Rp2228
atp2229
Rp2230
I360
sg1
((lp2231
g17
ag47
ag1
((lp2232
I2
aI3
aI5
aI6
atp2233
Rp2234
ag1
((lp2235
I3
aI4
aI5
aI6
atp2236
Rp2237
ag14
ag77
ag80
ag26
atp2238
Rp2239
I360
sg1
((lp2240
g134
ag56
ag11
ag71
ag101
ag1
((lp2241
I1
aI2
aI5
aI6
atp2242
Rp2243
ag1
((lp2244
I1
aI2
aI4
aI5
atp2245
Rp2246
ag47
atp2247
Rp2248
I720
sg1
((lp2249
g71
ag101
ag1
((lp2250
I1
aI2
aI3
aI5
atp2251
Rp2252
ag77
ag38
ag1
((lp2253
I1
aI2
aI4
aI5
atp2254
Rp2255
ag47
ag128
atp2256
Rp2257
I720
sg1
((lp2258
g134
ag1
((lp2259
I1
aI2
aI4
aI6
atp2260
Rp2261
ag11
ag35
ag1
((lp2262
I1
aI2
aI3
aI6
atp2263
Rp2264
ag38
ag80
ag128
atp2265
Rp2266
I720
sg1
((lp2267
g8
ag11
ag1
((lp2268
I1
aI3
aI4
aI6
atp2269
Rp2270
ag50
ag80
ag26
ag128
ag1
((lp2271
I1
aI2
aI4
aI6
atp2272
Rp2273
atp2274
Rp2275
I360
sg1
((lp2276
g32
ag1
((lp2277
I3
aI4
aI5
aI6
atp2278
Rp2279
ag26
ag89
ag77
ag71
ag1
((lp2280
I1
aI3
aI4
aI5
atp2281
Rp2282
ag47
atp2283
Rp2284
I720
sg1
((lp2285
g8
ag35
ag50
ag101
ag14
ag128
ag1
((lp2286
I1
aI3
aI4
aI5
atp2287
Rp2288
ag1
((lp2289
I1
aI3
aI4
aI6
atp2290
Rp2291
atp2292
Rp2293
I360
sg1
((lp2294
g8
ag92
ag14
ag17
ag1
((lp2295
I2
aI3
aI4
aI6
atp2296
Rp2297
ag80
ag47
ag1
((lp2298
I2
aI3
aI4
aI5
atp2299
Rp2300
atp2301
Rp2302
I360
sg1
((lp2303
g134
ag32
ag1
((lp2304
I1
aI2
aI4
aI6
atp2305
Rp2306
ag11
ag35
ag38
ag1
((lp2307
I1
aI2
aI4
aI5
atp2308
Rp2309
ag50
atp2310
Rp2311
I180
sg1
((lp2312
g1
((lp2313
I1
aI3
aI5
aI6
atp2314
Rp2315
ag47
ag1
((lp2316
I3
aI4
aI5
aI6
atp2317
Rp2318
ag89
ag77
ag38
ag26
ag50
atp2319
Rp2320
I360
sg1
((lp2321
g56
ag1
((lp2322
I2
aI3
aI4
aI5
atp2323
Rp2324
ag77
ag38
ag50
ag1
((lp2325
I1
aI2
aI4
aI5
atp2326
Rp2327
ag47
ag128
atp2328
Rp2329
I720
sg1
((lp2330
g56
ag1
((lp2331
I2
aI3
aI5
aI6
atp2332
Rp2333
ag1
((lp2334
I3
aI4
aI5
aI6
atp2335
Rp2336
ag14
ag17
ag38
ag23
ag47
atp2337
Rp2338
I360
sg1
((lp2339
g56
ag1
((lp2340
I2
aI3
aI5
aI6
atp2341
Rp2342
ag1
((lp2343
I3
aI4
aI5
aI6
atp2344
Rp2345
ag77
ag71
ag23
ag80
ag47
atp2346
Rp2347
I180
sg1
((lp2348
g56
ag11
ag71
ag35
ag38
ag1
((lp2349
I2
aI3
aI4
aI6
atp2350
Rp2351
ag1
((lp2352
I2
aI4
aI5
aI6
atp2353
Rp2354
ag128
atp2355
Rp2356
I360
sg1
((lp2357
g134
ag92
ag77
ag1
((lp2358
I1
aI3
aI4
aI5
atp2359
Rp2360
ag80
ag47
ag50
ag1
((lp2361
I1
aI2
aI4
aI5
atp2362
Rp2363
atp2364
Rp2365
I360
sg1
((lp2366
g134
ag8
ag71
ag1
((lp2367
I1
aI2
aI3
aI5
atp2368
Rp2369
ag14
ag77
ag1
((lp2370
I1
aI3
aI4
aI5
atp2371
Rp2372
ag47
atp2373
Rp2374
I720
sg1
((lp2375
g56
ag1
((lp2376
I3
aI4
aI5
aI6
atp2377
Rp2378
ag89
ag14
ag17
ag35
ag1
((lp2379
I1
aI2
aI3
aI6
atp2380
Rp2381
ag47
atp2382
Rp2383
I720
sg1
((lp2384
g134
ag56
ag71
ag77
ag32
ag17
ag1
((lp2385
I2
aI3
aI4
aI5
atp2386
Rp2387
ag1
((lp2388
I1
aI2
aI5
aI6
atp2389
Rp2390
atp2391
Rp2392
I720
sg1
((lp2393
g17
ag56
ag1
((lp2394
I1
aI2
aI3
aI4
atp2395
Rp2396
ag128
ag89
ag77
ag71
ag1
((lp2397
I2
aI3
aI4
aI5
atp2398
Rp2399
atp2400
Rp2401
I180
sg1
((lp2402
g17
ag1
((lp2403
I1
aI2
aI3
aI4
atp2404
Rp2405
ag77
ag71
ag23
ag1
((lp2406
I3
aI4
aI5
aI6
atp2407
Rp2408
ag47
ag80
atp2409
Rp2410
I360
sg1
((lp2411
g17
ag56
ag1
((lp2412
I1
aI2
aI3
aI4
atp2413
Rp2414
ag35
ag77
ag71
ag26
ag1
((lp2415
I1
aI2
aI5
aI6
atp2416
Rp2417
atp2418
Rp2419
I360
sg1
((lp2420
g56
ag8
ag11
ag35
ag1
((lp2421
I1
aI2
aI3
aI6
atp2422
Rp2423
ag1
((lp2424
I1
aI4
aI5
aI6
atp2425
Rp2426
ag38
ag128
atp2427
Rp2428
I360
sg1
((lp2429
g134
ag1
((lp2430
I1
aI2
aI4
aI6
atp2431
Rp2432
ag11
ag1
((lp2433
I1
aI3
aI5
aI6
atp2434
Rp2435
ag35
ag92
ag17
ag26
atp2436
Rp2437
I720
sg1
((lp2438
g134
ag56
ag1
((lp2439
I1
aI2
aI4
aI6
atp2440
Rp2441
ag11
ag1
((lp2442
I1
aI2
aI3
aI4
atp2443
Rp2444
ag89
ag17
ag71
atp2445
Rp2446
I720
sg1
((lp2447
g1
((lp2448
I3
aI4
aI5
aI6
atp2449
Rp2450
ag101
ag1
((lp2451
I1
aI4
aI5
aI6
atp2452
Rp2453
ag14
ag77
ag71
ag38
ag23
atp2454
Rp2455
I720
s.