(dp0
c__builtin__
frozenset
p1
((lp2
g1
((lp3
I1
aI3
aI5
atp4
Rp5
ag1
((lp6
I1
aI2
aI4
aI6
atp7
Rp8
ag1
((lp9
I3
aI4
aI5
atp10
Rp11
ag1
((lp12
I1
aI2
aI3
aI4
atp13
Rp14
ag1
((lp15
I1
aI4
aI5
aI6
atp16
Rp17
ag1
((lp18
I1
aI2
aI5
aI6
atp19
Rp20
ag1
((lp21
I2
aI3
aI4
aI6
atp22
Rp23
ag1
((lp24
I2
aI4
aI5
aI6
atp25
Rp26
ag1
((lp27
I3
aI5
aI6
atp28
Rp29
atp30
Rp31
I720
sg1
((lp32
g1
((lp33
I2
aI3
aI6
atp34
Rp35
ag1
((lp36
I1
aI2
aI3
aI4
atp37
Rp38
ag1
((lp39
I1
aI3
aI4
aI5
atp40
Rp41
ag1
((lp42
I3
aI4
aI5
aI6
atp43
Rp44
ag1
((lp45
I1
aI2
aI6
atp46
Rp47
ag1
((lp48
I2
aI4
aI5
aI6
atp49
Rp50
ag1
((lp51
I1
aI2
aI4
aI5
atp52
Rp53
ag1
((lp54
I1
aI4
aI6
atp55
Rp56
ag1
((lp57
I2
aI3
aI4
aI5
atp58
Rp59
atp60
Rp61
I720
sg1
((lp62
g1
((lp63
I3
aI4
aI6
atp64
Rp65
ag1
((lp66
I1
aI2
aI4
aI6
atp67
Rp68
ag1
((lp69
I2
aI3
aI5
aI6
atp70
Rp71
ag1
((lp72
I1
aI3
aI5
aI6
atp73
Rp74
ag1
((lp75
I1
aI2
aI3
aI5
atp76
Rp77
ag1
((lp78
I2
aI3
aI4
atp79
Rp80
ag1
((lp81
I1
aI3
aI4
atp82
Rp83
ag1
((lp84
I2
aI4
aI5
aI6
atp85
Rp86
ag1
((lp87
I1
aI2
aI4
aI5
atp88
Rp89
atp90
Rp91
I360
sg1
((lp92
g1
((lp93
I2
aI4
aI6
atp94
Rp95
ag35
ag1
((lp96
I1
aI3
aI6
atp97
Rp98
ag1
((lp99
I1
aI2
aI3
aI5
atp100
Rp101
ag1
((lp102
I1
aI2
aI5
aI6
atp103
Rp104
ag1
((lp105
I3
aI4
aI5
aI6
atp106
Rp107
ag1
((lp108
I1
aI3
aI4
aI5
atp109
Rp110
ag1
((lp111
I1
aI2
aI4
aI5
atp112
Rp113
ag1
((lp114
I2
aI3
aI4
aI5
atp115
Rp116
atp117
Rp118
I360
sg1
((lp119
g35
ag98
ag1
((lp120
I1
aI2
aI3
aI5
atp121
Rp122
ag1
((lp123
I1
aI4
aI5
aI6
atp124
Rp125
ag1
((lp126
I1
aI2
aI3
aI4
atp127
Rp128
ag47
ag1
((lp129
I2
aI4
aI5
aI6
atp130
Rp131
ag1
((lp132
I3
aI4
aI5
aI6
atp133
Rp134
ag1
((lp135
I2
aI3
aI4
aI5
atp136
Rp137
atp138
Rp139
I180
sg1
((lp140
g65
ag1
((lp141
I1
aI2
aI4
aI6
atp142
Rp143
ag1
((lp144
I1
aI2
aI3
aI5
atp145
Rp146
ag1
((lp147
I1
aI4
aI5
aI6
atp148
Rp149
ag80
ag1
((lp150
I1
aI2
aI5
aI6
atp151
Rp152
ag1
((lp153
I1
aI2
aI3
aI6
atp154
Rp155
ag1
((lp156
I1
aI2
aI4
aI5
atp157
Rp158
ag29
atp159
Rp160
I720
sg1
((lp161
g1
((lp162
I2
aI5
aI6
atp163
Rp164
ag1
((lp165
I1
aI2
aI3
aI4
atp166
Rp167
ag1
((lp168
I2
aI3
aI4
aI6
atp169
Rp170
ag1
((lp171
I1
aI2
aI5
atp172
Rp173
ag1
((lp174
I4
aI5
aI6
atp175
Rp176
ag1
((lp177
I1
aI2
aI3
aI6
atp178
Rp179
ag1
((lp180
I1
aI3
aI4
aI5
atp181
Rp182
ag1
((lp183
I2
aI3
aI4
aI5
atp184
Rp185
ag1
((lp186
I1
aI2
aI4
aI6
atp187
Rp188
atp189
Rp190
I720
sg1
((lp191
g5
ag1
((lp192
I1
aI2
aI3
aI4
atp193
Rp194
ag1
((lp195
I2
aI3
aI4
aI5
atp196
Rp197
ag1
((lp198
I2
aI3
aI4
aI6
atp199
Rp200
ag47
ag1
((lp201
I2
aI4
aI5
aI6
atp202
Rp203
ag1
((lp204
I1
aI5
aI6
atp205
Rp206
ag1
((lp207
I1
aI3
aI4
aI6
atp208
Rp209
ag1
((lp210
I1
aI2
aI4
aI5
atp211
Rp212
atp213
Rp214
I720
sg1
((lp215
g1
((lp216
I1
aI3
aI5
aI6
atp217
Rp218
ag1
((lp219
I2
aI3
aI5
aI6
atp220
Rp221
ag1
((lp222
I1
aI2
aI3
aI4
atp223
Rp224
ag173
ag1
((lp225
I1
aI4
aI5
atp226
Rp227
ag1
((lp228
I3
aI4
aI5
aI6
atp229
Rp230
ag1
((lp231
I1
aI2
aI3
aI6
atp232
Rp233
ag1
((lp234
I2
aI4
aI5
aI6
atp235
Rp236
ag56
atp237
Rp238
I720
sg1
((lp239
g5
ag1
((lp240
I2
aI3
aI5
aI6
atp241
Rp242
ag1
((lp243
I2
aI3
aI4
aI5
atp244
Rp245
ag1
((lp246
I1
aI4
aI5
aI6
atp247
Rp248
ag173
ag1
((lp249
I2
aI3
aI4
aI6
atp250
Rp251
ag1
((lp252
I2
aI4
aI5
aI6
atp253
Rp254
ag1
((lp255
I1
aI3
aI4
aI6
atp256
Rp257
ag47
atp258
Rp259
I720
sg1
((lp260
g1
((lp261
I1
aI2
aI3
aI4
atp262
Rp263
ag29
ag1
((lp264
I1
aI2
aI3
aI5
atp265
Rp266
ag176
ag1
((lp267
I1
aI2
aI3
aI6
atp268
Rp269
ag1
((lp270
I2
aI3
aI4
aI6
atp271
Rp272
ag206
ag1
((lp273
I2
aI3
aI4
aI5
atp274
Rp275
ag1
((lp276
I1
aI2
aI4
aI5
atp277
Rp278
atp279
Rp280
I360
sg1
((lp281
g1
((lp282
I2
aI3
aI5
atp283
Rp284
ag1
((lp285
I1
aI3
aI4
aI5
atp286
Rp287
ag1
((lp288
I1
aI2
aI5
aI6
atp289
Rp290
ag1
((lp291
I1
aI2
aI3
aI4
atp292
Rp293
ag1
((lp294
I1
aI2
aI3
aI6
atp295
Rp296
ag1
((lp297
I2
aI3
aI4
aI6
atp298
Rp299
ag1
((lp300
I2
aI4
aI5
aI6
atp301
Rp302
ag56
ag29
atp303
Rp304
I360
sg1
((lp305
g164
ag1
((lp306
I2
aI3
aI4
aI5
atp307
Rp308
ag1
((lp309
I1
aI2
aI3
aI5
atp310
Rp311
ag1
((lp312
I1
aI4
aI5
aI6
atp313
Rp314
ag95
ag1
((lp315
I1
aI3
aI4
aI5
atp316
Rp317
ag47
ag1
((lp318
I1
aI2
aI4
aI5
atp319
Rp320
ag1
((lp321
I1
aI3
aI4
aI6
atp322
Rp323
atp324
Rp325
I360
sg1
((lp326
g5
ag1
((lp327
I1
aI2
aI4
aI6
atp328
Rp329
ag284
ag1
((lp330
I1
aI4
aI5
aI6
atp331
Rp332
ag1
((lp333
I3
aI4
aI5
aI6
atp334
Rp335
ag173
ag1
((lp336
I2
aI3
aI4
aI6
atp337
Rp338
ag1
((lp339
I2
aI4
aI5
aI6
atp340
Rp341
ag1
((lp342
I1
aI3
aI4
aI6
atp343
Rp344
atp345
Rp346
I60
sg1
((lp347
g5
ag1
((lp348
I1
aI2
aI4
aI6
atp349
Rp350
ag284
ag83
ag1
((lp351
I1
aI4
aI5
aI6
atp352
Rp353
ag1
((lp354
I3
aI4
aI5
aI6
atp355
Rp356
ag1
((lp357
I1
aI2
aI3
aI6
atp358
Rp359
ag1
((lp360
I2
aI3
aI4
aI6
atp361
Rp362
ag1
((lp363
I1
aI2
aI4
aI5
atp364
Rp365
atp366
Rp367
I720
sg1
((lp368
g5
ag1
((lp369
I2
aI3
aI5
aI6
atp370
Rp371
ag1
((lp372
I3
aI4
aI5
aI6
atp373
Rp374
ag1
((lp375
I1
aI2
aI3
atp376
Rp377
ag1
((lp378
I1
aI4
aI5
aI6
atp379
Rp380
ag1
((lp381
I1
aI2
aI4
atp382
Rp383
ag1
((lp384
I1
aI2
aI5
aI6
atp385
Rp386
ag1
((lp387
I2
aI3
aI4
aI6
atp388
Rp389
ag1
((lp390
I1
aI3
aI4
aI6
atp391
Rp392
atp393
Rp394
I720
sg1
((lp395
g95
ag83
ag1
((lp396
I2
aI3
aI5
aI6
atp397
Rp398
ag11
ag1
((lp399
I1
aI2
aI3
aI5
atp400
Rp401
ag1
((lp402
I1
aI4
aI5
aI6
atp403
Rp404
ag1
((lp405
I1
aI2
aI5
aI6
atp406
Rp407
ag1
((lp408
I1
aI2
aI3
aI6
atp409
Rp410
ag1
((lp411
I1
aI2
aI4
aI5
atp412
Rp413
atp414
Rp415
I360
sg1
((lp416
g1
((lp417
I1
aI3
aI5
aI6
atp418
Rp419
ag83
ag1
((lp420
I1
aI2
aI4
aI6
atp421
Rp422
ag1
((lp423
I3
aI4
aI5
aI6
atp424
Rp425
ag1
((lp426
I1
aI2
aI3
aI5
atp427
Rp428
ag80
ag1
((lp429
I1
aI2
aI5
aI6
atp430
Rp431
ag1
((lp432
I1
aI2
aI3
aI6
atp433
Rp434
ag1
((lp435
I2
aI4
aI5
atp436
Rp437
atp438
Rp439
I720
sg1
((lp440
g5
ag329
ag284
ag173
ag335
ag1
((lp441
I1
aI2
aI3
aI6
atp442
Rp443
ag332
ag338
ag341
atp444
Rp445
I360
sg1
((lp446
g65
ag164
ag11
ag1
((lp447
I1
aI3
aI5
aI6
atp448
Rp449
ag1
((lp450
I1
aI2
aI3
aI4
atp451
Rp452
ag1
((lp453
I1
aI4
aI5
aI6
atp454
Rp455
ag1
((lp456
I1
aI2
aI3
aI6
atp457
Rp458
ag1
((lp459
I1
aI2
aI4
aI5
atp460
Rp461
ag1
((lp462
I1
aI2
aI4
aI6
atp463
Rp464
atp465
Rp466
I720
sg1
((lp467
g1
((lp468
I1
aI2
aI4
aI6
atp469
Rp470
ag1
((lp471
I2
aI3
aI5
aI6
atp472
Rp473
ag1
((lp474
I1
aI2
aI3
aI5
atp475
Rp476
ag80
ag227
ag1
((lp477
I1
aI2
aI3
aI6
atp478
Rp479
ag1
((lp480
I2
aI4
aI5
aI6
atp481
Rp482
ag206
ag1
((lp483
I1
aI3
aI4
aI6
atp484
Rp485
atp486
Rp487
I720
sg1
((lp488
g1
((lp489
I1
aI3
aI5
aI6
atp490
Rp491
ag164
ag284
ag1
((lp492
I1
aI4
aI5
aI6
atp493
Rp494
ag1
((lp495
I3
aI4
aI5
aI6
atp496
Rp497
ag1
((lp498
I1
aI2
aI3
aI6
atp499
Rp500
ag1
((lp501
I2
aI3
aI4
aI6
atp502
Rp503
ag437
ag1
((lp504
I1
aI2
aI4
aI6
atp505
Rp506
atp507
Rp508
I180
sg1
((lp509
g5
ag1
((lp510
I1
aI2
aI4
aI6
atp511
Rp512
ag284
ag80
ag1
((lp513
I1
aI4
aI5
aI6
atp514
Rp515
ag1
((lp516
I1
aI2
aI5
aI6
atp517
Rp518
ag1
((lp519
I2
aI4
aI5
aI6
atp520
Rp521
ag1
((lp522
I1
aI2
aI4
aI5
atp523
Rp524
ag1
((lp525
I1
aI3
aI4
aI6
atp526
Rp527
atp528
Rp529
I360
sg1
((lp530
g1
((lp531
I2
aI3
aI5
aI6
atp532
Rp533
ag1
((lp534
I3
aI4
aI5
aI6
atp535
Rp536
ag1
((lp537
I1
aI3
aI4
aI5
atp538
Rp539
ag1
((lp540
I2
aI3
aI4
aI6
atp541
Rp542
ag1
((lp543
I2
aI4
aI5
aI6
atp544
Rp545
ag206
ag56
ag377
ag1
((lp546
I1
aI2
aI4
aI5
atp547
Rp548
atp549
Rp550
I180
sg1
((lp551
g1
((lp552
I1
aI2
aI4
aI6
atp553
Rp554
ag98
ag29
ag1
((lp555
I1
aI3
aI4
aI5
atp556
Rp557
ag1
((lp558
I1
aI2
aI3
aI5
atp559
Rp560
ag1
((lp561
I2
aI3
aI4
aI6
atp562
Rp563
ag206
ag1
((lp564
I2
aI3
aI4
aI5
atp565
Rp566
ag1
((lp567
I1
aI2
aI4
aI5
atp568
Rp569
atp570
Rp571
I180
sg1
((lp572
g1
((lp573
I1
aI3
aI5
aI6
atp574
Rp575
ag35
ag1
((lp576
I3
aI4
aI5
aI6
atp577
Rp578
ag80
ag1
((lp579
I1
aI2
aI3
aI5
atp580
Rp581
ag95
ag1
((lp582
I1
aI3
aI4
aI5
atp583
Rp584
ag1
((lp585
I1
aI3
aI4
aI6
atp586
Rp587
ag1
((lp588
I1
aI2
aI5
aI6
atp589
Rp590
atp591
Rp592
I360
sg1
((lp593
g164
ag98
ag1
((lp594
I1
aI2
aI3
aI5
atp595
Rp596
ag1
((lp597
I1
aI4
aI5
aI6
atp598
Rp599
ag1
((lp600
I1
aI2
aI3
aI4
atp601
Rp602
ag1
((lp603
I2
aI3
aI4
aI6
atp604
Rp605
ag47
ag1
((lp606
I3
aI4
aI5
aI6
atp607
Rp608
ag1
((lp609
I1
aI2
aI4
aI5
atp610
Rp611
atp612
Rp613
I360
sg1
((lp614
g35
ag164
ag1
((lp615
I1
aI2
aI3
aI4
atp616
Rp617
ag1
((lp618
I1
aI2
aI3
aI5
atp619
Rp620
ag1
((lp621
I3
aI4
aI5
aI6
atp622
Rp623
ag1
((lp624
I1
aI3
aI4
aI5
atp625
Rp626
ag47
ag1
((lp627
I1
aI2
aI4
aI5
atp628
Rp629
ag1
((lp630
I2
aI3
aI4
aI5
atp631
Rp632
atp633
Rp634
I360
sg1
((lp635
g35
ag164
ag617
ag632
ag1
((lp636
I1
aI4
aI5
aI6
atp637
Rp638
ag623
ag47
ag629
ag1
((lp639
I1
aI3
aI4
aI6
atp640
Rp641
atp642
Rp643
I60
sg1
((lp644
g1
((lp645
I1
aI3
aI5
aI6
atp646
Rp647
ag1
((lp648
I2
aI3
aI5
aI6
atp649
Rp650
ag1
((lp651
I3
aI4
aI5
aI6
atp652
Rp653
ag80
ag95
ag1
((lp654
I1
aI2
aI3
aI6
atp655
Rp656
ag1
((lp657
I1
aI3
aI4
aI5
atp658
Rp659
ag437
ag1
((lp660
I1
aI3
aI4
aI6
atp661
Rp662
atp663
Rp664
I720
sg1
((lp665
g98
ag80
ag1
((lp666
I1
aI4
aI5
aI6
atp667
Rp668
ag1
((lp669
I1
aI2
aI5
aI6
atp670
Rp671
ag284
ag1
((lp672
I1
aI3
aI4
aI5
atp673
Rp674
ag1
((lp675
I2
aI4
aI5
aI6
atp676
Rp677
ag1
((lp678
I3
aI4
aI5
aI6
atp679
Rp680
ag1
((lp681
I1
aI2
aI4
aI5
atp682
Rp683
atp684
Rp685
I360
sg1
((lp686
g1
((lp687
I2
aI3
aI5
aI6
atp688
Rp689
ag98
ag1
((lp690
I2
aI3
aI4
aI6
atp691
Rp692
ag383
ag1
((lp693
I1
aI2
aI5
aI6
atp694
Rp695
ag1
((lp696
I3
aI4
aI5
aI6
atp697
Rp698
ag1
((lp699
I1
aI3
aI4
aI5
atp700
Rp701
ag1
((lp702
I2
aI4
aI5
aI6
atp703
Rp704
ag56
atp705
Rp706
I720
sg1
((lp707
g1
((lp708
I1
aI3
aI5
aI6
atp709
Rp710
ag164
ag1
((lp711
I3
aI4
aI5
aI6
atp712
Rp713
ag80
ag173
ag1
((lp714
I1
aI2
aI3
aI6
atp715
Rp716
ag1
((lp717
I1
aI4
aI5
aI6
atp718
Rp719
ag1
((lp720
I1
aI3
aI4
aI5
atp721
Rp722
ag1
((lp723
I1
aI3
aI4
aI6
atp724
Rp725
atp726
Rp727
I360
sg1
((lp728
g1
((lp729
I1
aI2
aI4
aI6
atp730
Rp731
ag1
((lp732
I2
aI3
aI5
aI6
atp733
Rp734
ag80
ag1
((lp735
I1
aI4
aI5
aI6
atp736
Rp737
ag1
((lp738
I1
aI2
aI5
aI6
atp739
Rp740
ag83
ag1
((lp741
I2
aI4
aI5
aI6
atp742
Rp743
ag1
((lp744
I1
aI2
aI4
aI5
atp745
Rp746
ag377
atp747
Rp748
I180
sg1
((lp749
g1
((lp750
I1
aI2
aI3
aI4
atp751
Rp752
ag1
((lp753
I1
aI3
aI4
aI5
atp754
Rp755
ag1
((lp756
I1
aI2
aI3
aI5
atp757
Rp758
ag1
((lp759
I3
aI4
aI5
aI6
atp760
Rp761
ag1
((lp762
I2
aI3
aI4
aI6
atp763
Rp764
ag47
ag206
ag437
ag1
((lp765
I1
aI3
aI4
aI6
atp766
Rp767
atp768
Rp769
I360
sg1
((lp770
g1
((lp771
I2
aI3
aI5
aI6
atp772
Rp773
ag98
ag1
((lp774
I1
aI2
aI3
aI5
atp775
Rp776
ag1
((lp777
I1
aI2
aI3
aI4
atp778
Rp779
ag1
((lp780
I2
aI4
aI5
aI6
atp781
Rp782
ag47
ag1
((lp783
I1
aI2
aI4
aI5
atp784
Rp785
ag56
ag1
((lp786
I2
aI3
aI4
aI5
atp787
Rp788
atp789
Rp790
I360
sg1
((lp791
g1
((lp792
I2
aI3
aI5
aI6
atp793
Rp794
ag1
((lp795
I1
aI2
aI3
aI4
atp796
Rp797
ag1
((lp798
I1
aI2
aI3
aI5
atp799
Rp800
ag176
ag1
((lp801
I2
aI3
aI4
aI6
atp802
Rp803
ag206
ag56
ag1
((lp804
I2
aI3
aI4
aI5
atp805
Rp806
ag1
((lp807
I1
aI2
aI4
aI5
atp808
Rp809
atp810
Rp811
I360
sg1
((lp812
g35
ag98
ag1
((lp813
I1
aI2
aI3
aI5
atp814
Rp815
ag1
((lp816
I1
aI2
aI3
aI4
atp817
Rp818
ag1
((lp819
I2
aI4
aI5
aI6
atp820
Rp821
ag1
((lp822
I3
aI4
aI5
aI6
atp823
Rp824
ag56
ag1
((lp825
I2
aI3
aI4
aI5
atp826
Rp827
ag1
((lp828
I1
aI2
aI4
aI5
atp829
Rp830
atp831
Rp832
I720
sg1
((lp833
g5
ag1
((lp834
I1
aI2
aI4
aI6
atp835
Rp836
ag1
((lp837
I3
aI4
aI5
aI6
atp838
Rp839
ag377
ag1
((lp840
I1
aI4
aI5
aI6
atp841
Rp842
ag1
((lp843
I1
aI2
aI5
aI6
atp844
Rp845
ag83
ag1
((lp846
I2
aI4
aI5
aI6
atp847
Rp848
ag1
((lp849
I2
aI3
aI4
aI5
atp850
Rp851
atp852
Rp853
I360
sg1
((lp854
g35
ag1
((lp855
I1
aI2
aI4
aI6
atp856
Rp857
ag29
ag1
((lp858
I1
aI4
aI5
aI6
atp859
Rp860
ag1
((lp861
I1
aI2
aI5
aI6
atp862
Rp863
ag5
ag1
((lp864
I2
aI4
aI5
aI6
atp865
Rp866
ag1
((lp867
I1
aI2
aI4
aI5
atp868
Rp869
ag1
((lp870
I2
aI3
aI4
aI5
atp871
Rp872
atp873
Rp874
I720
sg1
((lp875
g65
ag35
ag1
((lp876
I1
aI2
aI4
aI6
atp877
Rp878
ag98
ag1
((lp879
I1
aI2
aI3
aI5
atp880
Rp881
ag1
((lp882
I1
aI4
aI5
aI6
atp883
Rp884
ag1
((lp885
I1
aI2
aI5
aI6
atp886
Rp887
ag1
((lp888
I1
aI3
aI4
aI5
atp889
Rp890
ag1
((lp891
I2
aI4
aI5
aI6
atp892
Rp893
atp894
Rp895
I360
sg1
((lp896
g1
((lp897
I1
aI3
aI5
aI6
atp898
Rp899
ag1
((lp900
I2
aI3
aI5
aI6
atp901
Rp902
ag1
((lp903
I1
aI2
aI3
aI5
atp904
Rp905
ag80
ag1
((lp906
I1
aI3
aI4
aI5
atp907
Rp908
ag47
ag1
((lp909
I1
aI2
aI4
aI5
atp910
Rp911
ag176
ag1
((lp912
I1
aI3
aI4
aI6
atp913
Rp914
atp915
Rp916
I120
sg1
((lp917
g1
((lp918
I1
aI3
aI5
aI6
atp919
Rp920
ag1
((lp921
I1
aI2
aI3
aI5
atp922
Rp923
ag383
ag227
ag1
((lp924
I1
aI2
aI3
aI6
atp925
Rp926
ag1
((lp927
I2
aI4
aI5
aI6
atp928
Rp929
ag56
ag1
((lp930
I2
aI3
aI4
aI5
atp931
Rp932
ag1
((lp933
I1
aI2
aI5
aI6
atp934
Rp935
atp936
Rp937
I360
sg1
((lp938
g65
ag1
((lp939
I2
aI3
aI5
aI6
atp940
Rp941
ag11
ag98
ag1
((lp942
I1
aI2
aI3
aI5
atp943
Rp944
ag1
((lp945
I1
aI4
aI5
aI6
atp946
Rp947
ag1
((lp948
I1
aI2
aI5
aI6
atp949
Rp950
ag1
((lp951
I1
aI2
aI3
aI4
atp952
Rp953
ag1
((lp954
I1
aI2
aI4
aI5
atp955
Rp956
atp957
Rp958
I360
sg1
((lp959
g1
((lp960
I1
aI3
aI5
aI6
atp961
Rp962
ag1
((lp963
I2
aI3
aI5
aI6
atp964
Rp965
ag11
ag1
((lp966
I1
aI2
aI3
aI4
atp967
Rp968
ag1
((lp969
I1
aI2
aI3
aI5
atp970
Rp971
ag176
ag1
((lp972
I2
aI3
aI4
aI6
atp973
Rp974
ag47
ag1
((lp975
I1
aI3
aI4
aI6
atp976
Rp977
atp978
Rp979
I180
sg1
((lp980
g98
ag1
((lp981
I1
aI3
aI4
aI5
atp982
Rp983
ag1
((lp984
I1
aI2
aI3
aI5
atp985
Rp986
ag1
((lp987
I3
aI4
aI5
aI6
atp988
Rp989
ag1
((lp990
I2
aI3
aI4
aI6
atp991
Rp992
ag1
((lp993
I2
aI4
aI5
aI6
atp994
Rp995
ag206
ag56
ag1
((lp996
I1
aI2
aI4
aI5
atp997
Rp998
atp999
Rp1000
I360
sg1
((lp1001
g647
ag650
ag653
ag80
ag1
((lp1002
I1
aI2
aI3
aI5
atp1003
Rp1004
ag95
ag656
ag437
ag1
((lp1005
I1
aI2
aI5
aI6
atp1006
Rp1007
atp1008
Rp1009
I120
sg1
((lp1010
g1
((lp1011
I1
aI2
aI4
aI6
atp1012
Rp1013
ag284
ag377
ag1
((lp1014
I3
aI4
aI5
aI6
atp1015
Rp1016
ag1
((lp1017
I1
aI3
aI4
aI5
atp1018
Rp1019
ag1
((lp1020
I2
aI4
aI5
aI6
atp1021
Rp1022
ag206
ag1
((lp1023
I1
aI3
aI4
aI6
atp1024
Rp1025
ag1
((lp1026
I1
aI2
aI4
aI5
atp1027
Rp1028
atp1029
Rp1030
I180
s.