(dp0
c__builtin__
frozenset
p1
((lp2
g1
((lp3
I3
aI4
aI6
atp4
Rp5
ag1
((lp6
I1
aI3
aI5
atp7
Rp8
ag1
((lp9
I2
aI5
aI6
atp10
Rp11
ag1
((lp12
I3
aI4
aI5
atp13
Rp14
ag1
((lp15
I3
aI5
aI6
atp16
Rp17
ag1
((lp18
I2
aI4
aI5
atp19
Rp20
ag1
((lp21
I1
aI2
aI5
atp22
Rp23
ag1
((lp24
I1
aI2
aI4
atp25
Rp26
ag1
((lp27
I2
aI4
aI6
atp28
Rp29
ag1
((lp30
I1
aI3
aI4
atp31
Rp32
ag1
((lp33
I2
aI3
aI6
atp34
Rp35
ag1
((lp36
I1
aI4
aI5
atp37
Rp38
ag1
((lp39
I4
aI5
aI6
atp40
Rp41
ag1
((lp42
I1
aI4
aI6
atp43
Rp44
ag1
((lp45
I1
aI2
aI3
atp46
Rp47
atp48
Rp49
I180
sg1
((lp50
g29
ag8
ag11
ag14
ag1
((lp51
I1
aI3
aI6
atp52
Rp53
ag17
ag20
ag1
((lp54
I2
aI3
aI4
atp55
Rp56
ag26
ag38
ag1
((lp57
I2
aI3
aI5
atp58
Rp59
ag35
ag1
((lp60
I1
aI2
aI6
atp61
Rp62
ag41
ag47
atp63
Rp64
I720
sg1
((lp65
g5
ag8
ag11
ag14
ag53
ag17
ag20
ag41
ag29
ag32
ag35
ag38
ag62
ag44
ag47
atp66
Rp67
I360
sg1
((lp68
g29
ag35
ag11
ag14
ag53
ag17
ag56
ag23
ag41
ag38
ag32
ag62
ag1
((lp69
I1
aI5
aI6
atp70
Rp71
ag26
ag47
atp72
Rp73
I720
sg1
((lp74
g5
ag8
ag14
ag53
ag17
ag56
ag23
ag26
ag29
ag32
ag35
ag38
ag62
ag44
ag47
atp75
Rp76
I360
sg1
((lp77
g5
ag35
ag11
ag14
ag53
ag20
ag41
ag26
ag29
ag59
ag38
ag62
ag71
ag44
ag47
atp78
Rp79
I720
sg1
((lp80
g5
ag35
ag11
ag14
ag59
ag17
ag20
ag23
ag26
ag29
ag38
ag62
ag71
ag44
ag47
atp81
Rp82
I360
sg1
((lp83
g5
ag8
ag11
ag53
ag47
ag56
ag23
ag26
ag29
ag59
ag32
ag35
ag71
ag44
ag41
atp84
Rp85
I360
sg1
((lp86
g5
ag8
ag11
ag14
ag17
ag20
ag56
ag23
ag26
ag32
ag35
ag62
ag71
ag44
ag47
atp87
Rp88
I360
sg1
((lp89
g29
ag8
ag11
ag14
ag59
ag56
ag23
ag26
ag38
ag41
ag35
ag62
ag71
ag20
ag17
atp90
Rp91
I180
sg1
((lp92
g5
ag8
ag11
ag53
ag17
ag20
ag23
ag41
ag38
ag59
ag44
ag62
ag71
ag26
ag47
atp93
Rp94
I180
sg1
((lp95
g5
ag35
ag11
ag14
ag53
ag17
ag20
ag23
ag26
ag29
ag44
ag62
ag71
ag41
ag47
atp96
Rp97
I360
sg1
((lp98
g5
ag8
ag11
ag59
ag20
ag56
ag23
ag26
ag38
ag41
ag32
ag62
ag71
ag44
ag47
atp99
Rp100
I360
sg1
((lp101
g5
ag8
ag14
ag53
ag17
ag56
ag23
ag26
ag38
ag59
ag32
ag35
ag62
ag44
ag41
atp102
Rp103
I360
sg1
((lp104
g5
ag8
ag11
ag20
ag56
ag41
ag29
ag32
ag35
ag38
ag44
ag62
ag71
ag26
ag17
atp105
Rp106
I360
sg1
((lp107
g5
ag35
ag11
ag14
ag53
ag17
ag20
ag56
ag41
ag29
ag32
ag62
ag71
ag26
ag47
atp108
Rp109
I360
sg1
((lp110
g5
ag8
ag14
ag53
ag20
ag56
ag23
ag41
ag38
ag32
ag35
ag62
ag71
ag44
ag17
atp111
Rp112
I72
sg1
((lp113
g5
ag8
ag14
ag53
ag17
ag20
ag23
ag41
ag29
ag59
ag35
ag38
ag62
ag44
ag47
atp114
Rp115
I180
sg1
((lp116
g5
ag8
ag11
ag53
ag56
ag23
ag26
ag29
ag59
ag32
ag35
ag62
ag71
ag20
ag41
atp117
Rp118
I360
sg1
((lp119
g5
ag35
ag11
ag53
ag17
ag20
ag56
ag41
ag29
ag44
ag38
ag62
ag71
ag26
ag47
atp120
Rp121
I360
sg1
((lp122
g29
ag8
ag11
ag14
ag53
ag20
ag26
ag38
ag59
ag32
ag35
ag62
ag41
ag44
ag17
atp123
Rp124
I360
sg1
((lp125
g5
ag8
ag11
ag53
ag17
ag20
ag41
ag29
ag59
ag32
ag35
ag44
ag71
ag26
ag47
atp126
Rp127
I720
sg1
((lp128
g5
ag8
ag11
ag14
ag59
ag56
ag23
ag26
ag29
ag32
ag35
ag38
ag71
ag20
ag47
atp129
Rp130
I360
sg1
((lp131
g5
ag8
ag11
ag14
ag53
ag20
ag56
ag23
ag26
ag29
ag59
ag62
ag71
ag44
ag41
atp132
Rp133
I720
sg1
((lp134
g5
ag35
ag11
ag14
ag53
ag17
ag56
ag23
ag41
ag29
ag32
ag38
ag71
ag20
ag47
atp135
Rp136
I180
sg1
((lp137
g5
ag20
ag14
ag59
ag17
ag56
ag23
ag26
ag29
ag32
ag38
ag41
ag44
ag47
ag71
atp138
Rp139
I360
sg1
((lp140
g29
ag8
ag11
ag14
ag59
ag17
ag20
ag23
ag41
ag38
ag32
ag35
ag71
ag44
ag47
atp141
Rp142
I72
sg1
((lp143
g5
ag8
ag11
ag14
ag53
ag17
ag56
ag23
ag26
ag29
ag32
ag35
ag71
ag44
ag41
atp144
Rp145
I720
sg1
((lp146
g5
ag35
ag11
ag14
ag53
ag17
ag20
ag56
ag26
ag29
ag38
ag62
ag41
ag44
ag47
atp147
Rp148
I720
sg1
((lp149
g5
ag8
ag14
ag53
ag20
ag56
ag23
ag41
ag29
ag59
ag35
ag62
ag71
ag44
ag47
atp150
Rp151
I180
sg1
((lp152
g29
ag8
ag11
ag14
ag53
ag17
ag20
ag56
ag41
ag38
ag59
ag62
ag71
ag26
ag47
atp153
Rp154
I360
sg1
((lp155
g5
ag35
ag11
ag14
ag53
ag20
ag56
ag23
ag41
ag38
ag59
ag62
ag71
ag44
ag17
atp156
Rp157
I360
sg1
((lp158
g5
ag8
ag11
ag14
ag53
ag20
ag56
ag29
ag59
ag32
ag35
ag38
ag71
ag44
ag17
atp159
Rp160
I60
sg1
((lp161
g5
ag8
ag14
ag59
ag17
ag20
ag56
ag23
ag26
ag29
ag32
ag38
ag41
ag44
ag47
atp162
Rp163
I180
sg1
((lp164
g5
ag35
ag11
ag14
ag53
ag20
ag56
ag26
ag29
ag59
ag32
ag62
ag41
ag44
ag17
atp165
Rp166
I180
sg1
((lp167
g29
ag8
ag14
ag53
ag20
ag56
ag23
ag26
ag38
ag41
ag32
ag35
ag71
ag44
ag17
atp168
Rp169
I180
sg1
((lp170
g29
ag35
ag11
ag14
ag20
ag56
ag23
ag26
ag38
ag41
ag32
ag62
ag71
ag44
ag17
atp171
Rp172
I360
sg1
((lp173
g5
ag8
ag11
ag53
ag20
ag56
ag23
ag26
ag29
ag59
ag32
ag35
ag62
ag71
ag44
atp174
Rp175
I720
sg1
((lp176
g5
ag35
ag11
ag14
ag53
ag17
ag23
ag26
ag29
ag59
ag32
ag38
ag62
ag71
ag47
atp177
Rp178
I360
sg1
((lp179
g5
ag8
ag11
ag14
ag53
ag20
ag41
ag26
ag59
ag32
ag35
ag62
ag71
ag44
ag47
atp180
Rp181
I180
sg1
((lp182
g29
ag8
ag11
ag14
ag59
ag20
ag56
ag41
ag38
ag32
ag35
ag62
ag71
ag44
ag17
atp183
Rp184
I720
sg1
((lp185
g5
ag8
ag11
ag14
ag53
ag17
ag20
ag23
ag26
ag38
ag35
ag62
ag41
ag44
ag47
atp186
Rp187
I120
sg1
((lp188
g5
ag8
ag14
ag53
ag56
ag23
ag26
ag38
ag59
ag32
ag35
ag62
ag71
ag44
ag17
atp189
Rp190
I60
s.