(dp0
c__builtin__
frozenset
p1
((lp2
g1
((lp3
I1
aI2
aI4
aI6
atp4
Rp5
ag1
((lp6
I2
aI3
aI5
aI6
atp7
Rp8
ag1
((lp9
I3
aI4
aI5
aI6
atp10
Rp11
ag1
((lp12
I1
aI3
aI4
aI6
atp13
Rp14
ag1
((lp15
I1
aI2
aI3
aI4
atp16
Rp17
ag1
((lp18
I2
aI3
aI4
aI5
atp19
Rp20
atp21
Rp22
I180
sg1
((lp23
g1
((lp24
I1
aI3
aI5
aI6
atp25
Rp26
ag5
ag17
ag1
((lp27
I2
aI3
aI4
aI6
atp28
Rp29
ag1
((lp30
I2
aI4
aI5
aI6
atp31
Rp32
ag20
atp33
Rp34
I90
sg1
((lp35
g11
ag14
ag29
ag17
ag1
((lp36
I1
aI3
aI4
aI5
atp37
Rp38
ag20
atp39
Rp40
I15
sg1
((lp41
g5
ag17
ag1
((lp42
I1
aI2
aI5
aI6
atp43
Rp44
ag1
((lp45
I1
aI2
aI3
aI6
atp46
Rp47
ag38
ag14
atp48
Rp49
I90
sg1
((lp50
g26
ag17
ag1
((lp51
I1
aI2
aI3
aI5
atp52
Rp53
ag44
ag29
ag32
atp54
Rp55
I360
sg1
((lp56
g8
ag17
ag29
ag38
ag32
ag20
atp57
Rp58
I360
sg1
((lp59
g17
ag14
ag53
ag47
ag38
ag20
atp60
Rp61
I360
sg1
((lp62
g11
ag1
((lp63
I1
aI4
aI5
aI6
atp64
Rp65
ag47
ag29
ag32
ag14
atp66
Rp67
I360
sg1
((lp68
g26
ag8
ag11
ag38
ag32
ag1
((lp69
I1
aI2
aI4
aI5
atp70
Rp71
atp72
Rp73
I360
sg1
((lp74
g11
ag20
ag17
ag47
ag71
ag14
atp75
Rp76
I360
sg1
((lp77
g26
ag5
ag11
ag44
ag38
ag14
atp78
Rp79
I180
sg1
((lp80
g8
ag17
ag53
ag32
ag71
ag14
atp81
Rp82
I360
sg1
((lp83
g11
ag29
ag17
ag38
ag32
ag71
atp84
Rp85
I60
sg1
((lp86
g26
ag5
ag29
ag53
ag38
ag32
atp87
Rp88
I10
sg1
((lp89
g26
ag5
ag14
ag53
ag32
ag20
atp90
Rp91
I60
sg1
((lp92
g26
ag8
ag53
ag47
ag29
ag71
atp93
Rp94
I360
sg1
((lp95
g17
ag29
ag53
ag38
ag71
ag20
atp96
Rp97
I60
sg1
((lp98
g8
ag65
ag47
ag32
ag71
ag20
atp99
Rp100
I720
sg1
((lp101
g26
ag5
ag11
ag14
ag29
ag20
atp102
Rp103
I120
sg1
((lp104
g26
ag20
ag44
ag47
ag71
ag14
atp105
Rp106
I360
sg1
((lp107
g5
ag11
ag29
ag47
ag38
ag20
atp108
Rp109
I180
s.