(dp0
c__builtin__
frozenset
p1
((lp2
g1
((lp3
I2
aI4
aI5
aI6
atp4
Rp5
ag1
((lp6
I1
aI2
aI4
aI5
atp7
Rp8
ag1
((lp9
I1
aI3
aI4
aI5
aI6
atp10
Rp11
ag1
((lp12
I2
aI3
aI4
atp13
Rp14
ag1
((lp15
I1
aI2
aI3
aI5
atp16
Rp17
atp18
Rp19
I720
sg1
((lp20
g1
((lp21
I1
aI2
aI5
aI6
atp22
Rp23
ag5
ag1
((lp24
I1
aI3
aI4
aI5
aI6
atp25
Rp26
ag14
ag1
((lp27
I2
aI3
aI5
aI6
atp28
Rp29
atp30
Rp31
I180
sg1
((lp32
g1
((lp33
I2
aI4
aI6
atp34
Rp35
ag1
((lp36
I1
aI2
aI3
aI4
atp37
Rp38
ag1
((lp39
I1
aI3
aI4
aI5
aI6
atp40
Rp41
ag1
((lp42
I1
aI2
aI3
aI5
atp43
Rp44
ag1
((lp45
I1
aI2
aI5
aI6
atp46
Rp47
atp48
Rp49
I360
sg1
((lp50
g1
((lp51
I2
aI3
aI5
atp52
Rp53
ag1
((lp54
I1
aI2
aI3
aI4
atp55
Rp56
ag1
((lp57
I1
aI2
aI3
aI6
atp58
Rp59
ag1
((lp60
I1
aI3
aI4
aI5
aI6
atp61
Rp62
ag1
((lp63
I2
aI3
aI4
aI6
atp64
Rp65
atp66
Rp67
I120
sg1
((lp68
g1
((lp69
I3
aI4
aI5
aI6
atp70
Rp71
ag1
((lp72
I1
aI5
aI6
atp73
Rp74
ag1
((lp75
I2
aI3
aI4
aI6
atp76
Rp77
ag1
((lp78
I2
aI3
aI5
aI6
atp79
Rp80
ag1
((lp81
I1
aI2
aI3
aI4
aI5
atp82
Rp83
atp84
Rp85
I360
sg1
((lp86
g1
((lp87
I1
aI2
aI3
atp88
Rp89
ag1
((lp90
I1
aI3
aI4
aI6
atp91
Rp92
ag1
((lp93
I2
aI3
aI4
aI5
atp94
Rp95
ag1
((lp96
I2
aI3
aI5
aI6
atp97
Rp98
ag1
((lp99
I1
aI2
aI4
aI5
aI6
atp100
Rp101
atp102
Rp103
I360
s.