(dp0
c__builtin__
frozenset
p1
((lp2
g1
((lp3
I2
aI3
aI6
atp4
Rp5
ag1
((lp6
I2
aI5
aI6
atp7
Rp8
ag1
((lp9
I3
aI4
aI5
aI6
atp10
Rp11
ag1
((lp12
I1
aI3
aI4
aI6
atp13
Rp14
ag1
((lp15
I2
aI4
aI6
atp16
Rp17
ag1
((lp18
I1
aI3
aI5
atp19
Rp20
ag1
((lp21
I1
aI2
aI6
atp22
Rp23
ag1
((lp24
I1
aI5
aI6
atp25
Rp26
ag1
((lp27
I1
aI2
aI3
atp28
Rp29
ag1
((lp30
I2
aI3
aI4
aI5
atp31
Rp32
ag1
((lp33
I1
aI2
aI4
aI5
atp34
Rp35
atp36
Rp37
I360
sg1
((lp38
g1
((lp39
I3
aI4
aI6
atp40
Rp41
ag5
ag1
((lp42
I1
aI2
aI4
aI6
atp43
Rp44
ag1
((lp45
I3
aI4
aI5
atp46
Rp47
ag1
((lp48
I3
aI5
aI6
atp49
Rp50
ag1
((lp51
I2
aI3
aI4
atp52
Rp53
ag1
((lp54
I1
aI4
aI5
aI6
atp55
Rp56
ag20
ag1
((lp57
I2
aI4
aI5
aI6
atp58
Rp59
ag1
((lp60
I1
aI2
aI4
aI5
atp61
Rp62
ag29
atp63
Rp64
I360
sg1
((lp65
g20
ag1
((lp66
I2
aI3
aI5
aI6
atp67
Rp68
ag1
((lp69
I1
aI3
aI6
atp70
Rp71
ag29
ag1
((lp72
I1
aI2
aI5
atp73
Rp74
ag1
((lp75
I1
aI2
aI4
atp76
Rp77
ag1
((lp78
I3
aI4
aI5
aI6
atp79
Rp80
ag1
((lp81
I2
aI3
aI4
aI6
atp82
Rp83
ag23
ag26
ag1
((lp84
I2
aI3
aI4
aI5
atp85
Rp86
atp87
Rp88
I360
sg1
((lp89
g41
ag1
((lp90
I2
aI3
aI5
aI6
atp91
Rp92
ag47
ag1
((lp93
I1
aI3
aI5
aI6
atp94
Rp95
ag53
ag77
ag17
ag1
((lp96
I1
aI3
aI4
atp97
Rp98
ag1
((lp99
I1
aI4
aI5
atp100
Rp101
ag1
((lp102
I1
aI2
aI3
aI5
atp103
Rp104
ag1
((lp105
I1
aI2
aI5
aI6
atp106
Rp107
atp108
Rp109
I720
sg1
((lp110
g41
ag1
((lp111
I2
aI4
aI5
atp112
Rp113
ag98
ag1
((lp114
I2
aI3
aI5
aI6
atp115
Rp116
ag47
ag1
((lp117
I1
aI3
aI5
aI6
atp118
Rp119
ag53
ag1
((lp120
I1
aI2
aI3
aI5
atp121
Rp122
ag17
ag1
((lp123
I1
aI2
aI3
aI6
atp124
Rp125
ag1
((lp126
I1
aI4
aI6
atp127
Rp128
atp129
Rp130
I360
sg1
((lp131
g20
ag71
ag50
ag98
ag1
((lp132
I2
aI3
aI4
aI6
atp133
Rp134
ag1
((lp135
I2
aI4
aI5
aI6
atp136
Rp137
ag26
ag128
ag1
((lp138
I2
aI3
aI4
aI5
atp139
Rp140
ag1
((lp141
I1
aI2
aI4
aI5
atp142
Rp143
ag23
atp144
Rp145
I720
sg1
((lp146
g41
ag5
ag47
ag1
((lp147
I1
aI3
aI5
aI6
atp148
Rp149
ag1
((lp150
I2
aI3
aI5
atp151
Rp152
ag1
((lp153
I1
aI4
aI5
aI6
atp154
Rp155
ag77
ag1
((lp156
I1
aI2
aI5
aI6
atp157
Rp158
ag98
ag1
((lp159
I2
aI4
aI5
aI6
atp160
Rp161
ag29
atp162
Rp163
I180
sg1
((lp164
g152
ag29
ag74
ag77
ag101
ag1
((lp165
I3
aI4
aI5
aI6
atp166
Rp167
ag1
((lp168
I2
aI3
aI4
aI6
atp169
Rp170
ag1
((lp171
I2
aI4
aI5
aI6
atp172
Rp173
ag26
ag1
((lp174
I1
aI3
aI4
aI6
atp175
Rp176
ag23
atp177
Rp178
I360
sg1
((lp179
g1
((lp180
I1
aI3
aI5
aI6
atp181
Rp182
ag5
ag152
ag29
ag53
ag74
ag77
ag1
((lp183
I3
aI4
aI5
aI6
atp184
Rp185
ag1
((lp186
I1
aI3
aI4
aI5
atp187
Rp188
ag23
ag1
((lp189
I1
aI3
aI4
aI6
atp190
Rp191
atp192
Rp193
I120
sg1
((lp194
g41
ag8
ag1
((lp195
I1
aI2
aI3
aI5
atp196
Rp197
ag1
((lp198
I4
aI5
aI6
atp199
Rp200
ag77
ag17
ag1
((lp201
I1
aI2
aI3
aI6
atp202
Rp203
ag1
((lp204
I1
aI3
aI4
aI5
atp205
Rp206
ag26
ag128
ag1
((lp207
I2
aI3
aI4
aI5
atp208
Rp209
atp210
Rp211
I360
sg1
((lp212
g5
ag1
((lp213
I1
aI2
aI4
aI6
atp214
Rp215
ag47
ag71
ag50
ag53
ag1
((lp216
I1
aI4
aI5
aI6
atp217
Rp218
ag1
((lp219
I1
aI2
aI5
aI6
atp220
Rp221
ag98
ag1
((lp222
I2
aI4
aI5
aI6
atp223
Rp224
ag29
atp225
Rp226
I360
sg1
((lp227
g17
ag20
ag1
((lp228
I2
aI3
aI5
aI6
atp229
Rp230
ag71
ag101
ag1
((lp231
I1
aI2
aI3
aI4
atp232
Rp233
ag23
ag1
((lp234
I3
aI4
aI5
aI6
atp235
Rp236
ag128
ag1
((lp237
I2
aI3
aI4
aI5
atp238
Rp239
ag26
atp240
Rp241
I720
sg1
((lp242
g5
ag1
((lp243
I1
aI2
aI4
aI6
atp244
Rp245
ag71
ag50
ag53
ag152
ag1
((lp246
I1
aI3
aI4
aI5
atp247
Rp248
ag1
((lp249
I2
aI4
aI5
aI6
atp250
Rp251
ag26
ag29
ag1
((lp252
I1
aI2
aI4
aI5
atp253
Rp254
atp255
Rp256
I360
sg1
((lp257
g41
ag113
ag1
((lp258
I1
aI3
aI5
aI6
atp259
Rp260
ag152
ag74
ag200
ag17
ag1
((lp261
I1
aI2
aI3
aI4
atp262
Rp263
ag1
((lp264
I1
aI2
aI3
aI6
atp265
Rp266
ag1
((lp267
I1
aI3
aI4
aI5
atp268
Rp269
ag128
atp270
Rp271
I180
sg1
((lp272
g41
ag5
ag1
((lp273
I1
aI3
aI5
aI6
atp274
Rp275
ag1
((lp276
I1
aI2
aI3
aI5
atp277
Rp278
ag77
ag17
ag98
ag101
ag200
ag1
((lp279
I2
aI3
aI4
aI5
atp280
Rp281
ag1
((lp282
I1
aI2
aI5
aI6
atp283
Rp284
atp285
Rp286
I360
sg1
((lp287
g101
ag20
ag1
((lp288
I2
aI3
aI5
aI6
atp289
Rp290
ag71
ag29
ag77
ag1
((lp291
I1
aI2
aI5
aI6
atp292
Rp293
ag1
((lp294
I3
aI4
aI5
aI6
atp295
Rp296
ag98
ag128
ag1
((lp297
I2
aI3
aI4
aI5
atp298
Rp299
atp300
Rp301
I360
sg1
((lp302
g1
((lp303
I1
aI3
aI5
aI6
atp304
Rp305
ag5
ag8
ag152
ag53
ag74
ag77
ag17
ag1
((lp306
I1
aI4
aI5
aI6
atp307
Rp308
ag1
((lp309
I1
aI3
aI4
aI5
atp310
Rp311
ag1
((lp312
I1
aI3
aI4
aI6
atp313
Rp314
atp315
Rp316
I180
sg1
((lp317
g20
ag1
((lp318
I2
aI3
aI5
aI6
atp319
Rp320
ag29
ag74
ag77
ag101
ag1
((lp321
I2
aI3
aI4
aI6
atp322
Rp323
ag1
((lp324
I2
aI4
aI5
aI6
atp325
Rp326
ag26
ag128
ag1
((lp327
I2
aI3
aI4
aI5
atp328
Rp329
atp330
Rp331
I720
sg1
((lp332
g8
ag71
ag1
((lp333
I1
aI2
aI3
aI5
atp334
Rp335
ag200
ag17
ag1
((lp336
I1
aI2
aI3
aI4
atp337
Rp338
ag1
((lp339
I1
aI3
aI4
aI5
atp340
Rp341
ag23
ag26
ag128
ag1
((lp342
I1
aI2
aI4
aI5
atp343
Rp344
atp345
Rp346
I120
sg1
((lp347
g20
ag8
ag152
ag50
ag74
ag101
ag1
((lp348
I1
aI2
aI3
aI4
atp349
Rp350
ag1
((lp351
I2
aI3
aI4
aI6
atp352
Rp353
ag26
ag1
((lp354
I1
aI3
aI4
aI6
atp355
Rp356
ag1
((lp357
I1
aI2
aI4
aI6
atp358
Rp359
atp360
Rp361
I120
sg1
((lp362
g20
ag1
((lp363
I1
aI2
aI4
aI6
atp364
Rp365
ag71
ag50
ag1
((lp366
I1
aI4
aI5
aI6
atp367
Rp368
ag1
((lp369
I1
aI2
aI5
aI6
atp370
Rp371
ag152
ag98
ag1
((lp372
I2
aI3
aI4
aI6
atp373
Rp374
ag113
ag29
atp375
Rp376
I720
sg1
((lp377
g41
ag47
ag1
((lp378
I1
aI3
aI5
aI6
atp379
Rp380
ag53
ag1
((lp381
I1
aI4
aI5
aI6
atp382
Rp383
ag77
ag17
ag98
ag1
((lp384
I1
aI2
aI3
aI5
atp385
Rp386
ag113
ag1
((lp387
I1
aI2
aI5
aI6
atp388
Rp389
atp390
Rp391
I180
sg1
((lp392
g1
((lp393
I2
aI3
aI5
aI6
atp394
Rp395
ag71
ag1
((lp396
I2
aI3
aI4
aI6
atp397
Rp398
ag74
ag77
ag1
((lp399
I1
aI3
aI4
aI5
atp400
Rp401
ag1
((lp402
I2
aI4
aI5
aI6
atp403
Rp404
ag26
ag128
ag29
ag23
atp405
Rp406
I60
sg1
((lp407
g5
ag1
((lp408
I1
aI2
aI4
aI6
atp409
Rp410
ag71
ag53
ag1
((lp411
I1
aI4
aI5
aI6
atp412
Rp413
ag152
ag98
ag20
ag1
((lp414
I2
aI4
aI5
aI6
atp415
Rp416
ag1
((lp417
I1
aI2
aI4
aI5
atp418
Rp419
ag29
atp420
Rp421
I180
sg1
((lp422
g1
((lp423
I2
aI3
aI5
aI6
atp424
Rp425
ag47
ag71
ag1
((lp426
I1
aI2
aI3
aI5
atp427
Rp428
ag200
ag101
ag1
((lp429
I1
aI2
aI3
aI4
atp430
Rp431
ag1
((lp432
I2
aI3
aI4
aI6
atp433
Rp434
ag23
ag26
ag128
atp435
Rp436
I180
s.