(dp0
c__builtin__
frozenset
p1
((lp2
g1
((lp3
I2
aI3
aI6
atp4
Rp5
ag1
((lp6
I2
aI5
aI6
atp7
Rp8
ag1
((lp9
I2
aI3
aI5
atp10
Rp11
ag1
((lp12
I1
aI2
aI3
atp13
Rp14
ag1
((lp15
I2
aI3
aI4
atp16
Rp17
ag1
((lp18
I1
aI4
aI5
aI6
atp19
Rp20
ag1
((lp21
I1
aI2
aI4
atp22
Rp23
ag1
((lp24
I2
aI4
aI6
atp25
Rp26
ag1
((lp27
I3
aI4
aI5
aI6
atp28
Rp29
ag1
((lp30
I1
aI3
aI4
aI5
atp31
Rp32
ag1
((lp33
I1
aI2
aI6
atp34
Rp35
ag1
((lp36
I2
aI4
aI5
atp37
Rp38
ag1
((lp39
I1
aI3
aI4
aI6
atp40
Rp41
atp42
Rp43
I180
sg1
((lp44
g1
((lp45
I1
aI3
aI5
atp46
Rp47
ag8
ag1
((lp48
I3
aI4
aI5
atp49
Rp50
ag11
ag1
((lp51
I1
aI2
aI5
atp52
Rp53
ag1
((lp54
I4
aI5
aI6
atp55
Rp56
ag1
((lp57
I1
aI4
aI5
atp58
Rp59
ag1
((lp60
I1
aI2
aI3
aI4
atp61
Rp62
ag1
((lp63
I1
aI2
aI3
aI6
atp64
Rp65
ag1
((lp66
I2
aI3
aI4
aI6
atp67
Rp68
ag1
((lp69
I1
aI5
aI6
atp70
Rp71
ag38
ag1
((lp72
I1
aI3
aI4
aI6
atp73
Rp74
atp75
Rp76
I120
s.