(dp0
c__builtin__
frozenset
p1
((lp2
g1
((lp3
I2
aI4
aI5
aI6
atp4
Rp5
ag1
((lp6
I1
aI3
aI5
atp7
Rp8
atp9
Rp10
I60
sg1
((lp11
g1
((lp12
I1
aI3
aI5
aI6
atp13
Rp14
ag1
((lp15
I1
aI2
aI3
atp16
Rp17
atp18
Rp19
I180
s.