(dp0
c__builtin__
frozenset
p1
((lp2
g1
((lp3
I1
aI3
aI5
aI6
atp4
Rp5
ag1
((lp6
I2
aI4
aI5
atp7
Rp8
ag1
((lp9
I2
aI3
aI5
aI6
atp10
Rp11
ag1
((lp12
I3
aI4
aI5
atp13
Rp14
ag1
((lp15
I2
aI4
aI6
atp16
Rp17
ag1
((lp18
I2
aI3
aI4
atp19
Rp20
ag1
((lp21
I4
aI5
aI6
atp22
Rp23
ag1
((lp24
I1
aI2
aI5
aI6
atp25
Rp26
ag1
((lp27
I1
aI2
aI3
aI6
atp28
Rp29
ag1
((lp30
I1
aI2
aI3
aI5
atp31
Rp32
ag1
((lp33
I1
aI4
aI6
atp34
Rp35
atp36
Rp37
I360
sg1
((lp38
g1
((lp39
I1
aI3
aI5
atp40
Rp41
ag1
((lp42
I2
aI3
aI5
aI6
atp43
Rp44
ag1
((lp45
I1
aI3
aI6
atp46
Rp47
ag1
((lp48
I1
aI2
aI3
atp49
Rp50
ag1
((lp51
I1
aI2
aI4
atp52
Rp53
ag1
((lp54
I3
aI4
aI5
aI6
atp55
Rp56
ag1
((lp57
I1
aI3
aI4
atp58
Rp59
ag1
((lp60
I2
aI3
aI4
aI6
atp61
Rp62
ag1
((lp63
I2
aI4
aI5
aI6
atp64
Rp65
ag1
((lp66
I2
aI3
aI4
aI5
atp67
Rp68
ag1
((lp69
I1
aI2
aI6
atp70
Rp71
atp72
Rp73
I360
sg1
((lp74
g1
((lp75
I3
aI4
aI6
atp76
Rp77
ag41
ag1
((lp78
I1
aI2
aI4
aI6
atp79
Rp80
ag14
ag1
((lp81
I1
aI2
aI3
aI4
atp82
Rp83
ag1
((lp84
I1
aI2
aI5
atp85
Rp86
ag1
((lp87
I2
aI3
aI5
aI6
atp88
Rp89
ag1
((lp90
I1
aI2
aI3
aI6
atp91
Rp92
ag1
((lp93
I1
aI4
aI5
atp94
Rp95
ag1
((lp96
I2
aI4
aI5
aI6
atp97
Rp98
ag1
((lp99
I1
aI5
aI6
atp100
Rp101
atp102
Rp103
I360
sg1
((lp104
g1
((lp105
I1
aI3
aI5
aI6
atp106
Rp107
ag1
((lp108
I2
aI3
aI5
aI6
atp109
Rp110
ag1
((lp111
I3
aI4
aI5
aI6
atp112
Rp113
ag50
ag86
ag53
ag95
ag1
((lp114
I2
aI3
aI4
aI6
atp115
Rp116
ag71
ag35
ag1
((lp117
I2
aI3
aI4
aI5
atp118
Rp119
atp120
Rp121
I360
sg1
((lp122
g1
((lp123
I1
aI3
aI5
aI6
atp124
Rp125
ag1
((lp126
I2
aI3
aI6
atp127
Rp128
ag1
((lp129
I2
aI5
aI6
atp130
Rp131
ag1
((lp132
I2
aI3
aI5
atp133
Rp134
ag20
ag1
((lp135
I1
aI4
aI5
aI6
atp136
Rp137
ag17
ag1
((lp138
I3
aI4
aI5
aI6
atp139
Rp140
ag1
((lp141
I1
aI3
aI4
aI5
atp142
Rp143
ag8
ag1
((lp144
I1
aI3
aI4
aI6
atp145
Rp146
atp147
Rp148
I30
sg1
((lp149
g1
((lp150
I1
aI3
aI5
aI6
atp151
Rp152
ag128
ag131
ag1
((lp153
I3
aI4
aI5
aI6
atp154
Rp155
ag20
ag1
((lp156
I1
aI4
aI5
aI6
atp157
Rp158
ag53
ag1
((lp159
I1
aI2
aI3
aI5
atp160
Rp161
ag71
ag8
ag1
((lp162
I1
aI3
aI4
aI6
atp163
Rp164
atp165
Rp166
I120
sg1
((lp167
g77
ag128
ag14
ag1
((lp168
I1
aI3
aI5
aI6
atp169
Rp170
ag1
((lp171
I1
aI2
aI3
aI4
atp172
Rp173
ag1
((lp174
I1
aI2
aI3
aI5
atp175
Rp176
ag23
ag17
ag1
((lp177
I1
aI2
aI4
aI5
atp178
Rp179
ag35
ag1
((lp180
I1
aI2
aI5
aI6
atp181
Rp182
atp183
Rp184
I360
sg1
((lp185
g95
ag14
ag134
ag1
((lp186
I3
aI5
aI6
atp187
Rp188
ag23
ag1
((lp189
I1
aI2
aI5
aI6
atp190
Rp191
ag1
((lp192
I1
aI2
aI3
aI4
atp193
Rp194
ag1
((lp195
I1
aI2
aI3
aI6
atp196
Rp197
ag1
((lp198
I2
aI3
aI4
aI6
atp199
Rp200
ag8
ag1
((lp201
I1
aI3
aI4
aI6
atp202
Rp203
atp204
Rp205
I360
sg1
((lp206
g1
((lp207
I2
aI3
aI5
aI6
atp208
Rp209
ag47
ag1
((lp210
I1
aI2
aI3
aI5
atp211
Rp212
ag53
ag95
ag1
((lp213
I3
aI4
aI5
aI6
atp214
Rp215
ag59
ag71
ag1
((lp216
I2
aI4
aI5
aI6
atp217
Rp218
ag101
ag1
((lp219
I2
aI3
aI4
aI5
atp220
Rp221
atp222
Rp223
I180
sg1
((lp224
g41
ag1
((lp225
I2
aI3
aI5
aI6
atp226
Rp227
ag47
ag86
ag1
((lp228
I1
aI2
aI3
aI4
atp229
Rp230
ag1
((lp231
I2
aI3
aI4
aI6
atp232
Rp233
ag1
((lp234
I2
aI4
aI5
aI6
atp235
Rp236
ag1
((lp237
I3
aI4
aI5
aI6
atp238
Rp239
ag35
ag101
ag71
atp240
Rp241
I360
sg1
((lp242
g77
ag1
((lp243
I2
aI3
aI5
aI6
atp244
Rp245
ag1
((lp246
I1
aI3
aI5
aI6
atp247
Rp248
ag59
ag23
ag17
ag1
((lp249
I1
aI2
aI3
aI6
atp250
Rp251
ag95
ag1
((lp252
I1
aI2
aI3
aI5
atp253
Rp254
ag53
ag1
((lp255
I1
aI2
aI5
aI6
atp256
Rp257
atp258
Rp259
I60
sg1
((lp260
g41
ag1
((lp261
I2
aI3
aI5
aI6
atp262
Rp263
ag1
((lp264
I3
aI4
aI5
aI6
atp265
Rp266
ag86
ag53
ag95
ag1
((lp267
I1
aI2
aI3
aI6
atp268
Rp269
ag1
((lp270
I2
aI3
aI4
aI6
atp271
Rp272
ag101
ag8
ag1
((lp273
I1
aI3
aI4
aI6
atp274
Rp275
atp276
Rp277
I90
sg1
((lp278
g1
((lp279
I1
aI3
aI5
aI6
atp280
Rp281
ag128
ag17
ag1
((lp282
I3
aI4
aI5
aI6
atp283
Rp284
ag20
ag53
ag95
ag1
((lp285
I1
aI2
aI3
aI5
atp286
Rp287
ag8
ag1
((lp288
I1
aI3
aI4
aI6
atp289
Rp290
ag1
((lp291
I1
aI2
aI5
aI6
atp292
Rp293
atp294
Rp295
I90
sg1
((lp296
g77
ag41
ag1
((lp297
I1
aI2
aI4
aI6
atp298
Rp299
ag134
ag20
ag1
((lp300
I1
aI4
aI5
aI6
atp301
Rp302
ag1
((lp303
I1
aI2
aI5
aI6
atp304
Rp305
ag128
ag1
((lp306
I2
aI4
aI5
aI6
atp307
Rp308
ag1
((lp309
I1
aI2
aI4
aI5
atp310
Rp311
ag50
atp312
Rp313
I90
sg1
((lp314
g128
ag134
ag50
ag20
ag1
((lp315
I1
aI4
aI5
aI6
atp316
Rp317
ag53
ag1
((lp318
I3
aI4
aI5
aI6
atp319
Rp320
ag1
((lp321
I1
aI3
aI4
aI5
atp322
Rp323
ag1
((lp324
I2
aI4
aI5
aI6
atp325
Rp326
ag1
((lp327
I1
aI3
aI4
aI6
atp328
Rp329
ag71
atp330
Rp331
I720
sg1
((lp332
g47
ag188
ag1
((lp333
I1
aI2
aI3
aI5
atp334
Rp335
ag23
ag17
ag1
((lp336
I1
aI2
aI3
aI4
atp337
Rp338
ag1
((lp339
I1
aI3
aI4
aI5
atp340
Rp341
ag71
ag1
((lp342
I1
aI2
aI4
aI5
atp343
Rp344
ag35
ag1
((lp345
I2
aI3
aI4
aI5
atp346
Rp347
atp348
Rp349
I360
s.