(dp0
c__builtin__
frozenset
p1
((lp2
g1
((lp3
I1
aI4
aI5
atp4
Rp5
ag1
((lp6
I1
aI3
aI5
atp7
Rp8
ag1
((lp9
I2
aI5
aI6
atp10
Rp11
ag1
((lp12
I1
aI3
aI6
atp13
Rp14
ag1
((lp15
I2
aI4
aI6
atp16
Rp17
ag1
((lp18
I2
aI3
aI5
atp19
Rp20
ag1
((lp21
I2
aI3
aI6
atp22
Rp23
ag1
((lp24
I1
aI4
aI6
atp25
Rp26
ag1
((lp27
I1
aI2
aI6
atp28
Rp29
ag1
((lp30
I3
aI4
aI5
aI6
atp31
Rp32
ag1
((lp33
I2
aI4
aI5
atp34
Rp35
ag1
((lp36
I1
aI2
aI3
atp37
Rp38
ag1
((lp39
I1
aI5
aI6
atp40
Rp41
atp42
Rp43
I360
sg1
((lp44
g8
ag11
ag1
((lp45
I3
aI4
aI5
atp46
Rp47
ag20
ag1
((lp48
I2
aI3
aI4
atp49
Rp50
ag1
((lp51
I4
aI5
aI6
atp52
Rp53
ag17
ag1
((lp54
I1
aI3
aI4
atp55
Rp56
ag29
ag41
ag26
ag38
ag1
((lp57
I1
aI2
aI4
aI5
atp58
Rp59
atp60
Rp61
I15
sg1
((lp62
g1
((lp63
I3
aI4
aI6
atp64
Rp65
ag8
ag11
ag47
ag14
ag50
ag53
ag17
ag20
ag23
ag41
ag1
((lp66
I3
aI5
aI6
atp67
Rp68
ag1
((lp69
I1
aI2
aI4
aI5
atp70
Rp71
atp72
Rp73
I180
sg1
((lp74
g65
ag8
ag11
ag68
ag1
((lp75
I1
aI2
aI5
atp76
Rp77
ag1
((lp78
I1
aI2
aI4
atp79
Rp80
ag17
ag56
ag23
ag5
ag29
ag38
ag1
((lp81
I2
aI3
aI4
aI5
atp82
Rp83
atp84
Rp85
I360
sg1
((lp86
g65
ag26
ag47
ag1
((lp87
I1
aI3
aI5
aI6
atp88
Rp89
ag20
ag50
ag77
ag53
ag17
ag5
ag29
ag35
ag38
atp90
Rp91
I720
sg1
((lp92
g65
ag23
ag11
ag1
((lp93
I1
aI3
aI5
aI6
atp94
Rp95
ag20
ag50
ag77
ag80
ag56
ag26
ag29
ag35
ag38
atp96
Rp97
I360
sg1
((lp98
g5
ag8
ag11
ag47
ag14
ag77
ag53
ag17
ag1
((lp99
I1
aI2
aI3
aI4
atp100
Rp101
ag23
ag41
ag26
ag68
atp102
Rp103
I360
sg1
((lp104
g65
ag23
ag47
ag14
ag35
ag50
ag80
ag17
ag56
ag1
((lp105
I1
aI2
aI3
aI5
atp106
Rp107
ag29
ag53
ag68
atp108
Rp109
I720
sg1
((lp110
g5
ag8
ag14
ag50
ag80
ag17
ag20
ag23
ag26
ag29
ag1
((lp111
I3
aI4
aI5
aI6
atp112
Rp113
ag35
ag38
atp114
Rp115
I360
sg1
((lp116
g65
ag8
ag47
ag14
ag35
ag50
ag80
ag17
ag56
ag5
ag53
ag38
ag1
((lp117
I1
aI2
aI5
aI6
atp118
Rp119
atp120
Rp121
I360
sg1
((lp122
g65
ag8
ag11
ag14
ag68
ag77
ag80
ag17
ag56
ag5
ag38
ag26
ag1
((lp123
I2
aI3
aI4
aI5
atp124
Rp125
atp126
Rp127
I360
sg1
((lp128
g65
ag8
ag47
ag14
ag38
ag77
ag80
ag20
ag56
ag29
ag1
((lp129
I2
aI4
aI5
aI6
atp130
Rp131
ag26
ag68
atp132
Rp133
I180
sg1
((lp134
g65
ag23
ag11
ag47
ag14
ag50
ag77
ag53
ag5
ag20
ag41
ag35
ag1
((lp135
I1
aI2
aI4
aI6
atp136
Rp137
atp138
Rp139
I360
sg1
((lp140
g65
ag23
ag11
ag47
ag1
((lp141
I1
aI3
aI5
aI6
atp142
Rp143
ag20
ag80
ag17
ag26
ag5
ag29
ag35
ag38
atp144
Rp145
I720
sg1
((lp146
g65
ag26
ag11
ag14
ag50
ag53
ag17
ag56
ag5
ag1
((lp147
I1
aI2
aI3
aI5
atp148
Rp149
ag29
ag35
ag68
atp150
Rp151
I90
sg1
((lp152
g65
ag23
ag11
ag47
ag14
ag50
ag80
ag26
ag1
((lp153
I1
aI2
aI3
aI5
atp154
Rp155
ag29
ag41
ag35
ag68
atp156
Rp157
I720
sg1
((lp158
g65
ag23
ag11
ag47
ag20
ag53
ag17
ag56
ag29
ag41
ag26
ag38
ag1
((lp159
I1
aI2
aI4
aI5
atp160
Rp161
atp162
Rp163
I180
sg1
((lp164
g65
ag8
ag1
((lp165
I1
aI2
aI4
aI6
atp166
Rp167
ag47
ag14
ag77
ag53
ag5
ag20
ag56
ag41
ag35
ag68
atp168
Rp169
I360
sg1
((lp170
g26
ag11
ag47
ag14
ag38
ag77
ag53
ag5
ag1
((lp171
I2
aI3
aI4
aI6
atp172
Rp173
ag29
ag41
ag35
ag68
atp174
Rp175
I720
sg1
((lp176
g65
ag11
ag47
ag1
((lp177
I1
aI3
aI5
aI6
atp178
Rp179
ag20
ag50
ag77
ag80
ag17
ag5
ag53
ag26
ag38
atp180
Rp181
I360
sg1
((lp182
g65
ag8
ag1
((lp183
I1
aI2
aI4
aI6
atp184
Rp185
ag14
ag77
ag53
ag5
ag20
ag56
ag23
ag41
ag35
ag68
atp186
Rp187
I720
sg1
((lp188
g65
ag8
ag11
ag47
ag20
ag77
ag53
ag17
ag1
((lp189
I1
aI2
aI3
aI6
atp190
Rp191
ag5
ag41
ag80
ag68
atp192
Rp193
I720
sg1
((lp194
g8
ag11
ag47
ag14
ag38
ag17
ag20
ag56
ag23
ag29
ag41
ag68
ag1
((lp195
I1
aI2
aI4
aI5
atp196
Rp197
atp198
Rp199
I360
sg1
((lp200
g65
ag23
ag11
ag47
ag50
ag53
ag80
ag17
ag5
ag1
((lp201
I1
aI2
aI3
aI5
atp202
Rp203
ag41
ag26
ag68
atp204
Rp205
I720
sg1
((lp206
g65
ag8
ag1
((lp207
I1
aI2
aI4
aI6
atp208
Rp209
ag47
ag14
ag38
ag77
ag53
ag5
ag56
ag23
ag41
ag68
atp210
Rp211
I720
sg1
((lp212
g1
((lp213
I1
aI3
aI5
aI6
atp214
Rp215
ag23
ag11
ag20
ag38
ag50
ag77
ag80
ag17
ag56
ag26
ag35
ag53
atp216
Rp217
I360
sg1
((lp218
g65
ag23
ag11
ag14
ag38
ag53
ag17
ag20
ag56
ag29
ag41
ag68
ag1
((lp219
I1
aI2
aI4
aI5
atp220
Rp221
atp222
Rp223
I720
sg1
((lp224
g5
ag8
ag11
ag20
ag50
ag77
ag17
ag1
((lp225
I3
aI4
aI5
aI6
atp226
Rp227
ag56
ag23
ag41
ag26
ag38
atp228
Rp229
I360
sg1
((lp230
g65
ag23
ag11
ag47
ag1
((lp231
I1
aI3
aI5
aI6
atp232
Rp233
ag20
ag38
ag80
ag56
ag26
ag29
ag35
ag53
atp234
Rp235
I90
sg1
((lp236
g5
ag38
ag8
ag47
ag20
ag68
ag80
ag17
ag23
ag29
ag53
ag35
ag1
((lp237
I1
aI3
aI4
aI6
atp238
Rp239
atp240
Rp241
I180
sg1
((lp242
g65
ag8
ag11
ag47
ag50
ag1
((lp243
I1
aI4
aI5
aI6
atp244
Rp245
ag80
ag17
ag56
ag23
ag29
ag35
ag68
atp246
Rp247
I720
sg1
((lp248
g8
ag11
ag47
ag14
ag38
ag77
ag17
ag56
ag23
ag1
((lp249
I1
aI4
aI5
aI6
atp250
Rp251
ag29
ag35
ag68
atp252
Rp253
I360
sg1
((lp254
g8
ag80
ag47
ag20
ag38
ag53
ag5
ag56
ag1
((lp255
I2
aI3
aI4
aI6
atp256
Rp257
ag29
ag41
ag35
ag68
atp258
Rp259
I360
sg1
((lp260
g65
ag23
ag47
ag1
((lp261
I1
aI3
aI5
aI6
atp262
Rp263
ag20
ag38
ag50
ag77
ag80
ag17
ag26
ag35
ag53
atp264
Rp265
I720
sg1
((lp266
g65
ag23
ag47
ag1
((lp267
I1
aI3
aI5
aI6
atp268
Rp269
ag20
ag50
ag77
ag80
ag17
ag26
ag5
ag29
ag35
atp270
Rp271
I45
sg1
((lp272
g5
ag23
ag11
ag14
ag77
ag17
ag1
((lp273
I3
aI4
aI5
aI6
atp274
Rp275
ag56
ag26
ag29
ag41
ag35
ag38
atp276
Rp277
I720
sg1
((lp278
g8
ag11
ag47
ag14
ag38
ag80
ag20
ag56
ag26
ag1
((lp279
I2
aI3
aI4
aI6
atp280
Rp281
ag41
ag35
ag68
atp282
Rp283
I360
sg1
((lp284
g5
ag8
ag11
ag20
ag50
ag77
ag80
ag17
ag1
((lp285
I3
aI4
aI5
aI6
atp286
Rp287
ag23
ag41
ag35
ag38
atp288
Rp289
I360
sg1
((lp290
g8
ag11
ag14
ag50
ag77
ag5
ag20
ag56
ag26
ag29
ag1
((lp291
I3
aI4
aI5
aI6
atp292
Rp293
ag35
ag41
atp294
Rp295
I360
sg1
((lp296
g65
ag8
ag11
ag47
ag20
ag38
ag50
ag1
((lp297
I1
aI4
aI5
aI6
atp298
Rp299
ag80
ag56
ag29
ag35
ag68
atp300
Rp301
I720
sg1
((lp302
g65
ag8
ag1
((lp303
I1
aI2
aI4
aI6
atp304
Rp305
ag47
ag20
ag38
ag50
ag77
ag53
ag56
ag23
ag35
ag68
atp306
Rp307
I360
sg1
((lp308
g23
ag47
ag14
ag38
ag50
ag53
ag20
ag56
ag29
ag41
ag26
ag68
ag1
((lp309
I1
aI2
aI4
aI5
atp310
Rp311
atp312
Rp313
I720
sg1
((lp314
g65
ag8
ag47
ag14
ag50
ag80
ag17
ag20
ag56
ag26
ag5
ag35
ag1
((lp315
I1
aI2
aI5
aI6
atp316
Rp317
atp318
Rp319
I720
sg1
((lp320
g8
ag14
ag38
ag77
ag80
ag5
ag56
ag26
ag1
((lp321
I2
aI3
aI4
aI6
atp322
Rp323
ag29
ag41
ag35
ag53
atp324
Rp325
I360
sg1
((lp326
g65
ag8
ag47
ag20
ag50
ag77
ag80
ag17
ag56
ag23
ag1
((lp327
I1
aI4
aI5
aI6
atp328
Rp329
ag29
ag38
atp330
Rp331
I360
sg1
((lp332
g65
ag8
ag11
ag14
ag38
ag53
ag17
ag20
ag23
ag29
ag1
((lp333
I1
aI2
aI4
aI5
atp334
Rp335
ag26
ag68
atp336
Rp337
I360
sg1
((lp338
g5
ag38
ag8
ag11
ag68
ag77
ag53
ag17
ag23
ag29
ag41
ag80
ag1
((lp339
I1
aI3
aI4
aI6
atp340
Rp341
atp342
Rp343
I90
sg1
((lp344
g5
ag23
ag11
ag14
ag50
ag53
ag17
ag56
ag26
ag1
((lp345
I1
aI2
aI3
aI5
atp346
Rp347
ag41
ag35
ag68
atp348
Rp349
I360
sg1
((lp350
g65
ag8
ag47
ag14
ag50
ag80
ag5
ag56
ag23
ag26
ag35
ag38
ag1
((lp351
I1
aI2
aI5
aI6
atp352
Rp353
atp354
Rp355
I360
sg1
((lp356
g8
ag11
ag47
ag14
ag50
ag77
ag53
ag5
ag20
ag41
ag35
ag68
ag1
((lp357
I1
aI2
aI4
aI6
atp358
Rp359
atp360
Rp361
I90
sg1
((lp362
g5
ag8
ag11
ag47
ag20
ag1
((lp363
I1
aI3
aI4
aI6
atp364
Rp365
ag50
ag17
ag23
ag38
ag41
ag35
ag68
atp366
Rp367
I360
sg1
((lp368
g65
ag23
ag11
ag20
ag38
ag50
ag77
ag80
ag53
ag1
((lp369
I1
aI3
aI4
aI5
atp370
Rp371
ag41
ag35
ag68
atp372
Rp373
I720
sg1
((lp374
g65
ag8
ag1
((lp375
I2
aI3
aI5
aI6
atp376
Rp377
ag47
ag77
ag80
ag17
ag53
ag5
ag29
ag41
ag26
ag38
atp378
Rp379
I720
sg1
((lp380
g65
ag8
ag47
ag14
ag80
ag17
ag20
ag56
ag23
ag26
ag35
ag38
ag1
((lp381
I1
aI2
aI5
aI6
atp382
Rp383
atp384
Rp385
I720
sg1
((lp386
g5
ag38
ag8
ag47
ag68
ag50
ag80
ag17
ag23
ag29
ag41
ag35
ag1
((lp387
I1
aI3
aI4
aI6
atp388
Rp389
atp390
Rp391
I360
sg1
((lp392
g65
ag23
ag1
((lp393
I1
aI3
aI5
aI6
atp394
Rp395
ag20
ag50
ag80
ag17
ag56
ag26
ag5
ag29
ag35
ag38
atp396
Rp397
I360
sg1
((lp398
g65
ag26
ag1
((lp399
I2
aI3
aI5
aI6
atp400
Rp401
ag47
ag14
ag50
ag80
ag17
ag56
ag29
ag53
ag35
ag38
atp402
Rp403
I120
sg1
((lp404
g23
ag11
ag14
ag38
ag50
ag80
ag20
ag26
ag1
((lp405
I1
aI3
aI4
aI5
atp406
Rp407
ag29
ag41
ag35
ag68
atp408
Rp409
I720
sg1
((lp410
g65
ag1
((lp411
I2
aI3
aI5
aI6
atp412
Rp413
ag47
ag14
ag38
ag77
ag80
ag17
ag56
ag29
ag41
ag35
ag53
atp414
Rp415
I720
sg1
((lp416
g65
ag23
ag11
ag47
ag20
ag38
ag53
ag17
ag29
ag41
ag26
ag68
ag1
((lp417
I1
aI2
aI4
aI5
atp418
Rp419
atp420
Rp421
I720
sg1
((lp422
g65
ag38
ag8
ag11
ag68
ag53
ag17
ag56
ag23
ag29
ag41
ag26
ag1
((lp423
I2
aI3
aI4
aI5
atp424
Rp425
atp426
Rp427
I120
sg1
((lp428
g65
ag8
ag1
((lp429
I2
aI3
aI5
aI6
atp430
Rp431
ag47
ag14
ag38
ag50
ag80
ag5
ag56
ag26
ag35
ag53
atp432
Rp433
I360
s.