(dp0
c__builtin__
frozenset
p1
((lp2
g1
((lp3
I1
aI2
aI4
aI6
atp4
Rp5
ag1
((lp6
I2
aI3
aI5
atp7
Rp8
ag1
((lp9
I1
aI3
aI4
aI5
atp10
Rp11
ag1
((lp12
I1
aI2
aI5
aI6
atp13
Rp14
ag1
((lp15
I1
aI2
aI3
aI6
atp16
Rp17
ag1
((lp18
I2
aI3
aI4
aI6
atp19
Rp20
ag1
((lp21
I2
aI4
aI5
atp22
Rp23
ag1
((lp24
I1
aI3
aI4
aI6
atp25
Rp26
atp27
Rp28
I360
sg1
((lp29
g1
((lp30
I1
aI2
aI3
aI4
atp31
Rp32
ag1
((lp33
I1
aI2
aI3
aI5
atp34
Rp35
ag1
((lp36
I2
aI4
aI6
atp37
Rp38
ag1
((lp39
I1
aI2
aI3
aI6
atp40
Rp41
ag1
((lp42
I1
aI3
aI4
aI5
atp43
Rp44
ag1
((lp45
I1
aI2
aI4
aI5
atp46
Rp47
ag1
((lp48
I1
aI4
aI6
atp49
Rp50
ag1
((lp51
I2
aI3
aI4
aI5
atp52
Rp53
atp54
Rp55
I360
sg1
((lp56
g8
ag1
((lp57
I2
aI3
aI4
atp58
Rp59
ag1
((lp60
I1
aI4
aI5
aI6
atp61
Rp62
ag1
((lp63
I3
aI4
aI5
aI6
atp64
Rp65
ag1
((lp66
I1
aI2
aI3
aI6
atp67
Rp68
ag1
((lp69
I1
aI3
aI4
aI5
atp70
Rp71
ag1
((lp72
I2
aI4
aI5
aI6
atp73
Rp74
ag1
((lp75
I1
aI2
aI4
aI5
atp76
Rp77
atp78
Rp79
I90
sg1
((lp80
g1
((lp81
I1
aI3
aI5
aI6
atp82
Rp83
ag1
((lp84
I2
aI3
aI5
aI6
atp85
Rp86
ag1
((lp87
I1
aI2
aI3
aI4
atp88
Rp89
ag1
((lp90
I1
aI2
aI3
aI5
atp91
Rp92
ag1
((lp93
I4
aI5
aI6
atp94
Rp95
ag1
((lp96
I1
aI2
aI6
atp97
Rp98
ag1
((lp99
I1
aI2
aI4
aI5
atp100
Rp101
ag1
((lp102
I2
aI3
aI4
aI5
atp103
Rp104
atp105
Rp106
I720
sg1
((lp107
g1
((lp108
I1
aI2
aI4
aI6
atp109
Rp110
ag1
((lp111
I2
aI3
aI4
aI5
atp112
Rp113
ag1
((lp114
I1
aI2
aI5
aI6
atp115
Rp116
ag1
((lp117
I3
aI5
aI6
atp118
Rp119
ag1
((lp120
I2
aI3
aI4
aI6
atp121
Rp122
ag1
((lp123
I2
aI4
aI5
aI6
atp124
Rp125
ag1
((lp126
I1
aI2
aI3
atp127
Rp128
ag1
((lp129
I1
aI3
aI4
aI6
atp130
Rp131
atp132
Rp133
I360
sg1
((lp134
g1
((lp135
I1
aI2
aI4
aI6
atp136
Rp137
ag1
((lp138
I3
aI4
aI5
aI6
atp139
Rp140
ag1
((lp141
I2
aI3
aI4
aI5
atp142
Rp143
ag1
((lp144
I1
aI2
aI5
atp145
Rp146
ag1
((lp147
I1
aI4
aI5
atp148
Rp149
ag1
((lp150
I1
aI2
aI3
aI6
atp151
Rp152
ag1
((lp153
I2
aI4
aI5
aI6
atp154
Rp155
ag1
((lp156
I1
aI3
aI4
aI6
atp157
Rp158
atp159
Rp160
I720
sg1
((lp161
g1
((lp162
I1
aI3
aI5
aI6
atp163
Rp164
ag1
((lp165
I1
aI2
aI4
aI6
atp166
Rp167
ag1
((lp168
I2
aI3
aI5
aI6
atp169
Rp170
ag1
((lp171
I3
aI4
aI5
aI6
atp172
Rp173
ag149
ag1
((lp174
I1
aI3
aI4
atp175
Rp176
ag1
((lp177
I2
aI4
aI5
aI6
atp178
Rp179
ag1
((lp180
I2
aI3
aI4
aI5
atp181
Rp182
atp183
Rp184
I720
sg1
((lp185
g164
ag170
ag176
ag149
ag1
((lp186
I1
aI2
aI3
aI6
atp187
Rp188
ag1
((lp189
I2
aI3
aI4
aI6
atp190
Rp191
ag179
ag1
((lp192
I1
aI2
aI5
aI6
atp193
Rp194
atp195
Rp196
I360
sg1
((lp197
g1
((lp198
I1
aI3
aI5
aI6
atp199
Rp200
ag5
ag8
ag1
((lp201
I1
aI4
aI5
aI6
atp202
Rp203
ag1
((lp204
I1
aI2
aI3
aI4
atp205
Rp206
ag1
((lp207
I3
aI4
aI5
aI6
atp208
Rp209
ag23
ag26
atp210
Rp211
I720
sg1
((lp212
g1
((lp213
I1
aI3
aI5
atp214
Rp215
ag1
((lp216
I1
aI2
aI4
aI6
atp217
Rp218
ag1
((lp219
I1
aI2
aI3
aI4
atp220
Rp221
ag1
((lp222
I1
aI2
aI3
aI6
atp223
Rp224
ag1
((lp225
I2
aI3
aI4
aI6
atp226
Rp227
ag1
((lp228
I1
aI5
aI6
atp229
Rp230
ag1
((lp231
I2
aI3
aI4
aI5
atp232
Rp233
ag1
((lp234
I1
aI2
aI4
aI5
atp235
Rp236
atp237
Rp238
I720
sg1
((lp239
g1
((lp240
I3
aI4
aI6
atp241
Rp242
ag1
((lp243
I2
aI3
aI6
atp244
Rp245
ag1
((lp246
I1
aI2
aI4
aI6
atp247
Rp248
ag1
((lp249
I1
aI2
aI3
aI4
atp250
Rp251
ag1
((lp252
I1
aI2
aI3
aI5
atp253
Rp254
ag1
((lp255
I1
aI4
aI5
aI6
atp256
Rp257
ag1
((lp258
I2
aI4
aI5
aI6
atp259
Rp260
ag1
((lp261
I2
aI3
aI4
aI5
atp262
Rp263
atp264
Rp265
I180
sg1
((lp266
g1
((lp267
I1
aI2
aI4
aI6
atp268
Rp269
ag8
ag119
ag1
((lp270
I1
aI4
aI5
aI6
atp271
Rp272
ag1
((lp273
I1
aI2
aI5
aI6
atp274
Rp275
ag1
((lp276
I1
aI2
aI3
aI6
atp277
Rp278
ag1
((lp279
I1
aI2
aI4
aI5
atp280
Rp281
ag1
((lp282
I1
aI3
aI4
aI6
atp283
Rp284
atp285
Rp286
I720
sg1
((lp287
g38
ag1
((lp288
I2
aI3
aI5
aI6
atp289
Rp290
ag1
((lp291
I1
aI2
aI3
aI4
atp292
Rp293
ag1
((lp294
I1
aI4
aI5
aI6
atp295
Rp296
ag1
((lp297
I1
aI2
aI5
aI6
atp298
Rp299
ag1
((lp300
I1
aI3
aI4
aI5
atp301
Rp302
ag23
ag1
((lp303
I1
aI3
aI4
aI6
atp304
Rp305
atp306
Rp307
I360
sg1
((lp308
g1
((lp309
I2
aI5
aI6
atp310
Rp311
ag1
((lp312
I2
aI3
aI4
aI5
atp313
Rp314
ag1
((lp315
I1
aI3
aI4
aI5
atp316
Rp317
ag1
((lp318
I1
aI4
aI5
aI6
atp319
Rp320
ag1
((lp321
I2
aI3
aI4
aI6
atp322
Rp323
ag1
((lp324
I1
aI2
aI4
aI5
atp325
Rp326
ag128
ag1
((lp327
I1
aI3
aI4
aI6
atp328
Rp329
atp330
Rp331
I720
sg1
((lp332
g1
((lp333
I1
aI2
aI4
aI6
atp334
Rp335
ag1
((lp336
I2
aI3
aI5
aI6
atp337
Rp338
ag1
((lp339
I2
aI3
aI4
aI6
atp340
Rp341
ag1
((lp342
I1
aI2
aI3
aI5
atp343
Rp344
ag95
ag1
((lp345
I1
aI2
aI5
aI6
atp346
Rp347
ag1
((lp348
I1
aI3
aI4
aI5
atp349
Rp350
ag23
atp351
Rp352
I360
sg1
((lp353
g1
((lp354
I2
aI3
aI5
aI6
atp355
Rp356
ag1
((lp357
I1
aI2
aI3
aI5
atp358
Rp359
ag1
((lp360
I1
aI2
aI4
atp361
Rp362
ag1
((lp363
I1
aI2
aI5
aI6
atp364
Rp365
ag176
ag1
((lp366
I2
aI3
aI4
aI6
atp367
Rp368
ag1
((lp369
I2
aI4
aI5
aI6
atp370
Rp371
ag1
((lp372
I2
aI3
aI4
aI5
atp373
Rp374
atp375
Rp376
I720
sg1
((lp377
g215
ag1
((lp378
I1
aI2
aI4
aI6
atp379
Rp380
ag1
((lp381
I1
aI3
aI6
atp382
Rp383
ag1
((lp384
I1
aI4
aI5
aI6
atp385
Rp386
ag1
((lp387
I1
aI2
aI5
aI6
atp388
Rp389
ag1
((lp390
I1
aI2
aI3
aI4
atp391
Rp392
ag1
((lp393
I2
aI3
aI4
aI6
atp394
Rp395
ag1
((lp396
I2
aI4
aI5
aI6
atp397
Rp398
atp399
Rp400
I360
sg1
((lp401
g245
ag383
ag1
((lp402
I1
aI2
aI3
aI5
atp403
Rp404
ag1
((lp405
I1
aI4
aI5
aI6
atp406
Rp407
ag1
((lp408
I1
aI2
aI5
aI6
atp409
Rp410
ag1
((lp411
I1
aI2
aI3
aI4
atp412
Rp413
ag1
((lp414
I2
aI4
aI5
aI6
atp415
Rp416
ag1
((lp417
I1
aI2
aI4
aI5
atp418
Rp419
atp420
Rp421
I360
sg1
((lp422
g1
((lp423
I1
aI3
aI5
aI6
atp424
Rp425
ag245
ag1
((lp426
I1
aI2
aI4
aI6
atp427
Rp428
ag1
((lp429
I1
aI2
aI3
aI4
atp430
Rp431
ag1
((lp432
I1
aI2
aI3
aI5
atp433
Rp434
ag149
ag1
((lp435
I3
aI4
aI5
aI6
atp436
Rp437
ag1
((lp438
I1
aI3
aI4
aI6
atp439
Rp440
atp441
Rp442
I360
sg1
((lp443
g242
ag1
((lp444
I1
aI3
aI5
aI6
atp445
Rp446
ag8
ag1
((lp447
I1
aI2
aI5
aI6
atp448
Rp449
ag1
((lp450
I1
aI2
aI3
aI4
atp451
Rp452
ag1
((lp453
I1
aI2
aI3
aI6
atp454
Rp455
ag1
((lp456
I1
aI3
aI4
aI5
atp457
Rp458
ag1
((lp459
I2
aI4
aI5
aI6
atp460
Rp461
atp462
Rp463
I360
sg1
((lp464
g311
ag1
((lp465
I1
aI2
aI3
aI4
atp466
Rp467
ag1
((lp468
I1
aI2
aI3
aI5
atp469
Rp470
ag1
((lp471
I3
aI4
aI5
aI6
atp472
Rp473
ag1
((lp474
I1
aI2
aI3
aI6
atp475
Rp476
ag1
((lp477
I1
aI3
aI4
aI5
atp478
Rp479
ag50
ag1
((lp480
I2
aI3
aI4
aI5
atp481
Rp482
atp483
Rp484
I180
sg1
((lp485
g1
((lp486
I1
aI3
aI5
aI6
atp487
Rp488
ag1
((lp489
I1
aI2
aI4
aI6
atp490
Rp491
ag1
((lp492
I3
aI4
aI5
aI6
atp493
Rp494
ag59
ag1
((lp495
I1
aI4
aI5
aI6
atp496
Rp497
ag1
((lp498
I1
aI2
aI3
aI6
atp499
Rp500
ag1
((lp501
I1
aI3
aI4
aI5
atp502
Rp503
ag23
atp504
Rp505
I360
sg1
((lp506
g1
((lp507
I1
aI3
aI5
aI6
atp508
Rp509
ag1
((lp510
I3
aI4
aI5
aI6
atp511
Rp512
ag1
((lp513
I1
aI4
aI5
aI6
atp514
Rp515
ag176
ag1
((lp516
I2
aI3
aI4
aI6
atp517
Rp518
ag1
((lp519
I2
aI4
aI5
aI6
atp520
Rp521
ag1
((lp522
I1
aI2
aI4
aI5
atp523
Rp524
ag128
atp525
Rp526
I360
sg1
((lp527
g1
((lp528
I1
aI3
aI5
aI6
atp529
Rp530
ag1
((lp531
I2
aI3
aI5
aI6
atp532
Rp533
ag1
((lp534
I2
aI3
aI4
aI5
atp535
Rp536
ag362
ag38
ag1
((lp537
I1
aI3
aI4
aI5
atp538
Rp539
ag1
((lp540
I1
aI3
aI4
aI6
atp541
Rp542
ag1
((lp543
I1
aI2
aI5
aI6
atp544
Rp545
atp546
Rp547
I360
sg1
((lp548
g1
((lp549
I1
aI3
aI5
aI6
atp550
Rp551
ag1
((lp552
I1
aI2
aI4
aI6
atp553
Rp554
ag1
((lp555
I3
aI4
aI5
atp556
Rp557
ag1
((lp558
I1
aI2
aI3
aI4
atp559
Rp560
ag1
((lp561
I1
aI2
aI3
aI5
atp562
Rp563
ag95
ag1
((lp564
I1
aI2
aI5
aI6
atp565
Rp566
ag1
((lp567
I1
aI3
aI4
aI6
atp568
Rp569
atp570
Rp571
I180
sg1
((lp572
g1
((lp573
I1
aI2
aI4
aI6
atp574
Rp575
ag1
((lp576
I2
aI3
aI5
aI6
atp577
Rp578
ag557
ag1
((lp579
I1
aI2
aI3
aI5
atp580
Rp581
ag1
((lp582
I1
aI2
aI3
aI6
atp583
Rp584
ag1
((lp585
I2
aI4
aI5
aI6
atp586
Rp587
ag230
ag1
((lp588
I1
aI3
aI4
aI6
atp589
Rp590
atp591
Rp592
I720
sg1
((lp593
g1
((lp594
I1
aI3
aI5
aI6
atp595
Rp596
ag1
((lp597
I2
aI3
aI5
aI6
atp598
Rp599
ag1
((lp600
I3
aI4
aI5
aI6
atp601
Rp602
ag38
ag44
ag50
ag53
ag1
((lp603
I1
aI2
aI5
aI6
atp604
Rp605
atp606
Rp607
I360
sg1
((lp608
g1
((lp609
I1
aI2
aI3
aI4
atp610
Rp611
ag1
((lp612
I2
aI3
aI4
aI5
atp613
Rp614
ag1
((lp615
I1
aI2
aI3
aI5
atp616
Rp617
ag38
ag1
((lp618
I1
aI2
aI3
aI6
atp619
Rp620
ag119
ag1
((lp621
I1
aI3
aI4
aI5
atp622
Rp623
ag1
((lp624
I1
aI3
aI4
aI6
atp625
Rp626
atp627
Rp628
I360
sg1
((lp629
g245
ag1
((lp630
I1
aI2
aI4
aI6
atp631
Rp632
ag1
((lp633
I3
aI4
aI5
aI6
atp634
Rp635
ag1
((lp636
I2
aI3
aI4
aI5
atp637
Rp638
ag1
((lp639
I1
aI3
aI4
aI5
atp640
Rp641
ag1
((lp642
I2
aI4
aI5
aI6
atp643
Rp644
ag230
ag1
((lp645
I1
aI3
aI4
aI6
atp646
Rp647
atp648
Rp649
I360
sg1
((lp650
g1
((lp651
I1
aI3
aI5
aI6
atp652
Rp653
ag1
((lp654
I2
aI3
aI5
aI6
atp655
Rp656
ag557
ag1
((lp657
I1
aI2
aI3
aI6
atp658
Rp659
ag1
((lp660
I2
aI3
aI4
aI6
atp661
Rp662
ag1
((lp663
I2
aI4
aI5
aI6
atp664
Rp665
ag1
((lp666
I1
aI2
aI4
aI5
atp667
Rp668
ag50
atp669
Rp670
I720
sg1
((lp671
g1
((lp672
I1
aI3
aI5
aI6
atp673
Rp674
ag1
((lp675
I2
aI3
aI5
aI6
atp676
Rp677
ag1
((lp678
I3
aI4
aI5
aI6
atp679
Rp680
ag1
((lp681
I1
aI2
aI3
aI5
atp682
Rp683
ag149
ag1
((lp684
I2
aI3
aI4
aI6
atp685
Rp686
ag98
ag1
((lp687
I2
aI3
aI4
aI5
atp688
Rp689
atp690
Rp691
I360
sg1
((lp692
g1
((lp693
I1
aI3
aI5
aI6
atp694
Rp695
ag1
((lp696
I2
aI3
aI5
aI6
atp697
Rp698
ag1
((lp699
I2
aI3
aI4
aI5
atp700
Rp701
ag1
((lp702
I1
aI4
aI5
aI6
atp703
Rp704
ag362
ag146
ag1
((lp705
I2
aI3
aI4
aI6
atp706
Rp707
ag1
((lp708
I1
aI3
aI4
aI6
atp709
Rp710
atp711
Rp712
I180
sg1
((lp713
g5
ag8
ag14
ag209
ag17
ag11
ag23
ag26
atp714
Rp715
I180
sg1
((lp716
g1
((lp717
I2
aI3
aI5
aI6
atp718
Rp719
ag1
((lp720
I3
aI4
aI5
aI6
atp721
Rp722
ag1
((lp723
I2
aI3
aI4
aI6
atp724
Rp725
ag1
((lp726
I1
aI2
aI3
aI5
atp727
Rp728
ag98
ag1
((lp729
I2
aI4
aI5
aI6
atp730
Rp731
ag50
ag1
((lp732
I2
aI3
aI4
aI5
atp733
Rp734
atp735
Rp736
I360
sg1
((lp737
g488
ag494
ag59
ag497
ag1
((lp738
I1
aI2
aI5
aI6
atp739
Rp740
ag500
ag503
ag23
atp741
Rp742
I360
sg1
((lp743
g269
ag8
ag275
ag1
((lp744
I1
aI2
aI3
aI4
atp745
Rp746
ag278
ag1
((lp747
I2
aI3
aI4
aI6
atp748
Rp749
ag1
((lp750
I2
aI4
aI5
aI6
atp751
Rp752
ag119
atp753
Rp754
I360
sg1
((lp755
g1
((lp756
I1
aI3
aI5
aI6
atp757
Rp758
ag1
((lp759
I3
aI4
aI5
aI6
atp760
Rp761
ag59
ag1
((lp762
I1
aI4
aI5
aI6
atp763
Rp764
ag1
((lp765
I1
aI3
aI4
aI5
atp766
Rp767
ag98
ag1
((lp768
I1
aI2
aI4
aI5
atp769
Rp770
ag1
((lp771
I1
aI3
aI4
aI6
atp772
Rp773
atp774
Rp775
I360
sg1
((lp776
g1
((lp777
I1
aI3
aI5
aI6
atp778
Rp779
ag311
ag1
((lp780
I1
aI4
aI5
aI6
atp781
Rp782
ag38
ag1
((lp783
I1
aI2
aI3
aI6
atp784
Rp785
ag1
((lp786
I1
aI3
aI4
aI5
atp787
Rp788
ag1
((lp789
I1
aI2
aI4
aI5
atp790
Rp791
ag1
((lp792
I1
aI3
aI4
aI6
atp793
Rp794
atp795
Rp796
I360
sg1
((lp797
g215
ag1
((lp798
I1
aI2
aI4
aI6
atp799
Rp800
ag8
ag1
((lp801
I1
aI2
aI5
aI6
atp802
Rp803
ag1
((lp804
I3
aI4
aI5
aI6
atp805
Rp806
ag1
((lp807
I1
aI2
aI3
aI6
atp808
Rp809
ag1
((lp810
I2
aI4
aI5
aI6
atp811
Rp812
ag1
((lp813
I1
aI3
aI4
aI6
atp814
Rp815
atp816
Rp817
I360
sg1
((lp818
g290
ag293
ag1
((lp819
I1
aI2
aI3
aI5
atp820
Rp821
ag296
ag38
ag1
((lp822
I1
aI2
aI3
aI6
atp823
Rp824
ag23
ag305
atp825
Rp826
I720
sg1
((lp827
g1
((lp828
I1
aI3
aI5
aI6
atp829
Rp830
ag311
ag1
((lp831
I1
aI2
aI3
aI4
atp832
Rp833
ag1
((lp834
I2
aI3
aI4
aI5
atp835
Rp836
ag1
((lp837
I1
aI2
aI3
aI5
atp838
Rp839
ag149
ag1
((lp840
I3
aI4
aI5
aI6
atp841
Rp842
ag1
((lp843
I1
aI3
aI4
aI6
atp844
Rp845
atp846
Rp847
I180
sg1
((lp848
g425
ag245
ag428
ag1
((lp849
I2
aI3
aI4
aI5
atp850
Rp851
ag434
ag149
ag1
((lp852
I2
aI4
aI5
aI6
atp853
Rp854
ag440
atp855
Rp856
I60
sg1
((lp857
g1
((lp858
I1
aI3
aI5
aI6
atp859
Rp860
ag137
ag1
((lp861
I2
aI3
aI5
aI6
atp862
Rp863
ag1
((lp864
I1
aI2
aI3
aI4
atp865
Rp866
ag146
ag149
ag140
ag158
atp867
Rp868
I360
sg1
((lp869
g242
ag245
ag248
ag1
((lp870
I1
aI3
aI5
aI6
atp871
Rp872
ag251
ag257
ag1
((lp873
I1
aI3
aI4
aI5
atp874
Rp875
ag1
((lp876
I1
aI2
aI4
aI5
atp877
Rp878
atp879
Rp880
I360
sg1
((lp881
g215
ag1
((lp882
I1
aI2
aI4
aI6
atp883
Rp884
ag1
((lp885
I3
aI4
aI5
aI6
atp886
Rp887
ag1
((lp888
I2
aI3
aI4
aI5
atp889
Rp890
ag1
((lp891
I1
aI4
aI5
aI6
atp892
Rp893
ag1
((lp894
I1
aI2
aI4
aI5
atp895
Rp896
ag128
ag1
((lp897
I1
aI3
aI4
aI6
atp898
Rp899
atp900
Rp901
I720
sg1
((lp902
g1
((lp903
I1
aI3
aI5
aI6
atp904
Rp905
ag176
ag1
((lp906
I1
aI2
aI4
aI6
atp907
Rp908
ag1
((lp909
I1
aI2
aI3
aI5
atp910
Rp911
ag1
((lp912
I1
aI4
aI5
aI6
atp913
Rp914
ag59
ag1
((lp915
I1
aI2
aI3
aI6
atp916
Rp917
ag1
((lp918
I1
aI2
aI4
aI5
atp919
Rp920
atp921
Rp922
I180
sg1
((lp923
g1
((lp924
I1
aI2
aI4
aI6
atp925
Rp926
ag1
((lp927
I3
aI4
aI5
aI6
atp928
Rp929
ag59
ag1
((lp930
I1
aI2
aI3
aI6
atp931
Rp932
ag1
((lp933
I1
aI3
aI4
aI5
atp934
Rp935
ag1
((lp936
I2
aI4
aI5
aI6
atp937
Rp938
ag230
ag1
((lp939
I1
aI2
aI4
aI5
atp940
Rp941
atp942
Rp943
I360
sg1
((lp944
g215
ag218
ag221
ag233
ag224
ag1
((lp945
I2
aI4
aI5
aI6
atp946
Rp947
ag230
ag1
((lp948
I1
aI3
aI4
aI6
atp949
Rp950
atp951
Rp952
I180
sg1
((lp953
g674
ag677
ag680
ag683
ag149
ag686
ag98
ag1
((lp954
I1
aI3
aI4
aI6
atp955
Rp956
atp957
Rp958
I720
sg1
((lp959
g830
ag311
ag833
ag149
ag842
ag1
((lp960
I1
aI2
aI3
aI6
atp961
Rp962
ag836
ag1
((lp963
I1
aI2
aI4
aI6
atp964
Rp965
atp966
Rp967
I360
sg1
((lp968
g215
ag1
((lp969
I1
aI2
aI3
aI4
atp970
Rp971
ag1
((lp972
I2
aI3
aI4
aI5
atp973
Rp974
ag1
((lp975
I1
aI2
aI5
aI6
atp976
Rp977
ag1
((lp978
I1
aI2
aI3
aI6
atp979
Rp980
ag119
ag1
((lp981
I2
aI4
aI5
aI6
atp982
Rp983
ag1
((lp984
I1
aI3
aI4
aI6
atp985
Rp986
atp987
Rp988
I720
sg1
((lp989
g1
((lp990
I2
aI3
aI5
aI6
atp991
Rp992
ag494
ag59
ag497
ag740
ag503
ag23
ag1
((lp993
I1
aI3
aI4
aI6
atp994
Rp995
atp996
Rp997
I720
sg1
((lp998
g1
((lp999
I2
aI3
aI5
aI6
atp1000
Rp1001
ag1
((lp1002
I3
aI4
aI5
aI6
atp1003
Rp1004
ag59
ag914
ag911
ag1
((lp1005
I1
aI2
aI5
aI6
atp1006
Rp1007
ag176
ag1
((lp1008
I2
aI4
aI5
aI6
atp1009
Rp1010
atp1011
Rp1012
I720
sg1
((lp1013
g1
((lp1014
I1
aI3
aI4
aI5
atp1015
Rp1016
ag1
((lp1017
I1
aI2
aI3
aI5
atp1018
Rp1019
ag1
((lp1020
I2
aI3
aI4
aI6
atp1021
Rp1022
ag1
((lp1023
I2
aI4
aI5
aI6
atp1024
Rp1025
ag230
ag1
((lp1026
I2
aI3
aI4
aI5
atp1027
Rp1028
ag1
((lp1029
I1
aI2
aI4
aI5
atp1030
Rp1031
ag98
atp1032
Rp1033
I720
sg1
((lp1034
g38
ag215
ag1
((lp1035
I1
aI2
aI3
aI4
atp1036
Rp1037
ag1
((lp1038
I1
aI4
aI5
aI6
atp1039
Rp1040
ag1
((lp1041
I1
aI2
aI5
aI6
atp1042
Rp1043
ag1
((lp1044
I1
aI2
aI3
aI6
atp1045
Rp1046
ag1
((lp1047
I1
aI2
aI4
aI5
atp1048
Rp1049
ag1
((lp1050
I1
aI3
aI4
aI6
atp1051
Rp1052
atp1053
Rp1054
I60
sg1
((lp1055
g245
ag1
((lp1056
I2
aI3
aI4
aI5
atp1057
Rp1058
ag1
((lp1059
I1
aI2
aI3
aI5
atp1060
Rp1061
ag1
((lp1062
I1
aI4
aI5
aI6
atp1063
Rp1064
ag119
ag1
((lp1065
I2
aI4
aI5
aI6
atp1066
Rp1067
ag1
((lp1068
I1
aI2
aI4
aI5
atp1069
Rp1070
ag1
((lp1071
I1
aI3
aI4
aI6
atp1072
Rp1073
atp1074
Rp1075
I720
sg1
((lp1076
g215
ag1
((lp1077
I2
aI3
aI5
aI6
atp1078
Rp1079
ag1
((lp1080
I1
aI2
aI3
aI4
atp1081
Rp1082
ag1
((lp1083
I1
aI2
aI5
aI6
atp1084
Rp1085
ag1
((lp1086
I3
aI4
aI5
aI6
atp1087
Rp1088
ag1
((lp1089
I2
aI3
aI4
aI6
atp1090
Rp1091
ag1
((lp1092
I2
aI4
aI5
aI6
atp1093
Rp1094
ag50
atp1095
Rp1096
I720
sg1
((lp1097
g1
((lp1098
I1
aI3
aI5
aI6
atp1099
Rp1100
ag311
ag1
((lp1101
I3
aI4
aI5
aI6
atp1102
Rp1103
ag1
((lp1104
I1
aI4
aI5
aI6
atp1105
Rp1106
ag1
((lp1107
I2
aI3
aI4
aI6
atp1108
Rp1109
ag98
ag1
((lp1110
I1
aI2
aI4
aI5
atp1111
Rp1112
ag1
((lp1113
I1
aI3
aI4
aI6
atp1114
Rp1115
atp1116
Rp1117
I360
sg1
((lp1118
g1
((lp1119
I1
aI2
aI4
aI6
atp1120
Rp1121
ag383
ag1
((lp1122
I1
aI4
aI5
aI6
atp1123
Rp1124
ag1
((lp1125
I1
aI2
aI5
aI6
atp1126
Rp1127
ag1
((lp1128
I2
aI3
aI4
aI6
atp1129
Rp1130
ag1
((lp1131
I2
aI4
aI5
aI6
atp1132
Rp1133
ag1
((lp1134
I1
aI2
aI4
aI5
atp1135
Rp1136
ag119
atp1137
Rp1138
I180
sg1
((lp1139
g245
ag1
((lp1140
I1
aI2
aI4
aI6
atp1141
Rp1142
ag383
ag404
ag413
ag416
ag1
((lp1143
I3
aI4
aI5
aI6
atp1144
Rp1145
ag1
((lp1146
I2
aI3
aI4
aI5
atp1147
Rp1148
atp1149
Rp1150
I720
sg1
((lp1151
g1
((lp1152
I1
aI3
aI5
aI6
atp1153
Rp1154
ag1
((lp1155
I2
aI3
aI5
aI6
atp1156
Rp1157
ag1
((lp1158
I3
aI4
aI5
aI6
atp1159
Rp1160
ag1
((lp1161
I2
aI3
aI4
aI5
atp1162
Rp1163
ag1
((lp1164
I1
aI4
aI5
aI6
atp1165
Rp1166
ag38
ag98
ag1
((lp1167
I1
aI3
aI4
aI6
atp1168
Rp1169
atp1170
Rp1171
I360
sg1
((lp1172
g8
ag176
ag1
((lp1173
I1
aI4
aI5
aI6
atp1174
Rp1175
ag1
((lp1176
I1
aI2
aI5
aI6
atp1177
Rp1178
ag1
((lp1179
I1
aI2
aI3
aI6
atp1180
Rp1181
ag1
((lp1182
I2
aI3
aI4
aI6
atp1183
Rp1184
ag1
((lp1185
I2
aI4
aI5
aI6
atp1186
Rp1187
ag1
((lp1188
I1
aI2
aI4
aI5
atp1189
Rp1190
atp1191
Rp1192
I360
sg1
((lp1193
g245
ag1
((lp1194
I1
aI2
aI3
aI4
atp1195
Rp1196
ag1
((lp1197
I2
aI3
aI4
aI5
atp1198
Rp1199
ag1
((lp1200
I1
aI2
aI3
aI5
atp1201
Rp1202
ag38
ag1
((lp1203
I3
aI4
aI5
aI6
atp1204
Rp1205
ag1
((lp1206
I1
aI2
aI4
aI5
atp1207
Rp1208
ag1
((lp1209
I1
aI3
aI4
aI6
atp1210
Rp1211
atp1212
Rp1213
I180
sg1
((lp1214
g242
ag1
((lp1215
I2
aI3
aI5
aI6
atp1216
Rp1217
ag383
ag1
((lp1218
I1
aI2
aI3
aI5
atp1219
Rp1220
ag1
((lp1221
I1
aI2
aI5
aI6
atp1222
Rp1223
ag1
((lp1224
I2
aI4
aI5
aI6
atp1225
Rp1226
ag1
((lp1227
I1
aI2
aI4
aI5
atp1228
Rp1229
ag1
((lp1230
I2
aI3
aI4
aI5
atp1231
Rp1232
atp1233
Rp1234
I90
s.