(dp0
c__builtin__
frozenset
p1
((lp2
g1
((lp3
I1
aI2
aI3
atp4
Rp5
ag1
((lp6
I2
aI5
aI6
atp7
Rp8
ag1
((lp9
I2
aI3
aI5
atp10
Rp11
ag1
((lp12
I3
aI5
aI6
atp13
Rp14
ag1
((lp15
I2
aI3
aI4
atp16
Rp17
ag1
((lp18
I1
aI2
aI5
atp19
Rp20
ag1
((lp21
I1
aI3
aI4
aI5
atp22
Rp23
ag1
((lp24
I1
aI2
aI6
atp25
Rp26
ag1
((lp27
I1
aI5
aI6
atp28
Rp29
ag1
((lp30
I2
aI4
aI5
atp31
Rp32
ag1
((lp33
I1
aI3
aI4
aI6
atp34
Rp35
atp36
Rp37
I720
sg1
((lp38
g1
((lp39
I3
aI4
aI6
atp40
Rp41
ag1
((lp42
I1
aI4
aI6
atp43
Rp44
ag1
((lp45
I3
aI4
aI5
atp46
Rp47
ag1
((lp48
I1
aI3
aI5
aI6
atp49
Rp50
ag11
ag1
((lp51
I1
aI2
aI4
atp52
Rp53
ag1
((lp54
I1
aI4
aI5
atp55
Rp56
ag1
((lp57
I1
aI3
aI4
atp58
Rp59
ag32
ag1
((lp60
I4
aI5
aI6
atp61
Rp62
ag1
((lp63
I1
aI2
aI5
aI6
atp64
Rp65
atp66
Rp67
I720
sg1
((lp68
g1
((lp69
I1
aI3
aI5
atp70
Rp71
ag47
ag11
ag62
ag1
((lp72
I2
aI4
aI6
atp73
Rp74
ag1
((lp75
I1
aI2
aI3
aI4
atp76
Rp77
ag1
((lp78
I2
aI3
aI6
atp79
Rp80
ag26
ag1
((lp81
I1
aI2
aI4
aI5
atp82
Rp83
ag44
ag14
atp84
Rp85
I360
sg1
((lp86
g41
ag1
((lp87
I2
aI3
aI5
aI6
atp88
Rp89
ag47
ag1
((lp90
I1
aI3
aI5
aI6
atp91
Rp92
ag17
ag53
ag74
ag59
ag26
ag62
ag5
atp93
Rp94
I720
sg1
((lp95
g41
ag80
ag47
ag1
((lp96
I1
aI3
aI5
aI6
atp97
Rp98
ag11
ag20
ag59
ag1
((lp99
I1
aI4
aI5
aI6
atp100
Rp101
ag26
ag32
ag5
atp102
Rp103
I720
sg1
((lp104
g74
ag71
ag1
((lp105
I2
aI3
aI5
aI6
atp106
Rp107
ag47
ag1
((lp108
I1
aI3
aI6
atp109
Rp110
ag5
ag53
ag1
((lp111
I1
aI2
aI5
aI6
atp112
Rp113
ag59
ag44
ag62
atp114
Rp115
I720
sg1
((lp116
g71
ag8
ag47
ag11
ag20
ag74
ag1
((lp117
I1
aI2
aI3
aI4
atp118
Rp119
ag80
ag26
ag29
ag1
((lp120
I1
aI3
aI4
aI6
atp121
Rp122
atp123
Rp124
I720
sg1
((lp125
g41
ag71
ag1
((lp126
I1
aI2
aI4
aI6
atp127
Rp128
ag47
ag110
ag17
ag62
ag1
((lp129
I1
aI2
aI5
aI6
atp130
Rp131
ag11
ag80
ag32
atp132
Rp133
I720
sg1
((lp134
g71
ag47
ag11
ag14
ag62
ag56
ag1
((lp135
I1
aI2
aI3
aI4
atp136
Rp137
ag26
ag29
ag32
ag1
((lp138
I1
aI3
aI4
aI6
atp139
Rp140
atp141
Rp142
I360
sg1
((lp143
g71
ag1
((lp144
I2
aI3
aI5
aI6
atp145
Rp146
ag47
ag20
ag53
ag59
ag44
ag1
((lp147
I2
aI3
aI4
aI6
atp148
Rp149
ag29
ag32
ag5
atp150
Rp151
I180
sg1
((lp152
g44
ag8
ag1
((lp153
I3
aI4
aI5
aI6
atp154
Rp155
ag17
ag20
ag53
ag74
ag1
((lp156
I1
aI3
aI4
aI5
atp157
Rp158
ag26
ag32
ag5
atp159
Rp160
I720
sg1
((lp161
g41
ag1
((lp162
I1
aI2
aI4
aI6
atp163
Rp164
ag47
ag110
ag17
ag20
ag62
ag1
((lp165
I2
aI3
aI5
aI6
atp166
Rp167
ag56
ag29
ag32
atp168
Rp169
I360
sg1
((lp170
g80
ag110
ag17
ag53
ag11
ag1
((lp171
I1
aI3
aI4
aI5
atp172
Rp173
ag1
((lp174
I2
aI4
aI5
aI6
atp175
Rp176
ag29
ag44
ag14
ag26
atp177
Rp178
I720
sg1
((lp179
g56
ag1
((lp180
I2
aI3
aI5
aI6
atp181
Rp182
ag1
((lp183
I3
aI4
aI5
aI6
atp184
Rp185
ag17
ag20
ag53
ag74
ag26
ag29
ag44
ag5
atp186
Rp187
I720
sg1
((lp188
g8
ag47
ag14
ag59
ag20
ag53
ag56
ag1
((lp189
I1
aI2
aI3
aI6
atp190
Rp191
ag1
((lp192
I2
aI3
aI4
aI6
atp193
Rp194
ag32
ag62
atp195
Rp196
I720
sg1
((lp197
g56
ag71
ag11
ag14
ag20
ag74
ag1
((lp198
I1
aI2
aI3
aI4
atp199
Rp200
ag80
ag29
ag32
ag1
((lp201
I1
aI3
aI4
aI6
atp202
Rp203
atp204
Rp205
I720
sg1
((lp206
g44
ag8
ag110
ag1
((lp207
I1
aI3
aI4
aI5
atp208
Rp209
ag20
ag53
ag1
((lp210
I2
aI3
aI4
aI6
atp211
Rp212
ag26
ag29
ag32
ag14
atp213
Rp214
I720
sg1
((lp215
g1
((lp216
I1
aI3
aI5
aI6
atp217
Rp218
ag8
ag11
ag5
ag17
ag53
ag74
ag56
ag26
ag32
ag1
((lp219
I1
aI3
aI4
aI6
atp220
Rp221
atp222
Rp223
I360
sg1
((lp224
g41
ag71
ag11
ag59
ag53
ag56
ag1
((lp225
I1
aI2
aI3
aI6
atp226
Rp227
ag44
ag32
ag14
ag1
((lp228
I1
aI2
aI5
aI6
atp229
Rp230
atp231
Rp232
I360
sg1
((lp233
g41
ag71
ag1
((lp234
I2
aI3
aI5
aI6
atp235
Rp236
ag47
ag17
ag20
ag53
ag1
((lp237
I1
aI2
aI3
aI6
atp238
Rp239
ag44
ag29
ag32
atp240
Rp241
I720
sg1
((lp242
g1
((lp243
I1
aI3
aI5
aI6
atp244
Rp245
ag47
ag11
ag5
ag17
ag20
ag62
ag74
ag26
ag32
ag1
((lp246
I1
aI3
aI4
aI6
atp247
Rp248
atp249
Rp250
I720
sg1
((lp251
g1
((lp252
I1
aI2
aI3
aI6
atp253
Rp254
ag1
((lp255
I2
aI3
aI5
aI6
atp256
Rp257
ag47
ag17
ag20
ag53
ag74
ag59
ag44
ag29
ag32
atp258
Rp259
I720
sg1
((lp260
g1
((lp261
I1
aI3
aI5
aI6
atp262
Rp263
ag80
ag8
ag47
ag17
ag53
ag74
ag59
ag56
ag1
((lp264
I1
aI2
aI3
aI5
atp265
Rp266
ag44
atp267
Rp268
I720
sg1
((lp269
g41
ag44
ag8
ag1
((lp270
I1
aI2
aI3
aI4
atp271
Rp272
ag1
((lp273
I1
aI2
aI3
aI5
atp274
Rp275
ag62
ag74
ag56
ag26
ag29
ag32
atp276
Rp277
I360
sg1
((lp278
g80
ag8
ag11
ag14
ag17
ag20
ag53
ag1
((lp279
I1
aI3
aI4
aI5
atp280
Rp281
ag26
ag32
ag1
((lp282
I1
aI3
aI4
aI6
atp283
Rp284
atp285
Rp286
I720
sg1
((lp287
g41
ag71
ag110
ag17
ag1
((lp288
I1
aI4
aI5
aI6
atp289
Rp290
ag74
ag11
ag59
ag26
ag1
((lp291
I1
aI2
aI4
aI5
atp292
Rp293
ag14
atp294
Rp295
I720
sg1
((lp296
g41
ag1
((lp297
I1
aI2
aI4
aI6
atp298
Rp299
ag47
ag110
ag5
ag17
ag20
ag11
ag59
ag1
((lp300
I2
aI4
aI5
aI6
atp301
Rp302
ag14
atp303
Rp304
I360
sg1
((lp305
g80
ag8
ag110
ag17
ag20
ag74
ag11
ag1
((lp306
I1
aI4
aI5
aI6
atp307
Rp308
ag1
((lp309
I3
aI4
aI5
aI6
atp310
Rp311
ag32
ag5
atp312
Rp313
I720
sg1
((lp314
g1
((lp315
I1
aI3
aI5
aI6
atp316
Rp317
ag80
ag47
ag11
ag5
ag17
ag53
ag1
((lp318
I1
aI2
aI5
aI6
atp319
Rp320
ag44
ag32
ag62
atp321
Rp322
I720
sg1
((lp323
g41
ag71
ag1
((lp324
I1
aI2
aI4
aI6
atp325
Rp326
ag47
ag110
ag17
ag1
((lp327
I1
aI2
aI5
aI6
atp328
Rp329
ag59
ag80
ag32
ag14
atp330
Rp331
I720
sg1
((lp332
g41
ag71
ag8
ag11
ag17
ag20
ag80
ag1
((lp333
I1
aI4
aI5
aI6
atp334
Rp335
ag32
ag14
ag1
((lp336
I1
aI2
aI4
aI6
atp337
Rp338
atp339
Rp340
I720
sg1
((lp341
g71
ag1
((lp342
I2
aI3
aI5
aI6
atp343
Rp344
ag47
ag20
ag53
ag56
ag59
ag1
((lp345
I2
aI3
aI4
aI6
atp346
Rp347
ag62
ag32
ag5
atp348
Rp349
I180
sg1
((lp350
g71
ag8
ag1
((lp351
I3
aI4
aI5
aI6
atp352
Rp353
ag20
ag53
ag56
ag59
ag1
((lp354
I2
aI3
aI4
aI6
atp355
Rp356
ag26
ag29
ag32
atp357
Rp358
I720
sg1
((lp359
g41
ag47
ag110
ag17
ag1
((lp360
I1
aI4
aI5
aI6
atp361
Rp362
ag53
ag74
ag59
ag1
((lp363
I1
aI2
aI3
aI5
atp364
Rp365
ag32
ag14
atp366
Rp367
I360
sg1
((lp368
g71
ag8
ag110
ag14
ag20
ag62
ag59
ag1
((lp369
I2
aI3
aI4
aI6
atp370
Rp371
ag26
ag53
ag1
((lp372
I2
aI3
aI4
aI5
atp373
Rp374
atp375
Rp376
I180
sg1
((lp377
g71
ag1
((lp378
I2
aI3
aI5
aI6
atp379
Rp380
ag47
ag5
ag17
ag53
ag74
ag26
ag29
ag62
ag1
((lp381
I1
aI3
aI4
aI6
atp382
Rp383
atp384
Rp385
I180
sg1
((lp386
g41
ag1
((lp387
I2
aI3
aI5
aI6
atp388
Rp389
ag110
ag17
ag20
ag53
ag1
((lp390
I1
aI3
aI4
aI5
atp391
Rp392
ag26
ag29
ag44
ag5
atp393
Rp394
I360
sg1
((lp395
g41
ag71
ag110
ag5
ag17
ag1
((lp396
I1
aI4
aI5
aI6
atp397
Rp398
ag1
((lp399
I1
aI2
aI5
aI6
atp400
Rp401
ag59
ag80
ag32
ag14
atp402
Rp403
I180
sg1
((lp404
g80
ag8
ag110
ag17
ag11
ag1
((lp405
I1
aI3
aI4
aI5
atp406
Rp407
ag26
ag29
ag44
ag14
ag1
((lp408
I1
aI2
aI4
aI5
atp409
Rp410
atp411
Rp412
I360
sg1
((lp413
g71
ag11
ag17
ag74
ag1
((lp414
I3
aI4
aI5
aI6
atp415
Rp416
ag59
ag80
ag26
ag1
((lp417
I1
aI2
aI4
aI5
atp418
Rp419
ag44
ag5
atp420
Rp421
I720
sg1
((lp422
g71
ag8
ag110
ag53
ag56
ag1
((lp423
I3
aI4
aI5
aI6
atp424
Rp425
ag1
((lp426
I2
aI3
aI4
aI6
atp427
Rp428
ag26
ag29
ag44
ag5
atp429
Rp430
I180
sg1
((lp431
g41
ag1
((lp432
I2
aI3
aI5
aI6
atp433
Rp434
ag47
ag110
ag1
((lp435
I1
aI2
aI3
aI5
atp436
Rp437
ag62
ag74
ag56
ag26
ag29
ag44
atp438
Rp439
I720
sg1
((lp440
g71
ag47
ag110
ag5
ag1
((lp441
I1
aI2
aI5
aI6
atp442
Rp443
ag11
ag59
ag44
ag1
((lp444
I2
aI3
aI4
aI6
atp445
Rp446
ag32
ag14
atp447
Rp448
I360
sg1
((lp449
g71
ag1
((lp450
I2
aI3
aI5
aI6
atp451
Rp452
ag110
ag5
ag20
ag53
ag56
ag59
ag26
ag29
ag1
((lp453
I2
aI3
aI4
aI5
atp454
Rp455
atp456
Rp457
I60
sg1
((lp458
g71
ag1
((lp459
I3
aI4
aI5
aI6
atp460
Rp461
ag5
ag20
ag53
ag74
ag59
ag80
ag26
ag29
ag1
((lp462
I2
aI3
aI4
aI5
atp463
Rp464
atp465
Rp466
I720
sg1
((lp467
g56
ag1
((lp468
I1
aI2
aI3
aI6
atp469
Rp470
ag1
((lp471
I2
aI3
aI5
aI6
atp472
Rp473
ag47
ag17
ag20
ag74
ag59
ag44
ag29
ag32
atp474
Rp475
I720
sg1
((lp476
g41
ag5
ag80
ag8
ag1
((lp477
I2
aI3
aI4
aI5
atp478
Rp479
ag53
ag74
ag1
((lp480
I1
aI3
aI4
aI5
atp481
Rp482
ag26
ag62
ag14
atp483
Rp484
I360
sg1
((lp485
g41
ag80
ag8
ag11
ag17
ag20
ag53
ag74
ag1
((lp486
I1
aI4
aI5
aI6
atp487
Rp488
ag1
((lp489
I1
aI3
aI4
aI5
atp490
Rp491
ag14
atp492
Rp493
I180
sg1
((lp494
g80
ag8
ag14
ag20
ag53
ag74
ag1
((lp495
I2
aI3
aI4
aI5
atp496
Rp497
ag5
ag29
ag62
ag1
((lp498
I1
aI3
aI4
aI6
atp499
Rp500
atp501
Rp502
I360
sg1
((lp503
g1
((lp504
I1
aI3
aI5
aI6
atp505
Rp506
ag80
ag8
ag47
ag1
((lp507
I1
aI2
aI3
aI5
atp508
Rp509
ag62
ag74
ag59
ag56
ag26
ag44
atp510
Rp511
I360
sg1
((lp512
g71
ag8
ag47
ag20
ag53
ag74
ag80
ag1
((lp513
I1
aI4
aI5
aI6
atp514
Rp515
ag26
ag32
ag1
((lp516
I1
aI3
aI4
aI6
atp517
Rp518
atp519
Rp520
I360
sg1
((lp521
g41
ag80
ag8
ag47
ag110
ag1
((lp522
I1
aI2
aI3
aI5
atp523
Rp524
ag74
ag1
((lp525
I1
aI2
aI3
aI4
atp526
Rp527
ag44
ag26
ag32
atp528
Rp529
I720
sg1
((lp530
g41
ag80
ag47
ag110
ag17
ag1
((lp531
I1
aI4
aI5
aI6
atp532
Rp533
ag53
ag74
ag59
ag1
((lp534
I1
aI2
aI3
aI5
atp535
Rp536
ag32
atp537
Rp538
I720
sg1
((lp539
g56
ag80
ag8
ag110
ag1
((lp540
I1
aI2
aI3
aI5
atp541
Rp542
ag53
ag74
ag59
ag26
ag44
ag1
((lp543
I2
aI3
aI4
aI5
atp544
Rp545
atp546
Rp547
I720
sg1
((lp548
g41
ag1
((lp549
I2
aI3
aI5
aI6
atp550
Rp551
ag47
ag1
((lp552
I1
aI3
aI5
aI6
atp553
Rp554
ag17
ag20
ag62
ag74
ag59
ag44
ag5
atp555
Rp556
I360
sg1
((lp557
g41
ag80
ag110
ag20
ag62
ag74
ag1
((lp558
I1
aI2
aI3
aI4
atp559
Rp560
ag56
ag29
ag44
ag1
((lp561
I2
aI3
aI4
aI5
atp562
Rp563
atp564
Rp565
I720
sg1
((lp566
g80
ag47
ag11
ag5
ag17
ag62
ag74
ag26
ag29
ag1
((lp567
I1
aI3
aI4
aI6
atp568
Rp569
ag1
((lp570
I1
aI2
aI4
aI5
atp571
Rp572
atp573
Rp574
I720
sg1
((lp575
g1
((lp576
I1
aI3
aI5
aI6
atp577
Rp578
ag80
ag8
ag11
ag5
ag17
ag20
ag62
ag56
ag32
ag1
((lp579
I1
aI3
aI4
aI6
atp580
Rp581
atp582
Rp583
I360
sg1
((lp584
g80
ag110
ag20
ag53
ag1
((lp585
I3
aI4
aI5
aI6
atp586
Rp587
ag44
ag1
((lp588
I1
aI3
aI4
aI5
atp589
Rp590
ag26
ag29
ag32
ag5
atp591
Rp592
I360
sg1
((lp593
g44
ag8
ag1
((lp594
I1
aI2
aI3
aI5
atp595
Rp596
ag62
ag56
ag59
ag1
((lp597
I2
aI3
aI4
aI6
atp598
Rp599
ag26
ag29
ag32
ag14
atp600
Rp601
I360
sg1
((lp602
g5
ag71
ag8
ag47
ag14
ag53
ag56
ag1
((lp603
I2
aI3
aI4
aI6
atp604
Rp605
ag26
ag62
ag1
((lp606
I1
aI3
aI4
aI6
atp607
Rp608
atp609
Rp610
I360
sg1
((lp611
g71
ag8
ag47
ag11
ag59
ag20
ag56
ag1
((lp612
I1
aI2
aI3
aI6
atp613
Rp614
ag1
((lp615
I2
aI3
aI4
aI6
atp616
Rp617
ag29
ag14
atp618
Rp619
I360
sg1
((lp620
g1
((lp621
I2
aI3
aI5
aI6
atp622
Rp623
ag47
ag110
ag20
ag56
ag59
ag1
((lp624
I2
aI3
aI4
aI6
atp625
Rp626
ag26
ag29
ag32
ag5
atp627
Rp628
I720
sg1
((lp629
g80
ag8
ag11
ag14
ag17
ag20
ag53
ag1
((lp630
I1
aI3
aI4
aI5
atp631
Rp632
ag26
ag62
ag1
((lp633
I1
aI3
aI4
aI6
atp634
Rp635
atp636
Rp637
I360
sg1
((lp638
g41
ag80
ag17
ag53
ag56
ag59
ag44
ag1
((lp639
I1
aI2
aI3
aI5
atp640
Rp641
ag32
ag62
ag1
((lp642
I1
aI2
aI5
aI6
atp643
Rp644
atp645
Rp646
I720
sg1
((lp647
g71
ag8
ag110
ag17
ag1
((lp648
I1
aI4
aI5
aI6
atp649
Rp650
ag11
ag59
ag80
ag1
((lp651
I3
aI4
aI5
aI6
atp652
Rp653
ag32
ag5
atp654
Rp655
I360
sg1
((lp656
g41
ag71
ag110
ag14
ag20
ag53
ag56
ag59
ag26
ag1
((lp657
I2
aI4
aI5
aI6
atp658
Rp659
ag1
((lp660
I2
aI3
aI4
aI5
atp661
Rp662
atp663
Rp664
I360
sg1
((lp665
g41
ag71
ag47
ag11
ag62
ag56
ag1
((lp666
I1
aI2
aI3
aI4
atp667
Rp668
ag1
((lp669
I1
aI2
aI3
aI6
atp670
Rp671
ag29
ag44
ag14
atp672
Rp673
I360
sg1
((lp674
g41
ag44
ag110
ag14
ag17
ag53
ag1
((lp675
I1
aI2
aI5
aI6
atp676
Rp677
ag11
ag1
((lp678
I1
aI3
aI4
aI5
atp679
Rp680
ag32
ag62
atp681
Rp682
I720
sg1
((lp683
g41
ag80
ag47
ag1
((lp684
I1
aI3
aI5
aI6
atp685
Rp686
ag11
ag53
ag74
ag56
ag32
ag62
ag1
((lp687
I1
aI2
aI5
aI6
atp688
Rp689
atp690
Rp691
I720
sg1
((lp692
g56
ag71
ag1
((lp693
I2
aI3
aI5
aI6
atp694
Rp695
ag47
ag17
ag20
ag62
ag74
ag1
((lp696
I1
aI2
aI3
aI6
atp697
Rp698
ag29
ag53
atp699
Rp700
I360
sg1
((lp701
g41
ag71
ag8
ag47
ag110
ag62
ag74
ag1
((lp702
I1
aI2
aI3
aI4
atp703
Rp704
ag26
ag29
ag1
((lp705
I1
aI2
aI4
aI5
atp706
Rp707
atp708
Rp709
I360
sg1
((lp710
g71
ag1
((lp711
I1
aI2
aI4
aI6
atp712
Rp713
ag47
ag110
ag5
ag56
ag11
ag59
ag80
ag1
((lp714
I2
aI4
aI5
aI6
atp715
Rp716
ag14
atp717
Rp718
I180
sg1
((lp719
g80
ag8
ag110
ag17
ag20
ag11
ag1
((lp720
I1
aI3
aI4
aI5
atp721
Rp722
ag1
((lp723
I3
aI4
aI5
aI6
atp724
Rp725
ag44
ag5
ag29
atp726
Rp727
I360
sg1
((lp728
g41
ag71
ag47
ag110
ag1
((lp729
I1
aI2
aI3
aI4
atp730
Rp731
ag80
ag26
ag29
ag44
ag14
ag1
((lp732
I1
aI2
aI4
aI5
atp733
Rp734
atp735
Rp736
I720
sg1
((lp737
g41
ag80
ag47
ag110
ag17
ag62
ag74
ag1
((lp738
I1
aI2
aI3
aI5
atp739
Rp740
ag44
ag14
ag1
((lp741
I1
aI2
aI5
aI6
atp742
Rp743
atp744
Rp745
I360
sg1
((lp746
g71
ag8
ag11
ag20
ag62
ag56
ag1
((lp747
I1
aI2
aI3
aI4
atp748
Rp749
ag1
((lp750
I2
aI3
aI4
aI6
atp751
Rp752
ag29
ag32
ag14
atp753
Rp754
I180
sg1
((lp755
g71
ag8
ag11
ag14
ag20
ag62
ag56
ag1
((lp756
I1
aI2
aI3
aI6
atp757
Rp758
ag29
ag32
ag1
((lp759
I1
aI3
aI4
aI6
atp760
Rp761
atp762
Rp763
I360
sg1
((lp764
g71
ag1
((lp765
I2
aI3
aI5
aI6
atp766
Rp767
ag110
ag17
ag62
ag74
ag59
ag26
ag29
ag44
ag1
((lp768
I1
aI2
aI4
aI5
atp769
Rp770
atp771
Rp772
I720
sg1
((lp773
g71
ag1
((lp774
I1
aI2
aI4
aI6
atp775
Rp776
ag110
ag17
ag20
ag11
ag59
ag80
ag1
((lp777
I3
aI4
aI5
aI6
atp778
Rp779
ag32
ag29
atp780
Rp781
I360
sg1
((lp782
g71
ag8
ag47
ag11
ag62
ag56
ag1
((lp783
I1
aI2
aI3
aI4
atp784
Rp785
ag44
ag1
((lp786
I2
aI3
aI4
aI6
atp787
Rp788
ag29
ag32
atp789
Rp790
I360
sg1
((lp791
g56
ag71
ag8
ag1
((lp792
I1
aI2
aI3
aI4
atp793
Rp794
ag20
ag74
ag1
((lp795
I3
aI4
aI5
aI6
atp796
Rp797
ag80
ag44
ag26
ag32
atp798
Rp799
I720
sg1
((lp800
g71
ag110
ag53
ag56
ag11
ag1
((lp801
I2
aI3
aI4
aI6
atp802
Rp803
ag26
ag1
((lp804
I3
aI4
aI5
aI6
atp805
Rp806
ag32
ag5
ag29
atp807
Rp808
I360
sg1
((lp809
g8
ag47
ag11
ag20
ag62
ag56
ag59
ag1
((lp810
I2
aI3
aI4
aI6
atp811
Rp812
ag32
ag5
ag1
((lp813
I1
aI2
aI4
aI6
atp814
Rp815
atp816
Rp817
I180
sg1
((lp818
g41
ag71
ag47
ag11
ag17
ag1
((lp819
I1
aI4
aI5
aI6
atp820
Rp821
ag1
((lp822
I1
aI2
aI5
aI6
atp823
Rp824
ag59
ag80
ag32
ag5
atp825
Rp826
I360
sg1
((lp827
g1
((lp828
I1
aI3
aI5
aI6
atp829
Rp830
ag80
ag5
ag17
ag20
ag53
ag74
ag1
((lp831
I1
aI3
aI4
aI5
atp832
Rp833
ag26
ag44
ag62
atp834
Rp835
I360
sg1
((lp836
g80
ag8
ag1
((lp837
I1
aI2
aI3
aI4
atp838
Rp839
ag14
ag20
ag62
ag74
ag71
ag26
ag32
ag1
((lp840
I1
aI3
aI4
aI6
atp841
Rp842
atp843
Rp844
I360
sg1
((lp845
g71
ag47
ag14
ag17
ag1
((lp846
I1
aI4
aI5
aI6
atp847
Rp848
ag53
ag74
ag80
ag26
ag5
ag1
((lp849
I1
aI3
aI4
aI6
atp850
Rp851
atp852
Rp853
I120
sg1
((lp854
g41
ag44
ag8
ag1
((lp855
I1
aI3
aI5
aI6
atp856
Rp857
ag11
ag17
ag53
ag74
ag1
((lp858
I1
aI3
aI4
aI5
atp859
Rp860
ag26
ag32
atp861
Rp862
I720
sg1
((lp863
g41
ag110
ag1
((lp864
I1
aI2
aI3
aI5
atp865
Rp866
ag62
ag53
ag74
ag59
ag26
ag29
ag44
ag1
((lp867
I2
aI3
aI4
aI5
atp868
Rp869
atp870
Rp871
I180
sg1
((lp872
g71
ag8
ag47
ag110
ag62
ag11
ag1
((lp873
I1
aI2
aI3
aI4
atp874
Rp875
ag80
ag26
ag29
ag1
((lp876
I1
aI2
aI4
aI5
atp877
Rp878
atp879
Rp880
I360
sg1
((lp881
g41
ag71
ag1
((lp882
I2
aI3
aI5
aI6
atp883
Rp884
ag47
ag110
ag62
ag74
ag59
ag26
ag29
ag1
((lp885
I1
aI2
aI4
aI5
atp886
Rp887
atp888
Rp889
I360
sg1
((lp890
g71
ag47
ag11
ag14
ag20
ag74
ag1
((lp891
I1
aI2
aI3
aI4
atp892
Rp893
ag80
ag26
ag32
ag1
((lp894
I1
aI3
aI4
aI6
atp895
Rp896
atp897
Rp898
I360
sg1
((lp899
g41
ag80
ag47
ag11
ag1
((lp900
I1
aI4
aI5
aI6
atp901
Rp902
ag53
ag74
ag59
ag32
ag5
ag1
((lp903
I1
aI2
aI5
aI6
atp904
Rp905
atp906
Rp907
I60
sg1
((lp908
g71
ag47
ag110
ag56
ag11
ag1
((lp909
I1
aI2
aI3
aI4
atp910
Rp911
ag26
ag1
((lp912
I2
aI4
aI5
aI6
atp913
Rp914
ag29
ag44
ag14
atp915
Rp916
I360
sg1
((lp917
g8
ag47
ag11
ag14
ag53
ag56
ag1
((lp918
I2
aI3
aI4
aI6
atp919
Rp920
ag26
ag29
ag62
ag1
((lp921
I1
aI3
aI4
aI6
atp922
Rp923
atp924
Rp925
I720
sg1
((lp926
g41
ag71
ag47
ag110
ag17
ag1
((lp927
I1
aI4
aI5
aI6
atp928
Rp929
ag74
ag11
ag80
ag1
((lp930
I1
aI2
aI4
aI5
atp931
Rp932
ag14
atp933
Rp934
I720
sg1
((lp935
g80
ag110
ag17
ag20
ag53
ag56
ag11
ag59
ag26
ag1
((lp936
I2
aI4
aI5
aI6
atp937
Rp938
ag1
((lp939
I3
aI4
aI5
aI6
atp940
Rp941
atp942
Rp943
I720
sg1
((lp944
g1
((lp945
I2
aI3
aI5
aI6
atp946
Rp947
ag47
ag110
ag17
ag53
ag74
ag59
ag1
((lp948
I1
aI2
aI3
aI5
atp949
Rp950
ag29
ag32
ag62
atp951
Rp952
I360
sg1
((lp953
g41
ag1
((lp954
I2
aI3
aI5
aI6
atp955
Rp956
ag110
ag17
ag20
ag53
ag74
ag1
((lp957
I1
aI3
aI4
aI5
atp958
Rp959
ag26
ag44
ag5
atp960
Rp961
I360
sg1
((lp962
g56
ag44
ag47
ag110
ag5
ag53
ag1
((lp963
I1
aI2
aI5
aI6
atp964
Rp965
ag11
ag1
((lp966
I2
aI3
aI4
aI6
atp967
Rp968
ag62
ag14
atp969
Rp970
I360
sg1
((lp971
g71
ag8
ag47
ag14
ag1
((lp972
I1
aI4
aI5
aI6
atp973
Rp974
ag53
ag74
ag80
ag26
ag5
ag1
((lp975
I1
aI3
aI4
aI6
atp976
Rp977
atp978
Rp979
I720
sg1
((lp980
g41
ag44
ag1
((lp981
I2
aI3
aI5
aI6
atp982
Rp983
ag17
ag53
ag74
ag1
((lp984
I1
aI2
aI3
aI6
atp985
Rp986
ag56
ag29
ag32
ag62
atp987
Rp988
I360
sg1
((lp989
g41
ag8
ag1
((lp990
I1
aI3
aI5
aI6
atp991
Rp992
ag17
ag20
ag62
ag74
ag1
((lp993
I1
aI3
aI4
aI5
atp994
Rp995
ag26
ag53
ag5
atp996
Rp997
I360
sg1
((lp998
g41
ag71
ag47
ag11
ag62
ag74
ag1
((lp999
I1
aI2
aI3
aI4
atp1000
Rp1001
ag26
ag1
((lp1002
I1
aI2
aI4
aI5
atp1003
Rp1004
ag44
ag14
atp1005
Rp1006
I180
sg1
((lp1007
g41
ag8
ag47
ag11
ag20
ag62
ag74
ag1
((lp1008
I1
aI2
aI3
aI4
atp1009
Rp1010
ag1
((lp1011
I1
aI2
aI3
aI6
atp1012
Rp1013
ag29
ag32
atp1014
Rp1015
I720
sg1
((lp1016
g71
ag8
ag1
((lp1017
I3
aI4
aI5
aI6
atp1018
Rp1019
ag20
ag53
ag56
ag44
ag1
((lp1020
I2
aI3
aI4
aI6
atp1021
Rp1022
ag29
ag32
ag5
atp1023
Rp1024
I720
sg1
((lp1025
g41
ag8
ag1
((lp1026
I1
aI3
aI5
aI6
atp1027
Rp1028
ag11
ag20
ag53
ag74
ag1
((lp1029
I1
aI2
aI3
aI6
atp1030
Rp1031
ag56
ag32
ag62
atp1032
Rp1033
I360
s.