(dp0
c__builtin__
frozenset
p1
((lp2
g1
((lp3
I1
aI2
aI5
aI6
atp4
Rp5
ag1
((lp6
I2
aI3
aI6
atp7
Rp8
ag1
((lp9
I1
aI3
aI4
aI5
aI6
atp10
Rp11
ag1
((lp12
I2
aI3
aI4
atp13
Rp14
ag1
((lp15
I1
aI2
aI3
aI5
atp16
Rp17
ag1
((lp18
I2
aI4
aI6
atp19
Rp20
ag1
((lp21
I1
aI2
aI4
aI5
atp22
Rp23
atp24
Rp25
I60
sg1
((lp26
g1
((lp27
I3
aI4
aI5
atp28
Rp29
ag1
((lp30
I2
aI3
aI5
aI6
atp31
Rp32
ag14
ag1
((lp33
I1
aI2
aI3
aI6
atp34
Rp35
ag1
((lp36
I1
aI2
aI3
aI5
atp37
Rp38
ag1
((lp39
I1
aI3
aI4
atp40
Rp41
ag1
((lp42
I1
aI2
aI4
aI5
aI6
atp43
Rp44
atp45
Rp46
I360
sg1
((lp47
g1
((lp48
I3
aI4
aI6
atp49
Rp50
ag1
((lp51
I1
aI2
aI4
aI6
atp52
Rp53
ag1
((lp54
I2
aI3
aI5
aI6
atp55
Rp56
ag1
((lp57
I1
aI3
aI6
atp58
Rp59
ag1
((lp60
I2
aI4
aI5
aI6
atp61
Rp62
ag1
((lp63
I1
aI5
aI6
atp64
Rp65
ag1
((lp66
I1
aI2
aI3
aI4
aI5
atp67
Rp68
atp69
Rp70
I360
sg1
((lp71
g1
((lp72
I2
aI3
aI4
aI5
aI6
atp73
Rp74
ag1
((lp75
I1
aI3
aI5
atp76
Rp77
ag1
((lp78
I1
aI2
aI4
aI6
atp79
Rp80
ag1
((lp81
I1
aI2
aI3
aI4
atp82
Rp83
ag1
((lp84
I1
aI2
aI5
atp85
Rp86
ag65
ag1
((lp87
I1
aI3
aI4
aI6
atp88
Rp89
atp90
Rp91
I120
s.