(dp0
c__builtin__
frozenset
p1
((lp2
g1
((lp3
I1
aI3
aI5
atp4
Rp5
ag1
((lp6
I2
aI3
aI5
aI6
atp7
Rp8
ag1
((lp9
I3
aI4
aI5
aI6
atp10
Rp11
ag1
((lp12
I1
aI2
aI3
aI6
atp13
Rp14
ag1
((lp15
I1
aI5
aI6
atp16
Rp17
ag1
((lp18
I2
aI3
aI4
aI5
atp19
Rp20
atp21
Rp22
I720
sg1
((lp23
g1
((lp24
I2
aI3
aI5
aI6
atp25
Rp26
ag1
((lp27
I2
aI3
aI4
aI6
atp28
Rp29
ag1
((lp30
I2
aI4
aI5
aI6
atp31
Rp32
ag17
ag1
((lp33
I1
aI2
aI3
atp34
Rp35
ag1
((lp36
I1
aI2
aI4
aI5
atp37
Rp38
atp39
Rp40
I720
sg1
((lp41
g1
((lp42
I3
aI4
aI6
atp43
Rp44
ag1
((lp45
I2
aI3
aI5
aI6
atp46
Rp47
ag1
((lp48
I1
aI4
aI5
aI6
atp49
Rp50
ag1
((lp51
I1
aI2
aI3
aI6
atp52
Rp53
ag1
((lp54
I1
aI2
aI5
atp55
Rp56
ag1
((lp57
I2
aI3
aI4
aI5
atp58
Rp59
atp60
Rp61
I360
sg1
((lp62
g1
((lp63
I2
aI3
aI4
atp64
Rp65
ag1
((lp66
I1
aI4
aI5
aI6
atp67
Rp68
ag1
((lp69
I1
aI2
aI5
aI6
atp70
Rp71
ag1
((lp72
I1
aI3
aI4
aI5
atp73
Rp74
ag1
((lp75
I2
aI4
aI5
aI6
atp76
Rp77
ag35
atp78
Rp79
I360
sg1
((lp80
g1
((lp81
I1
aI3
aI5
aI6
atp82
Rp83
ag1
((lp84
I2
aI5
aI6
atp85
Rp86
ag1
((lp87
I3
aI4
aI5
aI6
atp88
Rp89
ag1
((lp90
I2
aI3
aI5
atp91
Rp92
ag1
((lp93
I1
aI3
aI4
aI5
atp94
Rp95
ag1
((lp96
I1
aI2
aI4
aI6
atp97
Rp98
atp99
Rp100
I360
sg1
((lp101
g1
((lp102
I3
aI4
aI5
aI6
atp103
Rp104
ag1
((lp105
I2
aI4
aI6
atp106
Rp107
ag1
((lp108
I1
aI2
aI3
aI4
atp109
Rp110
ag1
((lp111
I1
aI3
aI4
aI5
atp112
Rp113
ag1
((lp114
I1
aI4
aI6
atp115
Rp116
ag1
((lp117
I2
aI3
aI4
aI5
atp118
Rp119
atp120
Rp121
I360
sg1
((lp122
g1
((lp123
I1
aI2
aI5
aI6
atp124
Rp125
ag1
((lp126
I1
aI3
aI5
aI6
atp127
Rp128
ag1
((lp129
I3
aI4
aI5
aI6
atp130
Rp131
ag1
((lp132
I1
aI4
aI5
aI6
atp133
Rp134
ag107
ag1
((lp135
I1
aI3
aI4
atp136
Rp137
atp138
Rp139
I720
sg1
((lp140
g1
((lp141
I2
aI3
aI5
aI6
atp142
Rp143
ag1
((lp144
I1
aI3
aI4
aI5
atp145
Rp146
ag1
((lp147
I2
aI4
aI5
aI6
atp148
Rp149
ag17
ag1
((lp150
I1
aI3
aI4
aI6
atp151
Rp152
ag1
((lp153
I1
aI2
aI6
atp154
Rp155
atp156
Rp157
I360
sg1
((lp158
g1
((lp159
I1
aI2
aI5
aI6
atp160
Rp161
ag1
((lp162
I2
aI3
aI5
aI6
atp163
Rp164
ag1
((lp165
I1
aI2
aI3
aI4
atp166
Rp167
ag107
ag1
((lp168
I1
aI3
aI6
atp169
Rp170
ag1
((lp171
I1
aI2
aI4
aI5
atp172
Rp173
atp174
Rp175
I720
sg1
((lp176
g1
((lp177
I1
aI2
aI4
aI6
atp178
Rp179
ag1
((lp180
I2
aI3
aI5
aI6
atp181
Rp182
ag1
((lp183
I3
aI4
aI5
aI6
atp184
Rp185
ag1
((lp186
I1
aI4
aI5
aI6
atp187
Rp188
ag170
ag1
((lp189
I2
aI4
aI5
atp190
Rp191
atp192
Rp193
I360
sg1
((lp194
g1
((lp195
I1
aI3
aI5
aI6
atp196
Rp197
ag1
((lp198
I1
aI2
aI3
aI5
atp199
Rp200
ag1
((lp201
I4
aI5
aI6
atp202
Rp203
ag1
((lp204
I1
aI3
aI4
aI5
atp205
Rp206
ag155
ag1
((lp207
I1
aI2
aI4
aI5
atp208
Rp209
atp210
Rp211
I360
sg1
((lp212
g1
((lp213
I2
aI3
aI4
aI5
atp214
Rp215
ag32
ag17
ag35
ag1
((lp216
I1
aI3
aI4
aI6
atp217
Rp218
ag38
atp219
Rp220
I360
sg1
((lp221
g1
((lp222
I2
aI3
aI5
aI6
atp223
Rp224
ag1
((lp225
I3
aI4
aI5
aI6
atp226
Rp227
ag1
((lp228
I1
aI2
aI4
atp229
Rp230
ag1
((lp231
I1
aI2
aI5
aI6
atp232
Rp233
ag191
ag1
((lp234
I1
aI3
aI4
aI6
atp235
Rp236
atp237
Rp238
I720
sg1
((lp239
g1
((lp240
I3
aI4
aI5
aI6
atp241
Rp242
ag170
ag1
((lp243
I1
aI3
aI4
aI5
atp244
Rp245
ag1
((lp246
I1
aI2
aI4
aI5
atp247
Rp248
ag116
ag1
((lp249
I2
aI3
aI4
aI5
atp250
Rp251
atp252
Rp253
I720
sg1
((lp254
g1
((lp255
I1
aI3
aI5
aI6
atp256
Rp257
ag1
((lp258
I3
aI4
aI5
aI6
atp259
Rp260
ag1
((lp261
I1
aI3
aI4
aI5
atp262
Rp263
ag1
((lp264
I2
aI3
aI4
aI6
atp265
Rp266
ag155
ag191
atp267
Rp268
I720
sg1
((lp269
g1
((lp270
I3
aI4
aI5
aI6
atp271
Rp272
ag1
((lp273
I1
aI4
aI5
aI6
atp274
Rp275
ag1
((lp276
I1
aI2
aI5
aI6
atp277
Rp278
ag92
ag1
((lp279
I1
aI2
aI4
aI5
atp280
Rp281
ag35
atp282
Rp283
I360
sg1
((lp284
g1
((lp285
I1
aI3
aI5
aI6
atp286
Rp287
ag86
ag1
((lp288
I1
aI3
aI4
aI5
atp289
Rp290
ag155
ag1
((lp291
I1
aI2
aI4
aI5
atp292
Rp293
ag1
((lp294
I1
aI3
aI4
aI6
atp295
Rp296
atp297
Rp298
I720
sg1
((lp299
g1
((lp300
I1
aI3
aI5
aI6
atp301
Rp302
ag1
((lp303
I2
aI3
aI6
atp304
Rp305
ag1
((lp306
I1
aI2
aI5
aI6
atp307
Rp308
ag137
ag1
((lp309
I1
aI2
aI4
aI5
atp310
Rp311
ag1
((lp312
I2
aI3
aI4
aI5
atp313
Rp314
atp315
Rp316
I360
sg1
((lp317
g44
ag65
ag1
((lp318
I1
aI2
aI5
aI6
atp319
Rp320
ag1
((lp321
I1
aI2
aI3
aI6
atp322
Rp323
ag1
((lp324
I1
aI3
aI4
aI5
atp325
Rp326
ag1
((lp327
I1
aI2
aI4
aI5
atp328
Rp329
atp330
Rp331
I720
sg1
((lp332
g1
((lp333
I2
aI3
aI5
aI6
atp334
Rp335
ag1
((lp336
I2
aI3
aI4
aI5
atp337
Rp338
ag1
((lp339
I1
aI3
aI4
aI5
atp340
Rp341
ag203
ag1
((lp342
I2
aI3
aI4
aI6
atp343
Rp344
ag35
atp345
Rp346
I360
sg1
((lp347
g5
ag1
((lp348
I1
aI2
aI4
aI6
atp349
Rp350
ag1
((lp351
I1
aI2
aI3
aI4
atp352
Rp353
ag203
ag1
((lp354
I1
aI2
aI3
aI6
atp355
Rp356
ag1
((lp357
I1
aI2
aI4
aI5
atp358
Rp359
atp360
Rp361
I720
sg1
((lp362
g5
ag1
((lp363
I2
aI3
aI5
aI6
atp364
Rp365
ag1
((lp366
I1
aI2
aI3
aI4
atp367
Rp368
ag1
((lp369
I1
aI2
aI5
aI6
atp370
Rp371
ag1
((lp372
I1
aI2
aI3
aI6
atp373
Rp374
ag116
atp375
Rp376
I720
sg1
((lp377
g1
((lp378
I3
aI4
aI5
aI6
atp379
Rp380
ag1
((lp381
I1
aI2
aI3
aI6
atp382
Rp383
ag1
((lp384
I1
aI2
aI3
aI5
atp385
Rp386
ag1
((lp387
I1
aI2
aI5
aI6
atp388
Rp389
ag137
ag191
atp390
Rp391
I360
sg1
((lp392
g86
ag1
((lp393
I3
aI4
aI5
aI6
atp394
Rp395
ag1
((lp396
I1
aI2
aI3
aI5
atp397
Rp398
ag1
((lp399
I1
aI2
aI3
aI6
atp400
Rp401
ag1
((lp402
I1
aI2
aI4
aI5
atp403
Rp404
ag116
atp405
Rp406
I720
sg1
((lp407
g1
((lp408
I2
aI3
aI5
aI6
atp409
Rp410
ag1
((lp411
I1
aI2
aI3
aI4
atp412
Rp413
ag203
ag17
ag1
((lp414
I1
aI3
aI4
aI6
atp415
Rp416
ag1
((lp417
I1
aI2
aI4
aI5
atp418
Rp419
atp420
Rp421
I180
sg1
((lp422
g1
((lp423
I3
aI4
aI5
atp424
Rp425
ag1
((lp426
I1
aI2
aI3
aI4
atp427
Rp428
ag170
ag1
((lp429
I2
aI3
aI4
aI6
atp430
Rp431
ag1
((lp432
I2
aI4
aI5
aI6
atp433
Rp434
ag1
((lp435
I1
aI2
aI4
aI5
atp436
Rp437
atp438
Rp439
I360
sg1
((lp440
g1
((lp441
I2
aI3
aI5
aI6
atp442
Rp443
ag203
ag107
ag1
((lp444
I1
aI2
aI3
aI6
atp445
Rp446
ag1
((lp447
I1
aI3
aI4
aI5
atp448
Rp449
ag1
((lp450
I2
aI3
aI4
aI5
atp451
Rp452
atp453
Rp454
I360
sg1
((lp455
g5
ag1
((lp456
I1
aI2
aI4
aI6
atp457
Rp458
ag1
((lp459
I3
aI4
aI5
aI6
atp460
Rp461
ag1
((lp462
I1
aI2
aI5
aI6
atp463
Rp464
ag137
ag1
((lp465
I1
aI2
aI4
aI5
atp466
Rp467
atp468
Rp469
I360
sg1
((lp470
g1
((lp471
I1
aI2
aI3
aI4
atp472
Rp473
ag1
((lp474
I1
aI2
aI3
aI5
atp475
Rp476
ag170
ag1
((lp477
I2
aI4
aI5
aI6
atp478
Rp479
ag1
((lp480
I1
aI2
aI4
aI5
atp481
Rp482
ag1
((lp483
I3
aI5
aI6
atp484
Rp485
atp486
Rp487
I720
sg1
((lp488
g305
ag86
ag1
((lp489
I1
aI2
aI3
aI4
atp490
Rp491
ag1
((lp492
I1
aI2
aI3
aI5
atp493
Rp494
ag1
((lp495
I1
aI3
aI4
aI5
atp496
Rp497
ag1
((lp498
I1
aI3
aI4
aI6
atp499
Rp500
atp501
Rp502
I720
sg1
((lp503
g44
ag1
((lp504
I1
aI2
aI3
aI5
atp505
Rp506
ag1
((lp507
I1
aI4
aI5
aI6
atp508
Rp509
ag1
((lp510
I1
aI2
aI3
aI6
atp511
Rp512
ag1
((lp513
I1
aI3
aI4
aI5
atp514
Rp515
ag191
atp516
Rp517
I720
sg1
((lp518
g44
ag1
((lp519
I2
aI3
aI5
aI6
atp520
Rp521
ag1
((lp522
I1
aI3
aI5
aI6
atp523
Rp524
ag107
ag1
((lp525
I1
aI3
aI4
aI5
atp526
Rp527
ag1
((lp528
I1
aI2
aI5
aI6
atp529
Rp530
atp531
Rp532
I720
sg1
((lp533
g1
((lp534
I1
aI3
aI5
aI6
atp535
Rp536
ag1
((lp537
I2
aI3
aI5
aI6
atp538
Rp539
ag203
ag1
((lp540
I1
aI4
aI5
atp541
Rp542
ag1
((lp543
I1
aI2
aI3
aI6
atp544
Rp545
ag1
((lp546
I2
aI3
aI4
aI5
atp547
Rp548
atp549
Rp550
I720
sg1
((lp551
g305
ag1
((lp552
I1
aI2
aI3
aI4
atp553
Rp554
ag1
((lp555
I2
aI3
aI4
aI5
atp556
Rp557
ag1
((lp558
I1
aI4
aI5
aI6
atp559
Rp560
ag107
ag1
((lp561
I1
aI3
aI4
aI6
atp562
Rp563
atp564
Rp565
I720
sg1
((lp566
g1
((lp567
I1
aI3
aI5
aI6
atp568
Rp569
ag86
ag1
((lp570
I1
aI4
aI5
aI6
atp571
Rp572
ag137
ag1
((lp573
I2
aI3
aI4
aI6
atp574
Rp575
ag1
((lp576
I2
aI3
aI4
aI5
atp577
Rp578
atp579
Rp580
I90
sg1
((lp581
g1
((lp582
I1
aI2
aI4
aI6
atp583
Rp584
ag65
ag1
((lp585
I1
aI4
aI5
aI6
atp586
Rp587
ag1
((lp588
I1
aI2
aI5
aI6
atp589
Rp590
ag1
((lp591
I1
aI2
aI4
aI5
atp592
Rp593
ag485
atp594
Rp595
I90
sg1
((lp596
g5
ag1
((lp597
I1
aI2
aI4
aI6
atp598
Rp599
ag1
((lp600
I1
aI2
aI3
aI4
atp601
Rp602
ag1
((lp603
I2
aI3
aI4
aI6
atp604
Rp605
ag17
ag1
((lp606
I1
aI2
aI4
aI5
atp607
Rp608
atp609
Rp610
I180
sg1
((lp611
g86
ag1
((lp612
I1
aI2
aI3
aI4
atp613
Rp614
ag1
((lp615
I1
aI2
aI3
aI5
atp616
Rp617
ag1
((lp618
I1
aI4
aI5
aI6
atp619
Rp620
ag170
ag1
((lp621
I3
aI4
aI5
aI6
atp622
Rp623
atp624
Rp625
I360
sg1
((lp626
g1
((lp627
I3
aI4
aI5
aI6
atp628
Rp629
ag65
ag1
((lp630
I1
aI4
aI5
aI6
atp631
Rp632
ag230
ag1
((lp633
I1
aI2
aI3
aI6
atp634
Rp635
ag1
((lp636
I2
aI4
aI5
aI6
atp637
Rp638
atp639
Rp640
I360
sg1
((lp641
g1
((lp642
I1
aI2
aI5
aI6
atp643
Rp644
ag1
((lp645
I2
aI3
aI5
aI6
atp646
Rp647
ag1
((lp648
I3
aI4
aI5
aI6
atp649
Rp650
ag1
((lp651
I1
aI4
aI5
aI6
atp652
Rp653
ag107
ag191
atp654
Rp655
I90
sg1
((lp656
g86
ag395
ag1
((lp657
I2
aI3
aI4
aI6
atp658
Rp659
ag404
ag116
ag1
((lp660
I2
aI3
aI4
aI5
atp661
Rp662
atp663
Rp664
I360
sg1
((lp665
g1
((lp666
I1
aI2
aI4
aI6
atp667
Rp668
ag425
ag1
((lp669
I1
aI2
aI3
aI4
atp670
Rp671
ag1
((lp672
I1
aI2
aI3
aI5
atp673
Rp674
ag1
((lp675
I1
aI4
aI5
aI6
atp676
Rp677
ag191
atp678
Rp679
I720
sg1
((lp680
g1
((lp681
I1
aI2
aI3
aI5
atp682
Rp683
ag203
ag1
((lp684
I2
aI3
aI4
aI6
atp685
Rp686
ag419
ag416
ag17
atp687
Rp688
I360
sg1
((lp689
g170
ag245
ag1
((lp690
I1
aI2
aI5
aI6
atp691
Rp692
ag1
((lp693
I2
aI3
aI4
aI6
atp694
Rp695
ag1
((lp696
I2
aI4
aI5
aI6
atp697
Rp698
ag116
atp699
Rp700
I720
sg1
((lp701
g26
ag35
ag215
ag29
ag17
ag218
atp702
Rp703
I720
sg1
((lp704
g1
((lp705
I3
aI4
aI5
aI6
atp706
Rp707
ag1
((lp708
I2
aI3
aI4
aI5
atp709
Rp710
ag1
((lp711
I1
aI4
aI5
aI6
atp712
Rp713
ag170
ag1
((lp714
I1
aI3
aI4
aI5
atp715
Rp716
ag35
atp717
Rp718
I360
sg1
((lp719
g1
((lp720
I2
aI3
aI4
aI5
atp721
Rp722
ag1
((lp723
I1
aI2
aI3
aI5
atp724
Rp725
ag230
ag1
((lp726
I1
aI2
aI3
aI6
atp727
Rp728
ag1
((lp729
I2
aI3
aI4
aI6
atp730
Rp731
ag485
atp732
Rp733
I90
sg1
((lp734
g1
((lp735
I1
aI2
aI4
aI6
atp736
Rp737
ag425
ag1
((lp738
I1
aI2
aI3
aI4
atp739
Rp740
ag1
((lp741
I1
aI2
aI3
aI5
atp742
Rp743
ag203
ag1
((lp744
I1
aI2
aI5
aI6
atp745
Rp746
atp747
Rp748
I90
sg1
((lp749
g305
ag1
((lp750
I3
aI4
aI5
aI6
atp751
Rp752
ag1
((lp753
I1
aI2
aI3
aI5
atp754
Rp755
ag65
ag1
((lp756
I1
aI3
aI4
aI5
atp757
Rp758
ag1
((lp759
I1
aI2
aI4
aI5
atp760
Rp761
atp762
Rp763
I720
sg1
((lp764
g1
((lp765
I3
aI4
aI5
aI6
atp766
Rp767
ag137
ag1
((lp768
I2
aI3
aI4
aI6
atp769
Rp770
ag1
((lp771
I2
aI4
aI5
aI6
atp772
Rp773
ag1
((lp774
I2
aI3
aI4
aI5
atp775
Rp776
ag155
atp777
Rp778
I360
sg1
((lp779
g1
((lp780
I1
aI2
aI5
aI6
atp781
Rp782
ag1
((lp783
I2
aI3
aI5
aI6
atp784
Rp785
ag1
((lp786
I1
aI3
aI5
aI6
atp787
Rp788
ag542
ag1
((lp789
I1
aI2
aI3
aI6
atp790
Rp791
ag116
atp792
Rp793
I360
sg1
((lp794
g1
((lp795
I1
aI2
aI4
aI6
atp796
Rp797
ag425
ag1
((lp798
I1
aI2
aI3
aI5
atp799
Rp800
ag1
((lp801
I1
aI2
aI3
aI6
atp802
Rp803
ag1
((lp804
I2
aI4
aI5
aI6
atp805
Rp806
ag17
atp807
Rp808
I360
sg1
((lp809
g44
ag521
ag524
ag107
ag527
ag1
((lp810
I2
aI3
aI4
aI5
atp811
Rp812
atp813
Rp814
I360
sg1
((lp815
g305
ag1
((lp816
I1
aI2
aI3
aI5
atp817
Rp818
ag230
ag1
((lp819
I1
aI2
aI5
aI6
atp820
Rp821
ag1
((lp822
I1
aI3
aI4
aI5
atp823
Rp824
ag1
((lp825
I2
aI4
aI5
aI6
atp826
Rp827
atp828
Rp829
I720
sg1
((lp830
g1
((lp831
I1
aI2
aI3
aI4
atp832
Rp833
ag107
ag1
((lp834
I1
aI3
aI4
aI5
atp835
Rp836
ag155
ag1
((lp837
I1
aI2
aI4
aI5
atp838
Rp839
ag1
((lp840
I1
aI3
aI4
aI6
atp841
Rp842
atp843
Rp844
I360
sg1
((lp845
g1
((lp846
I2
aI3
aI5
aI6
atp847
Rp848
ag1
((lp849
I2
aI3
aI4
aI5
atp850
Rp851
ag1
((lp852
I1
aI3
aI4
aI5
atp853
Rp854
ag1
((lp855
I1
aI2
aI4
aI5
atp856
Rp857
ag116
ag35
atp858
Rp859
I360
sg1
((lp860
g1
((lp861
I2
aI3
aI5
aI6
atp862
Rp863
ag1
((lp864
I1
aI2
aI3
aI4
atp865
Rp866
ag1
((lp867
I1
aI2
aI3
aI5
atp868
Rp869
ag170
ag242
ag116
atp870
Rp871
I360
sg1
((lp872
g1
((lp873
I1
aI3
aI5
aI6
atp874
Rp875
ag1
((lp876
I3
aI4
aI5
aI6
atp877
Rp878
ag1
((lp879
I1
aI2
aI3
aI6
atp880
Rp881
ag92
ag137
ag1
((lp882
I2
aI3
aI4
aI6
atp883
Rp884
atp885
Rp886
I90
sg1
((lp887
g44
ag521
ag524
ag107
ag1
((lp888
I1
aI2
aI3
aI6
atp889
Rp890
ag530
atp891
Rp892
I180
sg1
((lp893
g1
((lp894
I3
aI4
aI5
aI6
atp895
Rp896
ag65
ag1
((lp897
I1
aI4
aI5
aI6
atp898
Rp899
ag92
ag1
((lp900
I1
aI2
aI3
aI6
atp901
Rp902
ag1
((lp903
I1
aI3
aI4
aI5
atp904
Rp905
atp906
Rp907
I180
sg1
((lp908
g1
((lp909
I1
aI3
aI5
aI6
atp910
Rp911
ag92
ag56
ag1
((lp912
I1
aI2
aI3
aI6
atp913
Rp914
ag1
((lp915
I1
aI3
aI4
aI5
atp916
Rp917
ag1
((lp918
I2
aI4
aI5
aI6
atp919
Rp920
atp921
Rp922
I360
sg1
((lp923
g1
((lp924
I1
aI3
aI5
aI6
atp925
Rp926
ag1
((lp927
I2
aI3
aI5
aI6
atp928
Rp929
ag203
ag1
((lp930
I1
aI2
aI5
aI6
atp931
Rp932
ag1
((lp933
I2
aI3
aI4
aI6
atp934
Rp935
ag116
atp936
Rp937
I360
sg1
((lp938
g1
((lp939
I1
aI2
aI3
aI4
atp940
Rp941
ag107
ag92
ag1
((lp942
I1
aI2
aI3
aI6
atp943
Rp944
ag1
((lp945
I3
aI4
aI5
aI6
atp946
Rp947
ag1
((lp948
I1
aI2
aI4
aI5
atp949
Rp950
atp951
Rp952
I360
sg1
((lp953
g305
ag1
((lp954
I1
aI2
aI4
aI6
atp955
Rp956
ag65
ag1
((lp957
I1
aI4
aI5
aI6
atp958
Rp959
ag1
((lp960
I1
aI2
aI5
aI6
atp961
Rp962
ag761
atp963
Rp964
I360
sg1
((lp965
g926
ag203
ag1
((lp966
I1
aI2
aI3
aI6
atp967
Rp968
ag935
ag116
ag1
((lp969
I2
aI3
aI4
aI5
atp970
Rp971
atp972
Rp973
I720
sg1
((lp974
g5
ag1
((lp975
I1
aI2
aI4
aI6
atp976
Rp977
ag1
((lp978
I1
aI2
aI5
aI6
atp979
Rp980
ag1
((lp981
I2
aI3
aI4
aI6
atp982
Rp983
ag1
((lp984
I1
aI2
aI4
aI5
atp985
Rp986
ag35
atp987
Rp988
I360
sg1
((lp989
g1
((lp990
I3
aI4
aI5
aI6
atp991
Rp992
ag1
((lp993
I1
aI2
aI3
aI5
atp994
Rp995
ag542
ag1
((lp996
I2
aI3
aI4
aI6
atp997
Rp998
ag17
ag1
((lp999
I1
aI3
aI4
aI6
atp1000
Rp1001
atp1002
Rp1003
I180
sg1
((lp1004
g44
ag1
((lp1005
I2
aI3
aI5
aI6
atp1006
Rp1007
ag1
((lp1008
I1
aI3
aI5
aI6
atp1009
Rp1010
ag1
((lp1011
I1
aI2
aI3
aI4
atp1012
Rp1013
ag203
ag1
((lp1014
I1
aI2
aI4
aI5
atp1015
Rp1016
atp1017
Rp1018
I180
sg1
((lp1019
g44
ag524
ag1
((lp1020
I1
aI2
aI3
aI5
atp1021
Rp1022
ag107
ag527
ag530
atp1023
Rp1024
I360
sg1
((lp1025
g44
ag1
((lp1026
I1
aI2
aI3
aI5
atp1027
Rp1028
ag65
ag320
ag326
ag329
atp1029
Rp1030
I180
sg1
((lp1031
g86
ag1
((lp1032
I1
aI2
aI3
aI4
atp1033
Rp1034
ag1
((lp1035
I1
aI3
aI4
aI6
atp1036
Rp1037
ag1
((lp1038
I1
aI4
aI5
aI6
atp1039
Rp1040
ag1
((lp1041
I1
aI2
aI4
aI5
atp1042
Rp1043
ag485
atp1044
Rp1045
I180
sg1
((lp1046
g911
ag1
((lp1047
I1
aI2
aI4
aI6
atp1048
Rp1049
ag92
ag56
ag914
ag1
((lp1050
I2
aI3
aI4
aI6
atp1051
Rp1052
atp1053
Rp1054
I360
s.