(dp0
c__builtin__
frozenset
p1
((lp2
g1
((lp3
I1
aI3
aI5
atp4
Rp5
ag1
((lp6
I1
aI2
aI4
aI6
atp7
Rp8
ag1
((lp9
I2
aI3
aI5
aI6
atp10
Rp11
ag1
((lp12
I2
aI3
aI4
atp13
Rp14
ag1
((lp15
I2
aI4
aI5
aI6
atp16
Rp17
ag1
((lp18
I1
aI5
aI6
atp19
Rp20
ag1
((lp21
I1
aI2
aI3
atp22
Rp23
ag1
((lp24
I1
aI2
aI4
aI5
atp25
Rp26
atp27
Rp28
I720
sg1
((lp29
g1
((lp30
I1
aI4
aI5
atp31
Rp32
ag5
ag1
((lp33
I1
aI2
aI4
aI6
atp34
Rp35
ag1
((lp36
I3
aI4
aI5
atp37
Rp38
ag1
((lp39
I2
aI3
aI5
atp40
Rp41
ag1
((lp42
I1
aI2
aI5
aI6
atp43
Rp44
ag1
((lp45
I1
aI2
aI3
aI6
atp46
Rp47
ag1
((lp48
I2
aI4
aI5
aI6
atp49
Rp50
atp51
Rp52
I720
sg1
((lp53
g1
((lp54
I3
aI4
aI6
atp55
Rp56
ag1
((lp57
I1
aI2
aI4
aI6
atp58
Rp59
ag41
ag1
((lp60
I4
aI5
aI6
atp61
Rp62
ag1
((lp63
I1
aI2
aI5
aI6
atp64
Rp65
ag1
((lp66
I1
aI2
aI3
aI6
atp67
Rp68
ag1
((lp69
I1
aI3
aI4
aI5
atp70
Rp71
ag1
((lp72
I3
aI5
aI6
atp73
Rp74
atp75
Rp76
I360
sg1
((lp77
g1
((lp78
I2
aI3
aI5
aI6
atp79
Rp80
ag1
((lp81
I1
aI3
aI6
atp82
Rp83
ag14
ag1
((lp84
I1
aI2
aI3
aI5
atp85
Rp86
ag1
((lp87
I3
aI4
aI5
aI6
atp88
Rp89
ag1
((lp90
I1
aI3
aI4
aI5
atp91
Rp92
ag1
((lp93
I1
aI2
aI6
atp94
Rp95
ag20
atp96
Rp97
I360
sg1
((lp98
g83
ag74
ag1
((lp99
I1
aI2
aI3
aI5
atp100
Rp101
ag1
((lp102
I1
aI3
aI4
atp103
Rp104
ag1
((lp105
I2
aI3
aI4
aI6
atp106
Rp107
ag1
((lp108
I2
aI4
aI5
aI6
atp109
Rp110
ag20
ag1
((lp111
I2
aI3
aI4
aI5
atp112
Rp113
atp114
Rp115
I720
sg1
((lp116
g5
ag83
ag1
((lp117
I1
aI2
aI5
aI6
atp118
Rp119
ag1
((lp120
I1
aI2
aI3
aI4
atp121
Rp122
ag1
((lp123
I2
aI3
aI6
atp124
Rp125
ag1
((lp126
I3
aI4
aI5
aI6
atp127
Rp128
ag1
((lp129
I1
aI4
aI6
atp130
Rp131
ag1
((lp132
I2
aI3
aI4
aI5
atp133
Rp134
atp135
Rp136
I360
sg1
((lp137
g5
ag41
ag32
ag1
((lp138
I1
aI2
aI3
aI4
atp139
Rp140
ag1
((lp141
I2
aI3
aI4
aI6
atp142
Rp143
ag1
((lp144
I3
aI4
aI5
aI6
atp145
Rp146
ag1
((lp147
I2
aI4
aI5
atp148
Rp149
ag1
((lp150
I1
aI3
aI4
aI6
atp151
Rp152
atp153
Rp154
I180
sg1
((lp155
g56
ag1
((lp156
I2
aI3
aI5
aI6
atp157
Rp158
ag14
ag62
ag1
((lp159
I1
aI2
aI5
aI6
atp160
Rp161
ag1
((lp162
I1
aI2
aI3
aI6
atp163
Rp164
ag1
((lp165
I1
aI2
aI3
aI5
atp166
Rp167
ag1
((lp168
I1
aI2
aI4
atp169
Rp170
atp171
Rp172
I720
sg1
((lp173
g56
ag83
ag74
ag1
((lp174
I1
aI2
aI3
aI5
atp175
Rp176
ag170
ag1
((lp177
I1
aI2
aI5
aI6
atp178
Rp179
ag1
((lp180
I1
aI3
aI4
aI5
atp181
Rp182
ag1
((lp183
I2
aI3
aI4
aI5
atp184
Rp185
atp186
Rp187
I720
sg1
((lp188
g32
ag5
ag1
((lp189
I3
aI4
aI5
aI6
atp190
Rp191
ag170
ag1
((lp192
I1
aI2
aI5
aI6
atp193
Rp194
ag1
((lp195
I2
aI3
aI4
aI6
atp196
Rp197
ag1
((lp198
I2
aI4
aI5
aI6
atp199
Rp200
ag131
atp201
Rp202
I720
sg1
((lp203
g83
ag1
((lp204
I2
aI3
aI4
aI6
atp205
Rp206
ag1
((lp207
I1
aI2
aI5
atp208
Rp209
ag1
((lp210
I1
aI2
aI3
aI4
atp211
Rp212
ag95
ag1
((lp213
I2
aI4
aI5
aI6
atp214
Rp215
ag131
ag1
((lp216
I2
aI3
aI4
aI5
atp217
Rp218
atp219
Rp220
I720
sg1
((lp221
g1
((lp222
I2
aI5
aI6
atp223
Rp224
ag1
((lp225
I1
aI2
aI3
aI4
atp226
Rp227
ag1
((lp228
I1
aI2
aI3
aI5
atp229
Rp230
ag62
ag1
((lp231
I1
aI2
aI3
aI6
atp232
Rp233
ag149
ag74
ag1
((lp234
I1
aI2
aI4
aI6
atp235
Rp236
atp237
Rp238
I720
sg1
((lp239
g56
ag1
((lp240
I1
aI2
aI3
aI5
atp241
Rp242
ag62
ag1
((lp243
I2
aI4
aI6
atp244
Rp245
ag1
((lp246
I1
aI3
aI4
aI5
atp247
Rp248
ag1
((lp249
I1
aI2
aI4
aI5
atp250
Rp251
ag131
ag1
((lp252
I2
aI3
aI4
aI5
atp253
Rp254
atp255
Rp256
I120
sg1
((lp257
g224
ag1
((lp258
I1
aI2
aI3
aI4
atp259
Rp260
ag1
((lp261
I1
aI4
aI5
aI6
atp262
Rp263
ag245
ag1
((lp264
I3
aI4
aI5
aI6
atp265
Rp266
ag95
ag149
ag1
((lp267
I1
aI3
aI4
aI6
atp268
Rp269
atp270
Rp271
I720
sg1
((lp272
g32
ag5
ag1
((lp273
I2
aI3
aI5
aI6
atp274
Rp275
ag38
ag1
((lp276
I1
aI2
aI3
aI4
atp277
Rp278
ag62
ag1
((lp279
I1
aI2
aI5
aI6
atp280
Rp281
ag1
((lp282
I1
aI2
aI3
aI6
atp283
Rp284
atp285
Rp286
I360
sg1
((lp287
g125
ag83
ag1
((lp288
I1
aI2
aI3
aI5
atp289
Rp290
ag1
((lp291
I1
aI3
aI4
aI5
atp292
Rp293
ag1
((lp294
I2
aI4
aI5
aI6
atp295
Rp296
ag20
ag131
ag1
((lp297
I1
aI2
aI4
aI5
atp298
Rp299
atp300
Rp301
I720
sg1
((lp302
g1
((lp303
I1
aI3
aI5
aI6
atp304
Rp305
ag1
((lp306
I1
aI2
aI4
aI6
atp307
Rp308
ag38
ag1
((lp309
I1
aI2
aI3
aI5
atp310
Rp311
ag62
ag32
ag1
((lp312
I2
aI3
aI4
aI6
atp313
Rp314
ag149
atp315
Rp316
I90
sg1
((lp317
g56
ag1
((lp318
I1
aI2
aI4
aI6
atp319
Rp320
ag41
ag209
ag1
((lp321
I1
aI2
aI3
aI4
atp322
Rp323
ag1
((lp324
I1
aI2
aI3
aI6
atp325
Rp326
ag1
((lp327
I2
aI4
aI5
aI6
atp328
Rp329
ag20
atp330
Rp331
I720
sg1
((lp332
g56
ag1
((lp333
I2
aI3
aI5
aI6
atp334
Rp335
ag83
ag1
((lp336
I1
aI4
aI5
aI6
atp337
Rp338
ag170
ag1
((lp339
I1
aI3
aI4
aI5
atp340
Rp341
ag95
ag1
((lp342
I2
aI3
aI4
aI5
atp343
Rp344
atp345
Rp346
I720
sg1
((lp347
g1
((lp348
I1
aI3
aI5
aI6
atp349
Rp350
ag149
ag1
((lp351
I3
aI4
aI5
aI6
atp352
Rp353
ag170
ag1
((lp354
I1
aI2
aI5
aI6
atp355
Rp356
ag32
ag1
((lp357
I2
aI3
aI4
aI6
atp358
Rp359
ag131
atp360
Rp361
I720
sg1
((lp362
g224
ag1
((lp363
I1
aI2
aI3
aI4
atp364
Rp365
ag62
ag1
((lp366
I1
aI2
aI3
aI6
atp367
Rp368
ag1
((lp369
I1
aI3
aI4
aI5
atp370
Rp371
ag20
ag131
ag1
((lp372
I2
aI3
aI4
aI5
atp373
Rp374
atp375
Rp376
I720
sg1
((lp377
g1
((lp378
I1
aI3
aI5
aI6
atp379
Rp380
ag224
ag38
ag41
ag32
ag1
((lp381
I1
aI2
aI3
aI6
atp382
Rp383
ag1
((lp384
I2
aI3
aI4
aI6
atp385
Rp386
ag1
((lp387
I1
aI3
aI4
aI6
atp388
Rp389
atp390
Rp391
I720
sg1
((lp392
g1
((lp393
I1
aI3
aI4
aI6
atp394
Rp395
ag1
((lp396
I2
aI3
aI4
aI6
atp397
Rp398
ag62
ag74
ag1
((lp399
I1
aI3
aI4
aI5
atp400
Rp401
ag95
ag20
ag1
((lp402
I2
aI3
aI4
aI5
atp403
Rp404
atp405
Rp406
I360
sg1
((lp407
g56
ag1
((lp408
I1
aI2
aI3
aI5
atp409
Rp410
ag62
ag1
((lp411
I1
aI2
aI5
aI6
atp412
Rp413
ag1
((lp414
I1
aI2
aI3
aI6
atp415
Rp416
ag1
((lp417
I1
aI3
aI4
aI5
atp418
Rp419
ag170
ag74
atp420
Rp421
I360
sg1
((lp422
g5
ag1
((lp423
I2
aI3
aI5
aI6
atp424
Rp425
ag83
ag1
((lp426
I1
aI2
aI5
aI6
atp427
Rp428
ag104
ag1
((lp429
I2
aI3
aI4
aI6
atp430
Rp431
ag1
((lp432
I1
aI2
aI4
aI5
atp433
Rp434
ag23
atp435
Rp436
I360
sg1
((lp437
g5
ag38
ag83
ag1
((lp438
I1
aI4
aI5
aI6
atp439
Rp440
ag1
((lp441
I1
aI2
aI5
aI6
atp442
Rp443
ag104
ag1
((lp444
I2
aI3
aI4
aI6
atp445
Rp446
ag1
((lp447
I2
aI4
aI5
aI6
atp448
Rp449
atp450
Rp451
I720
sg1
((lp452
g1
((lp453
I1
aI3
aI5
aI6
atp454
Rp455
ag245
ag1
((lp456
I2
aI3
aI5
aI6
atp457
Rp458
ag1
((lp459
I3
aI4
aI5
aI6
atp460
Rp461
ag14
ag1
((lp462
I1
aI2
aI3
aI5
atp463
Rp464
ag32
ag131
atp465
Rp466
I360
sg1
((lp467
g1
((lp468
I1
aI3
aI5
aI6
atp469
Rp470
ag1
((lp471
I2
aI3
aI5
aI6
atp472
Rp473
ag245
ag14
ag170
ag32
ag1
((lp474
I1
aI3
aI4
aI6
atp475
Rp476
ag1
((lp477
I1
aI2
aI5
aI6
atp478
Rp479
atp480
Rp481
I720
sg1
((lp482
g5
ag83
ag74
ag1
((lp483
I1
aI2
aI3
aI4
atp484
Rp485
ag1
((lp486
I2
aI3
aI4
aI6
atp487
Rp488
ag1
((lp489
I2
aI4
aI5
aI6
atp490
Rp491
ag131
ag1
((lp492
I2
aI3
aI4
aI5
atp493
Rp494
atp495
Rp496
I720
sg1
((lp497
g1
((lp498
I2
aI3
aI5
aI6
atp499
Rp500
ag38
ag83
ag1
((lp501
I1
aI2
aI3
aI5
atp502
Rp503
ag32
ag1
((lp504
I2
aI3
aI4
aI6
atp505
Rp506
ag1
((lp507
I2
aI4
aI5
aI6
atp508
Rp509
ag20
atp510
Rp511
I720
sg1
((lp512
g1
((lp513
I1
aI3
aI5
aI6
atp514
Rp515
ag125
ag1
((lp516
I1
aI2
aI4
aI6
atp517
Rp518
ag38
ag14
ag1
((lp519
I1
aI4
aI5
aI6
atp520
Rp521
ag1
((lp522
I1
aI2
aI5
aI6
atp523
Rp524
ag149
atp525
Rp526
I720
sg1
((lp527
g5
ag1
((lp528
I2
aI3
aI5
aI6
atp529
Rp530
ag1
((lp531
I1
aI3
aI4
aI6
atp532
Rp533
ag209
ag170
ag1
((lp534
I1
aI4
aI5
aI6
atp535
Rp536
ag23
ag1
((lp537
I2
aI3
aI4
aI5
atp538
Rp539
atp540
Rp541
I360
sg1
((lp542
g32
ag5
ag1
((lp543
I1
aI2
aI4
aI6
atp544
Rp545
ag1
((lp546
I1
aI2
aI3
aI4
atp547
Rp548
ag74
ag1
((lp549
I1
aI2
aI5
aI6
atp550
Rp551
ag149
ag1
((lp552
I1
aI3
aI4
aI6
atp553
Rp554
atp555
Rp556
I720
sg1
((lp557
g5
ag23
ag1
((lp558
I2
aI3
aI4
aI6
atp559
Rp560
ag74
ag1
((lp561
I2
aI4
aI5
aI6
atp562
Rp563
ag95
ag1
((lp564
I1
aI2
aI4
aI5
atp565
Rp566
ag1
((lp567
I2
aI3
aI4
aI5
atp568
Rp569
atp570
Rp571
I720
sg1
((lp572
g56
ag224
ag1
((lp573
I1
aI2
aI3
aI5
atp574
Rp575
ag1
((lp576
I1
aI4
aI5
aI6
atp577
Rp578
ag14
ag1
((lp579
I1
aI2
aI3
aI6
atp580
Rp581
ag1
((lp582
I1
aI3
aI4
aI5
atp583
Rp584
ag149
atp585
Rp586
I360
sg1
((lp587
g1
((lp588
I1
aI3
aI5
aI6
atp589
Rp590
ag125
ag41
ag23
ag170
ag1
((lp591
I3
aI4
aI5
aI6
atp592
Rp593
ag1
((lp594
I1
aI3
aI4
aI5
atp595
Rp596
ag1
((lp597
I1
aI3
aI4
aI6
atp598
Rp599
atp600
Rp601
I360
sg1
((lp602
g5
ag1
((lp603
I2
aI3
aI5
aI6
atp604
Rp605
ag1
((lp606
I1
aI2
aI3
aI4
atp607
Rp608
ag209
ag32
ag1
((lp609
I2
aI3
aI4
aI6
atp610
Rp611
ag131
ag1
((lp612
I2
aI3
aI4
aI5
atp613
Rp614
atp615
Rp616
I360
sg1
((lp617
g245
ag1
((lp618
I1
aI2
aI3
aI4
atp619
Rp620
ag1
((lp621
I1
aI2
aI3
aI5
atp622
Rp623
ag32
ag1
((lp624
I3
aI4
aI5
aI6
atp625
Rp626
ag95
ag20
ag1
((lp627
I1
aI3
aI4
aI6
atp628
Rp629
atp630
Rp631
I720
sg1
((lp632
g56
ag5
ag224
ag1
((lp633
I1
aI4
aI5
aI6
atp634
Rp635
ag1
((lp636
I1
aI2
aI3
aI6
atp637
Rp638
ag1
((lp639
I1
aI2
aI4
aI5
atp640
Rp641
ag74
ag1
((lp642
I1
aI2
aI4
aI6
atp643
Rp644
atp645
Rp646
I720
sg1
((lp647
g41
ag104
ag14
ag1
((lp648
I1
aI2
aI5
aI6
atp649
Rp650
ag1
((lp651
I3
aI4
aI5
aI6
atp652
Rp653
ag1
((lp654
I1
aI2
aI3
aI6
atp655
Rp656
ag1
((lp657
I1
aI2
aI4
aI5
atp658
Rp659
ag131
atp660
Rp661
I360
sg1
((lp662
g5
ag1
((lp663
I1
aI2
aI4
aI6
atp664
Rp665
ag83
ag1
((lp666
I1
aI4
aI5
aI6
atp667
Rp668
ag104
ag431
ag1
((lp669
I2
aI4
aI5
aI6
atp670
Rp671
ag23
atp672
Rp673
I360
sg1
((lp674
g56
ag1
((lp675
I1
aI3
aI5
aI6
atp676
Rp677
ag41
ag1
((lp678
I1
aI4
aI5
aI6
atp679
Rp680
ag1
((lp681
I1
aI2
aI3
aI4
atp682
Rp683
ag1
((lp684
I1
aI3
aI4
aI5
atp685
Rp686
ag95
ag149
atp687
Rp688
I360
sg1
((lp689
g5
ag224
ag74
ag1
((lp690
I1
aI4
aI5
aI6
atp691
Rp692
ag1
((lp693
I1
aI2
aI3
aI6
atp694
Rp695
ag209
ag1
((lp696
I2
aI3
aI4
aI6
atp697
Rp698
ag1
((lp699
I2
aI3
aI4
aI5
atp700
Rp701
atp702
Rp703
I360
sg1
((lp704
g1
((lp705
I1
aI3
aI5
aI6
atp706
Rp707
ag1
((lp708
I3
aI4
aI5
aI6
atp709
Rp710
ag14
ag170
ag245
ag1
((lp711
I1
aI2
aI3
aI6
atp712
Rp713
ag1
((lp714
I1
aI3
aI4
aI5
atp715
Rp716
ag131
atp717
Rp718
I360
sg1
((lp719
g149
ag1
((lp720
I3
aI4
aI5
aI6
atp721
Rp722
ag1
((lp723
I1
aI2
aI3
aI5
atp724
Rp725
ag32
ag1
((lp726
I1
aI2
aI3
aI6
atp727
Rp728
ag1
((lp729
I2
aI3
aI4
aI6
atp730
Rp731
ag20
ag131
atp732
Rp733
I720
sg1
((lp734
g1
((lp735
I1
aI3
aI5
aI6
atp736
Rp737
ag245
ag1
((lp738
I1
aI2
aI3
aI4
atp739
Rp740
ag209
ag32
ag1
((lp741
I3
aI4
aI5
aI6
atp742
Rp743
ag1
((lp744
I1
aI2
aI3
aI6
atp745
Rp746
ag131
atp747
Rp748
I720
sg1
((lp749
g1
((lp750
I1
aI3
aI5
aI6
atp751
Rp752
ag224
ag41
ag14
ag209
ag1
((lp753
I1
aI2
aI3
aI6
atp754
Rp755
ag1
((lp756
I1
aI3
aI4
aI5
atp757
Rp758
ag1
((lp759
I1
aI2
aI4
aI6
atp760
Rp761
atp762
Rp763
I720
sg1
((lp764
g5
ag1
((lp765
I2
aI3
aI5
aI6
atp766
Rp767
ag83
ag209
ag32
ag1
((lp768
I1
aI2
aI3
aI4
atp769
Rp770
ag1
((lp771
I2
aI3
aI4
aI6
atp772
Rp773
ag1
((lp774
I3
aI4
aI5
aI6
atp775
Rp776
atp777
Rp778
I360
sg1
((lp779
g245
ag38
ag83
ag1
((lp780
I1
aI2
aI3
aI5
atp781
Rp782
ag1
((lp783
I1
aI2
aI5
aI6
atp784
Rp785
ag1
((lp786
I1
aI2
aI3
aI4
atp787
Rp788
ag1
((lp789
I1
aI2
aI4
aI5
atp790
Rp791
ag131
atp792
Rp793
I720
sg1
((lp794
g224
ag1
((lp795
I1
aI2
aI3
aI4
atp796
Rp797
ag74
ag209
ag1
((lp798
I1
aI2
aI3
aI6
atp799
Rp800
ag149
ag1
((lp801
I1
aI3
aI4
aI6
atp802
Rp803
ag1
((lp804
I1
aI2
aI4
aI6
atp805
Rp806
atp807
Rp808
I720
sg1
((lp809
g224
ag83
ag14
ag1
((lp810
I3
aI4
aI5
aI6
atp811
Rp812
ag1
((lp813
I1
aI3
aI4
aI5
atp814
Rp815
ag20
ag1
((lp816
I1
aI2
aI4
aI5
atp817
Rp818
ag1
((lp819
I1
aI2
aI4
aI6
atp820
Rp821
atp822
Rp823
I360
sg1
((lp824
g125
ag1
((lp825
I1
aI2
aI4
aI6
atp826
Rp827
ag1
((lp828
I1
aI2
aI3
aI4
atp829
Rp830
ag209
ag1
((lp831
I3
aI4
aI5
aI6
atp832
Rp833
ag20
ag149
ag1
((lp834
I1
aI3
aI4
aI6
atp835
Rp836
atp837
Rp838
I720
sg1
((lp839
g56
ag1
((lp840
I2
aI3
aI5
aI6
atp841
Rp842
ag1
((lp843
I1
aI2
aI4
aI6
atp844
Rp845
ag38
ag14
ag32
ag1
((lp846
I1
aI2
aI3
aI6
atp847
Rp848
ag1
((lp849
I1
aI2
aI5
aI6
atp850
Rp851
atp852
Rp853
I360
sg1
((lp854
g104
ag1
((lp855
I1
aI2
aI3
aI5
atp856
Rp857
ag32
ag1
((lp858
I1
aI2
aI3
aI6
atp859
Rp860
ag1
((lp861
I2
aI3
aI4
aI6
atp862
Rp863
ag1
((lp864
I2
aI4
aI5
aI6
atp865
Rp866
ag131
ag74
atp867
Rp868
I360
sg1
((lp869
g1
((lp870
I1
aI3
aI5
aI6
atp871
Rp872
ag1
((lp873
I2
aI3
aI5
aI6
atp874
Rp875
ag38
ag23
ag1
((lp876
I1
aI4
aI5
aI6
atp877
Rp878
ag209
ag95
ag1
((lp879
I1
aI3
aI4
aI6
atp880
Rp881
atp882
Rp883
I360
sg1
((lp884
g125
ag1
((lp885
I1
aI3
aI4
aI6
atp886
Rp887
ag1
((lp888
I1
aI2
aI3
aI5
atp889
Rp890
ag170
ag74
ag1
((lp891
I2
aI4
aI5
aI6
atp892
Rp893
ag20
ag1
((lp894
I2
aI3
aI4
aI5
atp895
Rp896
atp897
Rp898
I720
sg1
((lp899
g5
ag1
((lp900
I2
aI3
aI5
aI6
atp901
Rp902
ag38
ag1
((lp903
I1
aI2
aI3
aI4
atp904
Rp905
ag62
ag1
((lp906
I1
aI2
aI5
aI6
atp907
Rp908
ag149
ag1
((lp909
I1
aI3
aI4
aI6
atp910
Rp911
atp912
Rp913
I360
sg1
((lp914
g1
((lp915
I1
aI3
aI5
aI6
atp916
Rp917
ag245
ag1
((lp918
I1
aI2
aI3
aI5
atp919
Rp920
ag62
ag32
ag1
((lp921
I1
aI2
aI3
aI6
atp922
Rp923
ag170
ag1
((lp924
I1
aI3
aI4
aI6
atp925
Rp926
atp927
Rp928
I360
sg1
((lp929
g5
ag38
ag1
((lp930
I1
aI4
aI5
aI6
atp931
Rp932
ag170
ag1
((lp933
I1
aI2
aI5
aI6
atp934
Rp935
ag1
((lp936
I1
aI2
aI3
aI6
atp937
Rp938
ag1
((lp939
I2
aI3
aI4
aI6
atp940
Rp941
ag74
atp942
Rp943
I720
sg1
((lp944
g125
ag41
ag23
ag245
ag1
((lp945
I3
aI4
aI5
aI6
atp946
Rp947
ag1
((lp948
I1
aI3
aI4
aI5
atp949
Rp950
ag1
((lp951
I1
aI2
aI4
aI5
atp952
Rp953
ag1
((lp954
I1
aI3
aI4
aI6
atp955
Rp956
atp957
Rp958
I360
sg1
((lp959
g224
ag1
((lp960
I1
aI3
aI4
aI6
atp961
Rp962
ag1
((lp963
I1
aI2
aI3
aI5
atp964
Rp965
ag170
ag1
((lp966
I1
aI2
aI3
aI6
atp967
Rp968
ag74
ag20
ag1
((lp969
I2
aI3
aI4
aI5
atp970
Rp971
atp972
Rp973
I360
sg1
((lp974
g56
ag1
((lp975
I2
aI3
aI5
aI6
atp976
Rp977
ag38
ag1
((lp978
I1
aI2
aI3
aI4
atp979
Rp980
ag62
ag1
((lp981
I1
aI2
aI3
aI6
atp982
Rp983
ag1
((lp984
I1
aI2
aI4
aI5
atp985
Rp986
ag131
atp987
Rp988
I720
sg1
((lp989
g1
((lp990
I1
aI3
aI5
aI6
atp991
Rp992
ag1
((lp993
I1
aI2
aI4
aI6
atp994
Rp995
ag38
ag41
ag209
ag32
ag1
((lp996
I2
aI3
aI4
aI6
atp997
Rp998
ag1
((lp999
I2
aI4
aI5
aI6
atp1000
Rp1001
atp1002
Rp1003
I180
sg1
((lp1004
g56
ag1
((lp1005
I1
aI2
aI4
aI6
atp1006
Rp1007
ag83
ag32
ag104
ag1
((lp1008
I2
aI4
aI5
aI6
atp1009
Rp1010
ag1
((lp1011
I2
aI3
aI4
aI5
atp1012
Rp1013
ag1
((lp1014
I1
aI2
aI5
aI6
atp1015
Rp1016
atp1017
Rp1018
I720
sg1
((lp1019
g56
ag125
ag1
((lp1020
I1
aI2
aI4
aI6
atp1021
Rp1022
ag38
ag1
((lp1023
I1
aI2
aI3
aI5
atp1024
Rp1025
ag1
((lp1026
I1
aI2
aI5
aI6
atp1027
Rp1028
ag104
ag1
((lp1029
I1
aI2
aI4
aI5
atp1030
Rp1031
atp1032
Rp1033
I720
sg1
((lp1034
g245
ag83
ag1
((lp1035
I1
aI2
aI5
aI6
atp1036
Rp1037
ag41
ag1
((lp1038
I1
aI2
aI3
aI4
atp1039
Rp1040
ag1
((lp1041
I1
aI3
aI4
aI5
atp1042
Rp1043
ag1
((lp1044
I1
aI2
aI4
aI5
atp1045
Rp1046
ag74
atp1047
Rp1048
I720
sg1
((lp1049
g1
((lp1050
I1
aI3
aI5
aI6
atp1051
Rp1052
ag245
ag23
ag14
ag62
ag1
((lp1053
I1
aI2
aI5
aI6
atp1054
Rp1055
ag1
((lp1056
I1
aI3
aI4
aI5
atp1057
Rp1058
ag1
((lp1059
I1
aI3
aI4
aI6
atp1060
Rp1061
atp1062
Rp1063
I720
sg1
((lp1064
g1
((lp1065
I1
aI3
aI5
aI6
atp1066
Rp1067
ag125
ag41
ag209
ag170
ag1
((lp1068
I3
aI4
aI5
aI6
atp1069
Rp1070
ag1
((lp1071
I1
aI4
aI5
aI6
atp1072
Rp1073
ag1
((lp1074
I1
aI3
aI4
aI6
atp1075
Rp1076
atp1077
Rp1078
I720
sg1
((lp1079
g125
ag1
((lp1080
I1
aI2
aI4
aI6
atp1081
Rp1082
ag83
ag1
((lp1083
I1
aI2
aI3
aI5
atp1084
Rp1085
ag62
ag32
ag1
((lp1086
I1
aI2
aI3
aI4
atp1087
Rp1088
ag1
((lp1089
I2
aI3
aI4
aI5
atp1090
Rp1091
atp1092
Rp1093
I720
sg1
((lp1094
g5
ag1
((lp1095
I1
aI2
aI4
aI6
atp1096
Rp1097
ag38
ag1
((lp1098
I1
aI2
aI3
aI4
atp1099
Rp1100
ag209
ag62
ag1
((lp1101
I2
aI3
aI5
aI6
atp1102
Rp1103
ag1
((lp1104
I1
aI2
aI3
aI6
atp1105
Rp1106
atp1107
Rp1108
I720
sg1
((lp1109
g83
ag245
ag1
((lp1110
I1
aI2
aI3
aI4
atp1111
Rp1112
ag1
((lp1113
I1
aI3
aI4
aI5
atp1114
Rp1115
ag95
ag20
ag1
((lp1116
I2
aI3
aI4
aI5
atp1117
Rp1118
ag1
((lp1119
I1
aI2
aI4
aI5
atp1120
Rp1121
atp1122
Rp1123
I360
sg1
((lp1124
g1
((lp1125
I1
aI3
aI5
aI6
atp1126
Rp1127
ag1
((lp1128
I1
aI2
aI4
aI6
atp1129
Rp1130
ag38
ag23
ag14
ag1
((lp1131
I1
aI2
aI5
aI6
atp1132
Rp1133
ag149
ag1
((lp1134
I1
aI3
aI4
aI6
atp1135
Rp1136
atp1137
Rp1138
I360
sg1
((lp1139
g83
ag1
((lp1140
I2
aI3
aI4
aI6
atp1141
Rp1142
ag209
ag41
ag1
((lp1143
I1
aI2
aI3
aI4
atp1144
Rp1145
ag1
((lp1146
I1
aI3
aI4
aI5
atp1147
Rp1148
ag1
((lp1149
I3
aI4
aI5
aI6
atp1150
Rp1151
ag131
atp1152
Rp1153
I360
sg1
((lp1154
g1
((lp1155
I1
aI3
aI5
aI6
atp1156
Rp1157
ag41
ag1
((lp1158
I1
aI4
aI5
aI6
atp1159
Rp1160
ag245
ag209
ag1
((lp1161
I1
aI3
aI4
aI5
atp1162
Rp1163
ag95
ag1
((lp1164
I1
aI3
aI4
aI6
atp1165
Rp1166
atp1167
Rp1168
I360
sg1
((lp1169
g56
ag5
ag1
((lp1170
I1
aI2
aI4
aI6
atp1171
Rp1172
ag83
ag1
((lp1173
I1
aI2
aI5
aI6
atp1174
Rp1175
ag41
ag1
((lp1176
I1
aI2
aI3
aI4
atp1177
Rp1178
ag1
((lp1179
I2
aI4
aI5
aI6
atp1180
Rp1181
atp1182
Rp1183
I720
sg1
((lp1184
g5
ag1
((lp1185
I1
aI2
aI3
aI4
atp1186
Rp1187
ag209
ag32
ag1
((lp1188
I3
aI4
aI5
aI6
atp1189
Rp1190
ag1
((lp1191
I1
aI2
aI3
aI6
atp1192
Rp1193
ag1
((lp1194
I2
aI3
aI4
aI6
atp1195
Rp1196
ag20
atp1197
Rp1198
I360
sg1
((lp1199
g149
ag1
((lp1200
I2
aI3
aI5
aI6
atp1201
Rp1202
ag1
((lp1203
I1
aI2
aI3
aI5
atp1204
Rp1205
ag62
ag32
ag1
((lp1206
I1
aI2
aI3
aI6
atp1207
Rp1208
ag1
((lp1209
I2
aI3
aI4
aI6
atp1210
Rp1211
ag131
atp1212
Rp1213
I720
sg1
((lp1214
g1
((lp1215
I2
aI3
aI5
aI6
atp1216
Rp1217
ag1
((lp1218
I1
aI2
aI3
aI4
atp1219
Rp1220
ag1
((lp1221
I1
aI2
aI3
aI5
atp1222
Rp1223
ag62
ag245
ag95
ag20
ag1
((lp1224
I1
aI3
aI4
aI6
atp1225
Rp1226
atp1227
Rp1228
I360
sg1
((lp1229
g224
ag38
ag1
((lp1230
I1
aI2
aI3
aI5
atp1231
Rp1232
ag1
((lp1233
I1
aI4
aI5
aI6
atp1234
Rp1235
ag104
ag1
((lp1236
I2
aI3
aI4
aI6
atp1237
Rp1238
ag95
ag1
((lp1239
I1
aI2
aI4
aI5
atp1240
Rp1241
atp1242
Rp1243
I180
sg1
((lp1244
g1
((lp1245
I1
aI2
aI4
aI6
atp1246
Rp1247
ag38
ag41
ag14
ag1
((lp1248
I1
aI4
aI5
aI6
atp1249
Rp1250
ag1
((lp1251
I1
aI2
aI5
aI6
atp1252
Rp1253
ag1
((lp1254
I1
aI2
aI4
aI5
atp1255
Rp1256
ag23
atp1257
Rp1258
I360
sg1
((lp1259
g245
ag5
ag1
((lp1260
I2
aI3
aI5
aI6
atp1261
Rp1262
ag83
ag1
((lp1263
I1
aI4
aI5
aI6
atp1264
Rp1265
ag1
((lp1266
I1
aI2
aI5
aI6
atp1267
Rp1268
ag1
((lp1269
I3
aI4
aI5
aI6
atp1270
Rp1271
ag149
atp1272
Rp1273
I45
sg1
((lp1274
g56
ag1
((lp1275
I1
aI2
aI4
aI6
atp1276
Rp1277
ag1
((lp1278
I2
aI3
aI5
aI6
atp1279
Rp1280
ag83
ag1
((lp1281
I1
aI2
aI3
aI5
atp1282
Rp1283
ag1
((lp1284
I1
aI4
aI5
aI6
atp1285
Rp1286
ag104
ag149
atp1287
Rp1288
I180
sg1
((lp1289
g5
ag1
((lp1290
I2
aI3
aI5
aI6
atp1291
Rp1292
ag83
ag209
ag1
((lp1293
I3
aI4
aI5
aI6
atp1294
Rp1295
ag1
((lp1296
I2
aI4
aI5
aI6
atp1297
Rp1298
ag20
ag1
((lp1299
I2
aI3
aI4
aI5
atp1300
Rp1301
atp1302
Rp1303
I360
sg1
((lp1304
g41
ag74
ag1
((lp1305
I2
aI3
aI4
aI6
atp1306
Rp1307
ag209
ag170
ag1
((lp1308
I1
aI3
aI4
aI5
atp1309
Rp1310
ag1
((lp1311
I2
aI4
aI5
aI6
atp1312
Rp1313
ag1
((lp1314
I1
aI3
aI4
aI6
atp1315
Rp1316
atp1317
Rp1318
I720
sg1
((lp1319
g125
ag83
ag74
ag1
((lp1320
I1
aI4
aI5
aI6
atp1321
Rp1322
ag1
((lp1323
I1
aI2
aI3
aI4
atp1324
Rp1325
ag209
ag1
((lp1326
I1
aI3
aI4
aI5
atp1327
Rp1328
ag1
((lp1329
I2
aI3
aI4
aI5
atp1330
Rp1331
atp1332
Rp1333
I360
sg1
((lp1334
g56
ag83
ag1
((lp1335
I1
aI3
aI4
aI5
atp1336
Rp1337
ag1
((lp1338
I2
aI4
aI5
aI6
atp1339
Rp1340
ag20
ag131
ag1
((lp1341
I2
aI3
aI4
aI5
atp1342
Rp1343
ag1
((lp1344
I1
aI2
aI4
aI5
atp1345
Rp1346
atp1347
Rp1348
I720
sg1
((lp1349
g56
ag1
((lp1350
I1
aI3
aI5
aI6
atp1351
Rp1352
ag1
((lp1353
I1
aI2
aI3
aI5
atp1354
Rp1355
ag62
ag32
ag131
ag1
((lp1356
I2
aI3
aI4
aI5
atp1357
Rp1358
ag1
((lp1359
I1
aI2
aI5
aI6
atp1360
Rp1361
atp1362
Rp1363
I720
sg1
((lp1364
g56
ag5
ag1
((lp1365
I2
aI3
aI5
aI6
atp1366
Rp1367
ag38
ag1
((lp1368
I1
aI2
aI3
aI4
atp1369
Rp1370
ag62
ag1
((lp1371
I1
aI2
aI3
aI6
atp1372
Rp1373
ag1
((lp1374
I1
aI2
aI4
aI5
atp1375
Rp1376
atp1377
Rp1378
I720
sg1
((lp1379
g1
((lp1380
I1
aI2
aI4
aI6
atp1381
Rp1382
ag1
((lp1383
I2
aI3
aI5
aI6
atp1384
Rp1385
ag104
ag209
ag62
ag32
ag1
((lp1386
I1
aI2
aI3
aI6
atp1387
Rp1388
ag1
((lp1389
I2
aI3
aI4
aI5
atp1390
Rp1391
atp1392
Rp1393
I360
sg1
((lp1394
g125
ag1
((lp1395
I3
aI4
aI5
aI6
atp1396
Rp1397
ag23
ag104
ag1
((lp1398
I2
aI4
aI5
aI6
atp1399
Rp1400
ag20
ag1
((lp1401
I2
aI3
aI4
aI5
atp1402
Rp1403
ag1
((lp1404
I1
aI2
aI4
aI5
atp1405
Rp1406
atp1407
Rp1408
I720
sg1
((lp1409
g125
ag14
ag1
((lp1410
I1
aI4
aI5
aI6
atp1411
Rp1412
ag170
ag1
((lp1413
I1
aI3
aI4
aI5
atp1414
Rp1415
ag1
((lp1416
I2
aI4
aI5
aI6
atp1417
Rp1418
ag1
((lp1419
I1
aI3
aI4
aI6
atp1420
Rp1421
ag95
atp1422
Rp1423
I720
sg1
((lp1424
g32
ag5
ag170
ag1
((lp1425
I1
aI2
aI5
aI6
atp1426
Rp1427
ag104
ag1
((lp1428
I2
aI3
aI4
aI6
atp1429
Rp1430
ag1
((lp1431
I2
aI4
aI5
aI6
atp1432
Rp1433
ag1
((lp1434
I2
aI3
aI4
aI5
atp1435
Rp1436
atp1437
Rp1438
I720
sg1
((lp1439
g125
ag38
ag1
((lp1440
I1
aI2
aI3
aI4
atp1441
Rp1442
ag74
ag1
((lp1443
I1
aI2
aI3
aI5
atp1444
Rp1445
ag32
ag1
((lp1446
I2
aI4
aI5
aI6
atp1447
Rp1448
ag1
((lp1449
I1
aI3
aI4
aI6
atp1450
Rp1451
atp1452
Rp1453
I720
sg1
((lp1454
g56
ag1
((lp1455
I1
aI2
aI4
aI6
atp1456
Rp1457
ag83
ag23
ag74
ag1
((lp1458
I1
aI3
aI4
aI5
atp1459
Rp1460
ag1
((lp1461
I2
aI4
aI5
aI6
atp1462
Rp1463
ag1
((lp1464
I2
aI3
aI4
aI5
atp1465
Rp1466
atp1467
Rp1468
I720
sg1
((lp1469
g56
ag125
ag224
ag1
((lp1470
I1
aI2
aI3
aI4
atp1471
Rp1472
ag1
((lp1473
I1
aI2
aI3
aI5
atp1474
Rp1475
ag62
ag1
((lp1476
I1
aI3
aI4
aI5
atp1477
Rp1478
ag1
((lp1479
I1
aI2
aI4
aI5
atp1480
Rp1481
atp1482
Rp1483
I90
sg1
((lp1484
g1
((lp1485
I1
aI3
aI5
aI6
atp1486
Rp1487
ag1
((lp1488
I2
aI3
aI5
aI6
atp1489
Rp1490
ag38
ag104
ag170
ag1
((lp1491
I1
aI2
aI3
aI6
atp1492
Rp1493
ag1
((lp1494
I1
aI2
aI3
aI5
atp1495
Rp1496
ag149
atp1497
Rp1498
I360
sg1
((lp1499
g1
((lp1500
I1
aI2
aI4
aI6
atp1501
Rp1502
ag38
ag83
ag1
((lp1503
I1
aI2
aI3
aI5
atp1504
Rp1505
ag62
ag1
((lp1506
I1
aI2
aI5
aI6
atp1507
Rp1508
ag1
((lp1509
I1
aI2
aI3
aI4
atp1510
Rp1511
ag149
atp1512
Rp1513
I180
sg1
((lp1514
g125
ag74
ag14
ag1
((lp1515
I1
aI4
aI5
aI6
atp1516
Rp1517
ag1
((lp1518
I1
aI3
aI4
aI5
atp1519
Rp1520
ag95
ag1
((lp1521
I1
aI2
aI4
aI5
atp1522
Rp1523
ag1
((lp1524
I1
aI3
aI4
aI6
atp1525
Rp1526
atp1527
Rp1528
I360
sg1
((lp1529
g224
ag41
ag62
ag1
((lp1530
I1
aI2
aI3
aI4
atp1531
Rp1532
ag1
((lp1533
I1
aI2
aI3
aI6
atp1534
Rp1535
ag1
((lp1536
I2
aI3
aI4
aI6
atp1537
Rp1538
ag20
ag1
((lp1539
I1
aI2
aI4
aI6
atp1540
Rp1541
atp1542
Rp1543
I360
sg1
((lp1544
g56
ag125
ag1
((lp1545
I1
aI3
aI5
aI6
atp1546
Rp1547
ag1
((lp1548
I1
aI2
aI3
aI5
atp1549
Rp1550
ag95
ag1
((lp1551
I1
aI2
aI4
aI5
atp1552
Rp1553
ag131
ag1
((lp1554
I2
aI3
aI4
aI5
atp1555
Rp1556
atp1557
Rp1558
I360
sg1
((lp1559
g1
((lp1560
I1
aI3
aI5
aI6
atp1561
Rp1562
ag125
ag1
((lp1563
I1
aI2
aI4
aI6
atp1564
Rp1565
ag38
ag41
ag1
((lp1566
I1
aI2
aI5
aI6
atp1567
Rp1568
ag32
ag1
((lp1569
I1
aI3
aI4
aI6
atp1570
Rp1571
atp1572
Rp1573
I360
sg1
((lp1574
g56
ag5
ag1
((lp1575
I2
aI3
aI5
aI6
atp1576
Rp1577
ag23
ag1
((lp1578
I1
aI2
aI5
aI6
atp1579
Rp1580
ag1
((lp1581
I1
aI2
aI4
aI5
atp1582
Rp1583
ag131
ag1
((lp1584
I2
aI3
aI4
aI5
atp1585
Rp1586
atp1587
Rp1588
I90
sg1
((lp1589
g5
ag1
((lp1590
I3
aI4
aI5
aI6
atp1591
Rp1592
ag1
((lp1593
I1
aI4
aI5
aI6
atp1594
Rp1595
ag170
ag209
ag1
((lp1596
I2
aI3
aI4
aI6
atp1597
Rp1598
ag95
ag1
((lp1599
I1
aI3
aI4
aI6
atp1600
Rp1601
atp1602
Rp1603
I360
sg1
((lp1604
g1
((lp1605
I1
aI2
aI3
aI4
atp1606
Rp1607
ag1
((lp1608
I1
aI2
aI3
aI5
atp1609
Rp1610
ag62
ag32
ag1
((lp1611
I1
aI2
aI3
aI6
atp1612
Rp1613
ag1
((lp1614
I2
aI3
aI4
aI6
atp1615
Rp1616
ag20
ag131
atp1617
Rp1618
I180
sg1
((lp1619
g5
ag38
ag1
((lp1620
I1
aI2
aI3
aI4
atp1621
Rp1622
ag32
ag1
((lp1623
I1
aI2
aI3
aI6
atp1624
Rp1625
ag1
((lp1626
I2
aI4
aI5
aI6
atp1627
Rp1628
ag20
ag1
((lp1629
I1
aI3
aI4
aI6
atp1630
Rp1631
atp1632
Rp1633
I720
sg1
((lp1634
g5
ag224
ag74
ag14
ag1
((lp1635
I1
aI4
aI5
aI6
atp1636
Rp1637
ag1
((lp1638
I1
aI2
aI3
aI6
atp1639
Rp1640
ag1
((lp1641
I1
aI2
aI4
aI5
atp1642
Rp1643
ag1
((lp1644
I1
aI3
aI4
aI6
atp1645
Rp1646
atp1647
Rp1648
I720
sg1
((lp1649
g56
ag1
((lp1650
I2
aI3
aI5
aI6
atp1651
Rp1652
ag38
ag83
ag14
ag1
((lp1653
I1
aI4
aI5
aI6
atp1654
Rp1655
ag1
((lp1656
I1
aI2
aI3
aI5
atp1657
Rp1658
ag1
((lp1659
I1
aI2
aI5
aI6
atp1660
Rp1661
atp1662
Rp1663
I720
sg1
((lp1664
g56
ag38
ag1
((lp1665
I1
aI3
aI5
aI6
atp1666
Rp1667
ag1
((lp1668
I1
aI4
aI5
aI6
atp1669
Rp1670
ag170
ag1
((lp1671
I1
aI2
aI5
aI6
atp1672
Rp1673
ag1
((lp1674
I2
aI4
aI5
aI6
atp1675
Rp1676
ag23
atp1677
Rp1678
I360
sg1
((lp1679
g1
((lp1680
I2
aI3
aI5
aI6
atp1681
Rp1682
ag1
((lp1683
I3
aI4
aI5
aI6
atp1684
Rp1685
ag209
ag104
ag95
ag1
((lp1686
I2
aI4
aI5
aI6
atp1687
Rp1688
ag20
ag1
((lp1689
I2
aI3
aI4
aI5
atp1690
Rp1691
atp1692
Rp1693
I180
sg1
((lp1694
g56
ag5
ag1
((lp1695
I2
aI3
aI5
aI6
atp1696
Rp1697
ag83
ag1
((lp1698
I2
aI4
aI5
aI6
atp1699
Rp1700
ag20
ag1
((lp1701
I2
aI3
aI4
aI5
atp1702
Rp1703
ag1
((lp1704
I1
aI2
aI4
aI5
atp1705
Rp1706
atp1707
Rp1708
I360
sg1
((lp1709
g245
ag1
((lp1710
I2
aI3
aI5
aI6
atp1711
Rp1712
ag14
ag1
((lp1713
I1
aI4
aI5
aI6
atp1714
Rp1715
ag170
ag1
((lp1716
I1
aI2
aI5
aI6
atp1717
Rp1718
ag1
((lp1719
I1
aI2
aI3
aI6
atp1720
Rp1721
ag149
atp1722
Rp1723
I360
sg1
((lp1724
g224
ag83
ag1
((lp1725
I2
aI3
aI4
aI6
atp1726
Rp1727
ag1
((lp1728
I1
aI2
aI3
aI5
atp1729
Rp1730
ag62
ag1
((lp1731
I1
aI3
aI4
aI5
atp1732
Rp1733
ag1
((lp1734
I1
aI2
aI4
aI5
atp1735
Rp1736
ag131
atp1737
Rp1738
I360
sg1
((lp1739
g5
ag224
ag1
((lp1740
I1
aI3
aI4
aI6
atp1741
Rp1742
ag245
ag1
((lp1743
I1
aI2
aI3
aI6
atp1744
Rp1745
ag20
ag1
((lp1746
I2
aI3
aI4
aI5
atp1747
Rp1748
ag1
((lp1749
I1
aI2
aI4
aI5
atp1750
Rp1751
atp1752
Rp1753
I360
sg1
((lp1754
g5
ag1
((lp1755
I1
aI2
aI4
aI6
atp1756
Rp1757
ag38
ag209
ag32
ag1
((lp1758
I1
aI2
aI3
aI6
atp1759
Rp1760
ag1
((lp1761
I2
aI3
aI4
aI6
atp1762
Rp1763
ag1
((lp1764
I1
aI3
aI4
aI6
atp1765
Rp1766
atp1767
Rp1768
I360
sg1
((lp1769
g224
ag1
((lp1770
I1
aI3
aI4
aI6
atp1771
Rp1772
ag62
ag245
ag1
((lp1773
I1
aI3
aI4
aI5
atp1774
Rp1775
ag1
((lp1776
I1
aI2
aI4
aI5
atp1777
Rp1778
ag23
ag1
((lp1779
I2
aI3
aI4
aI5
atp1780
Rp1781
atp1782
Rp1783
I360
sg1
((lp1784
g1
((lp1785
I1
aI3
aI5
aI6
atp1786
Rp1787
ag125
ag14
ag1
((lp1788
I1
aI4
aI5
aI6
atp1789
Rp1790
ag1
((lp1791
I1
aI2
aI3
aI5
atp1792
Rp1793
ag245
ag95
ag1
((lp1794
I1
aI2
aI4
aI5
atp1795
Rp1796
atp1797
Rp1798
I360
sg1
((lp1799
g56
ag1
((lp1800
I2
aI3
aI5
aI6
atp1801
Rp1802
ag1
((lp1803
I1
aI3
aI5
aI6
atp1804
Rp1805
ag23
ag62
ag1
((lp1806
I1
aI2
aI5
aI6
atp1807
Rp1808
ag104
ag1
((lp1809
I2
aI3
aI4
aI5
atp1810
Rp1811
atp1812
Rp1813
I720
sg1
((lp1814
g5
ag38
ag41
ag1
((lp1815
I1
aI4
aI5
aI6
atp1816
Rp1817
ag1
((lp1818
I1
aI2
aI5
aI6
atp1819
Rp1820
ag1
((lp1821
I2
aI4
aI5
aI6
atp1822
Rp1823
ag1
((lp1824
I1
aI2
aI4
aI5
atp1825
Rp1826
ag74
atp1827
Rp1828
I30
sg1
((lp1829
g56
ag1
((lp1830
I1
aI2
aI3
aI4
atp1831
Rp1832
ag62
ag245
ag248
ag131
ag254
ag1
((lp1833
I1
aI2
aI5
aI6
atp1834
Rp1835
atp1836
Rp1837
I120
sg1
((lp1838
g5
ag1
((lp1839
I1
aI2
aI4
aI6
atp1840
Rp1841
ag1
((lp1842
I2
aI3
aI5
aI6
atp1843
Rp1844
ag209
ag32
ag1193
ag1
((lp1845
I2
aI4
aI5
aI6
atp1846
Rp1847
ag20
atp1848
Rp1849
I90
sg1
((lp1850
g224
ag245
ag1
((lp1851
I1
aI2
aI3
aI6
atp1852
Rp1853
ag1
((lp1854
I1
aI3
aI4
aI5
atp1855
Rp1856
ag20
ag131
ag1
((lp1857
I2
aI3
aI4
aI5
atp1858
Rp1859
ag1
((lp1860
I1
aI2
aI4
aI5
atp1861
Rp1862
atp1863
Rp1864
I180
sg1
((lp1865
g1
((lp1866
I1
aI3
aI5
aI6
atp1867
Rp1868
ag224
ag41
ag1
((lp1869
I1
aI4
aI5
aI6
atp1870
Rp1871
ag245
ag1
((lp1872
I1
aI2
aI3
aI4
atp1873
Rp1874
ag1
((lp1875
I1
aI3
aI4
aI5
atp1876
Rp1877
ag95
atp1878
Rp1879
I720
sg1
((lp1880
g56
ag1
((lp1881
I1
aI3
aI5
aI6
atp1882
Rp1883
ag23
ag1
((lp1884
I1
aI4
aI5
aI6
atp1885
Rp1886
ag245
ag1
((lp1887
I1
aI3
aI4
aI5
atp1888
Rp1889
ag95
ag1
((lp1890
I2
aI3
aI4
aI5
atp1891
Rp1892
atp1893
Rp1894
I720
sg1
((lp1895
g224
ag83
ag1
((lp1896
I1
aI2
aI3
aI5
atp1897
Rp1898
ag245
ag1
((lp1899
I1
aI2
aI3
aI4
atp1900
Rp1901
ag1
((lp1902
I1
aI3
aI4
aI5
atp1903
Rp1904
ag95
ag1
((lp1905
I3
aI4
aI5
aI6
atp1906
Rp1907
atp1908
Rp1909
I360
sg1
((lp1910
g32
ag1
((lp1911
I3
aI4
aI5
aI6
atp1912
Rp1913
ag23
ag1
((lp1914
I1
aI2
aI5
aI6
atp1915
Rp1916
ag104
ag1
((lp1917
I2
aI3
aI4
aI6
atp1918
Rp1919
ag131
ag1
((lp1920
I2
aI3
aI4
aI5
atp1921
Rp1922
atp1923
Rp1924
I360
sg1
((lp1925
g245
ag38
ag1
((lp1926
I1
aI2
aI3
aI4
atp1927
Rp1928
ag1
((lp1929
I1
aI2
aI3
aI5
atp1930
Rp1931
ag32
ag1
((lp1932
I1
aI2
aI3
aI6
atp1933
Rp1934
ag149
ag1
((lp1935
I1
aI3
aI4
aI6
atp1936
Rp1937
atp1938
Rp1939
I360
sg1
((lp1940
g56
ag83
ag1
((lp1941
I1
aI2
aI3
aI5
atp1942
Rp1943
ag1
((lp1944
I1
aI2
aI5
aI6
atp1945
Rp1946
ag104
ag1
((lp1947
I2
aI4
aI5
aI6
atp1948
Rp1949
ag131
ag1
((lp1950
I2
aI3
aI4
aI5
atp1951
Rp1952
atp1953
Rp1954
I45
sg1
((lp1955
g56
ag1
((lp1956
I1
aI3
aI5
aI6
atp1957
Rp1958
ag1
((lp1959
I1
aI2
aI3
aI5
atp1960
Rp1961
ag1
((lp1962
I1
aI4
aI5
aI6
atp1963
Rp1964
ag245
ag104
ag95
ag1
((lp1965
I1
aI2
aI4
aI5
atp1966
Rp1967
atp1968
Rp1969
I360
sg1
((lp1970
g149
ag1
((lp1971
I1
aI2
aI3
aI5
atp1972
Rp1973
ag1
((lp1974
I1
aI4
aI5
aI6
atp1975
Rp1976
ag14
ag1
((lp1977
I1
aI3
aI4
aI5
atp1978
Rp1979
ag95
ag170
ag1
((lp1980
I1
aI3
aI4
aI6
atp1981
Rp1982
atp1983
Rp1984
I360
sg1
((lp1985
g56
ag1
((lp1986
I1
aI2
aI4
aI6
atp1987
Rp1988
ag38
ag74
ag1
((lp1989
I1
aI2
aI5
aI6
atp1990
Rp1991
ag1
((lp1992
I2
aI4
aI5
aI6
atp1993
Rp1994
ag1
((lp1995
I1
aI2
aI4
aI5
atp1996
Rp1997
ag23
atp1998
Rp1999
I120
sg1
((lp2000
g1
((lp2001
I2
aI3
aI5
aI6
atp2002
Rp2003
ag1
((lp2004
I1
aI2
aI3
aI4
atp2005
Rp2006
ag209
ag62
ag32
ag1
((lp2007
I2
aI3
aI4
aI6
atp2008
Rp2009
ag149
ag1
((lp2010
I1
aI3
aI4
aI6
atp2011
Rp2012
atp2013
Rp2014
I720
sg1
((lp2015
g125
ag1
((lp2016
I3
aI4
aI5
aI6
atp2017
Rp2018
ag14
ag1
((lp2019
I1
aI4
aI5
aI6
atp2020
Rp2021
ag1
((lp2022
I1
aI2
aI3
aI5
atp2023
Rp2024
ag104
ag95
ag1
((lp2025
I2
aI4
aI5
aI6
atp2026
Rp2027
atp2028
Rp2029
I360
sg1
((lp2030
g1
((lp2031
I1
aI3
aI5
aI6
atp2032
Rp2033
ag224
ag38
ag1
((lp2034
I1
aI2
aI3
aI4
atp2035
Rp2036
ag62
ag32
ag1
((lp2037
I2
aI3
aI4
aI6
atp2038
Rp2039
ag1
((lp2040
I1
aI2
aI4
aI6
atp2041
Rp2042
atp2043
Rp2044
I360
sg1
((lp2045
g125
ag1
((lp2046
I1
aI2
aI4
aI6
atp2047
Rp2048
ag1
((lp2049
I1
aI3
aI4
aI6
atp2050
Rp2051
ag32
ag74
ag1
((lp2052
I2
aI4
aI5
aI6
atp2053
Rp2054
ag20
ag1
((lp2055
I2
aI3
aI4
aI5
atp2056
Rp2057
atp2058
Rp2059
I720
sg1
((lp2060
g224
ag41
ag209
ag1
((lp2061
I1
aI2
aI3
aI6
atp2062
Rp2063
ag1
((lp2064
I2
aI3
aI4
aI6
atp2065
Rp2066
ag20
ag1
((lp2067
I1
aI3
aI4
aI6
atp2068
Rp2069
ag1
((lp2070
I1
aI2
aI4
aI6
atp2071
Rp2072
atp2073
Rp2074
I720
sg1
((lp2075
g56
ag5
ag1
((lp2076
I1
aI2
aI3
aI4
atp2077
Rp2078
ag62
ag1
((lp2079
I1
aI2
aI5
aI6
atp2080
Rp2081
ag1
((lp2082
I1
aI2
aI3
aI6
atp2083
Rp2084
ag1
((lp2085
I1
aI2
aI4
aI5
atp2086
Rp2087
ag131
atp2088
Rp2089
I180
sg1
((lp2090
g41
ag209
ag245
ag1
((lp2091
I1
aI2
aI3
aI4
atp2092
Rp2093
ag1
((lp2094
I1
aI2
aI3
aI6
atp2095
Rp2096
ag1
((lp2097
I1
aI3
aI4
aI5
atp2098
Rp2099
ag1
((lp2100
I3
aI4
aI5
aI6
atp2101
Rp2102
ag131
atp2103
Rp2104
I720
s.