(dp0
c__builtin__
frozenset
p1
((lp2
g1
((lp3
I3
aI4
aI6
atp4
Rp5
ag1
((lp6
I3
aI5
aI6
atp7
Rp8
ag1
((lp9
I2
aI3
aI6
atp10
Rp11
ag1
((lp12
I2
aI5
aI6
atp13
Rp14
ag1
((lp15
I3
aI4
aI5
atp16
Rp17
ag1
((lp18
I1
aI3
aI6
atp19
Rp20
ag1
((lp21
I1
aI2
aI3
atp22
Rp23
ag1
((lp24
I2
aI4
aI5
atp25
Rp26
ag1
((lp27
I2
aI3
aI4
atp28
Rp29
ag1
((lp30
I1
aI2
aI4
atp31
Rp32
ag1
((lp33
I1
aI4
aI5
atp34
Rp35
ag1
((lp36
I2
aI3
aI5
atp37
Rp38
ag1
((lp39
I1
aI3
aI4
atp40
Rp41
ag1
((lp42
I1
aI3
aI5
atp43
Rp44
ag1
((lp45
I1
aI2
aI6
atp46
Rp47
ag1
((lp48
I1
aI5
aI6
atp49
Rp50
ag1
((lp51
I1
aI4
aI6
atp52
Rp53
ag1
((lp54
I4
aI5
aI6
atp55
Rp56
atp57
Rp58
I90
sg1
((lp59
g5
ag11
ag14
ag17
ag20
ag8
ag29
ag1
((lp60
I1
aI2
aI5
atp61
Rp62
ag32
ag1
((lp63
I2
aI4
aI6
atp64
Rp65
ag38
ag41
ag44
ag35
ag47
ag50
ag26
ag23
atp66
Rp67
I90
sg1
((lp68
g5
ag11
ag14
ag17
ag20
ag8
ag26
ag29
ag62
ag32
ag65
ag41
ag44
ag35
ag47
ag50
ag56
ag23
atp69
Rp70
I10
s.