(dp0
c__builtin__
frozenset
p1
((lp2
g1
((lp3
I1
aI3
aI5
aI6
atp4
Rp5
ag1
((lp6
I2
aI5
aI6
atp7
Rp8
ag1
((lp9
I1
aI2
aI3
aI4
atp10
Rp11
ag1
((lp12
I1
aI4
aI5
aI6
atp13
Rp14
ag1
((lp15
I2
aI4
aI6
atp16
Rp17
ag1
((lp18
I3
aI4
aI5
aI6
atp19
Rp20
ag1
((lp21
I1
aI2
aI3
aI6
atp22
Rp23
ag1
((lp24
I1
aI3
aI4
aI5
atp25
Rp26
ag1
((lp27
I1
aI2
aI4
aI5
atp28
Rp29
ag1
((lp30
I2
aI3
aI4
aI5
atp31
Rp32
atp33
Rp34
I180
sg1
((lp35
g1
((lp36
I1
aI3
aI5
aI6
atp37
Rp38
ag1
((lp39
I1
aI2
aI4
aI6
atp40
Rp41
ag1
((lp42
I2
aI3
aI5
aI6
atp43
Rp44
ag1
((lp45
I3
aI4
aI5
aI6
atp46
Rp47
ag1
((lp48
I1
aI2
aI5
atp49
Rp50
ag1
((lp51
I1
aI2
aI3
aI6
atp52
Rp53
ag1
((lp54
I1
aI4
aI5
aI6
atp55
Rp56
ag1
((lp57
I2
aI3
aI4
aI6
atp58
Rp59
ag1
((lp60
I2
aI4
aI5
atp61
Rp62
ag1
((lp63
I1
aI3
aI4
aI6
atp64
Rp65
atp66
Rp67
I180
sg1
((lp68
g1
((lp69
I1
aI3
aI5
aI6
atp70
Rp71
ag1
((lp72
I2
aI3
aI6
atp73
Rp74
ag1
((lp75
I1
aI2
aI3
aI4
atp76
Rp77
ag1
((lp78
I1
aI2
aI3
aI5
atp79
Rp80
ag1
((lp81
I1
aI4
aI5
aI6
atp82
Rp83
ag1
((lp84
I1
aI3
aI4
aI5
atp85
Rp86
ag1
((lp87
I2
aI4
aI5
aI6
atp88
Rp89
ag1
((lp90
I1
aI2
aI4
aI5
atp91
Rp92
ag1
((lp93
I1
aI3
aI4
aI6
atp94
Rp95
ag1
((lp96
I1
aI2
aI6
atp97
Rp98
atp99
Rp100
I180
sg1
((lp101
g1
((lp102
I1
aI4
aI5
atp103
Rp104
ag1
((lp105
I1
aI3
aI5
atp106
Rp107
ag1
((lp108
I1
aI2
aI4
aI6
atp109
Rp110
ag1
((lp111
I2
aI3
aI5
aI6
atp112
Rp113
ag1
((lp114
I1
aI2
aI3
aI4
atp115
Rp116
ag1
((lp117
I1
aI2
aI5
aI6
atp118
Rp119
ag1
((lp120
I3
aI4
aI5
aI6
atp121
Rp122
ag1
((lp123
I1
aI2
aI3
aI6
atp124
Rp125
ag1
((lp126
I2
aI3
aI4
aI6
atp127
Rp128
ag1
((lp129
I1
aI3
aI4
aI6
atp130
Rp131
atp132
Rp133
I720
sg1
((lp134
g1
((lp135
I1
aI3
aI5
aI6
atp136
Rp137
ag1
((lp138
I3
aI4
aI5
aI6
atp139
Rp140
ag1
((lp141
I1
aI3
aI4
aI5
atp142
Rp143
ag1
((lp144
I1
aI2
aI3
aI5
atp145
Rp146
ag1
((lp147
I1
aI2
aI4
atp148
Rp149
ag1
((lp150
I1
aI2
aI5
aI6
atp151
Rp152
ag1
((lp153
I1
aI2
aI3
aI6
atp154
Rp155
ag1
((lp156
I2
aI3
aI4
aI6
atp157
Rp158
ag1
((lp159
I1
aI4
aI6
atp160
Rp161
ag1
((lp162
I2
aI3
aI4
aI5
atp163
Rp164
atp165
Rp166
I360
sg1
((lp167
g1
((lp168
I1
aI3
aI5
aI6
atp169
Rp170
ag74
ag8
ag1
((lp171
I1
aI2
aI3
aI4
atp172
Rp173
ag1
((lp174
I1
aI2
aI3
aI5
atp175
Rp176
ag1
((lp177
I1
aI4
aI5
aI6
atp178
Rp179
ag1
((lp180
I3
aI4
aI5
aI6
atp181
Rp182
ag1
((lp183
I1
aI2
aI4
aI5
atp184
Rp185
ag1
((lp186
I2
aI3
aI4
aI5
atp187
Rp188
ag1
((lp189
I1
aI2
aI4
aI6
atp190
Rp191
atp192
Rp193
I360
sg1
((lp194
g74
ag1
((lp195
I1
aI2
aI4
aI6
atp196
Rp197
ag1
((lp198
I3
aI4
aI5
aI6
atp199
Rp200
ag1
((lp201
I1
aI2
aI3
atp202
Rp203
ag1
((lp204
I1
aI4
aI5
aI6
atp205
Rp206
ag1
((lp207
I1
aI2
aI5
aI6
atp208
Rp209
ag1
((lp210
I1
aI3
aI4
aI5
atp211
Rp212
ag1
((lp213
I2
aI4
aI5
aI6
atp214
Rp215
ag1
((lp216
I1
aI2
aI4
aI5
atp217
Rp218
ag1
((lp219
I2
aI3
aI4
aI5
atp220
Rp221
atp222
Rp223
I180
sg1
((lp224
g1
((lp225
I1
aI3
aI5
aI6
atp226
Rp227
ag1
((lp228
I1
aI3
aI4
atp229
Rp230
ag1
((lp231
I1
aI2
aI4
aI6
atp232
Rp233
ag1
((lp234
I2
aI3
aI5
aI6
atp235
Rp236
ag1
((lp237
I3
aI4
aI5
aI6
atp238
Rp239
ag1
((lp240
I1
aI2
aI3
aI5
atp241
Rp242
ag1
((lp243
I1
aI4
aI5
aI6
atp244
Rp245
ag1
((lp246
I1
aI2
aI3
aI6
atp247
Rp248
ag1
((lp249
I2
aI3
aI4
aI6
atp250
Rp251
ag62
atp252
Rp253
I360
sg1
((lp254
g1
((lp255
I2
aI3
aI5
aI6
atp256
Rp257
ag1
((lp258
I1
aI3
aI6
atp259
Rp260
ag1
((lp261
I1
aI2
aI3
aI5
atp262
Rp263
ag1
((lp264
I1
aI4
aI5
aI6
atp265
Rp266
ag1
((lp267
I1
aI2
aI3
aI4
atp268
Rp269
ag1
((lp270
I1
aI3
aI4
aI5
atp271
Rp272
ag1
((lp273
I2
aI4
aI5
aI6
atp274
Rp275
ag1
((lp276
I3
aI4
aI5
aI6
atp277
Rp278
ag1
((lp279
I2
aI3
aI4
aI5
atp280
Rp281
ag98
atp282
Rp283
I720
sg1
((lp284
g17
ag107
ag1
((lp285
I2
aI3
aI5
aI6
atp286
Rp287
ag1
((lp288
I1
aI2
aI3
aI4
atp289
Rp290
ag1
((lp291
I1
aI3
aI4
aI6
atp292
Rp293
ag1
((lp294
I1
aI4
aI5
aI6
atp295
Rp296
ag1
((lp297
I1
aI2
aI5
aI6
atp298
Rp299
ag1
((lp300
I1
aI2
aI3
aI6
atp301
Rp302
ag1
((lp303
I1
aI2
aI4
aI5
atp304
Rp305
ag1
((lp306
I2
aI3
aI4
aI5
atp307
Rp308
atp309
Rp310
I90
sg1
((lp311
g1
((lp312
I1
aI3
aI5
aI6
atp313
Rp314
ag1
((lp315
I2
aI3
aI5
aI6
atp316
Rp317
ag1
((lp318
I1
aI2
aI3
aI4
atp319
Rp320
ag50
ag1
((lp321
I3
aI4
aI5
aI6
atp322
Rp323
ag1
((lp324
I1
aI4
aI5
aI6
atp325
Rp326
ag1
((lp327
I1
aI3
aI4
aI5
atp328
Rp329
ag1
((lp330
I2
aI4
aI5
aI6
atp331
Rp332
ag1
((lp333
I1
aI3
aI4
aI6
atp334
Rp335
ag98
atp336
Rp337
I180
sg1
((lp338
g1
((lp339
I1
aI3
aI5
aI6
atp340
Rp341
ag1
((lp342
I2
aI3
aI5
aI6
atp343
Rp344
ag1
((lp345
I1
aI2
aI3
aI4
atp346
Rp347
ag1
((lp348
I4
aI5
aI6
atp349
Rp350
ag17
ag1
((lp351
I1
aI2
aI3
aI6
atp352
Rp353
ag1
((lp354
I1
aI3
aI4
aI5
atp355
Rp356
ag1
((lp357
I1
aI2
aI4
aI5
atp358
Rp359
ag1
((lp360
I2
aI3
aI4
aI5
atp361
Rp362
ag1
((lp363
I1
aI2
aI5
aI6
atp364
Rp365
atp366
Rp367
I90
sg1
((lp368
g1
((lp369
I1
aI3
aI5
aI6
atp370
Rp371
ag8
ag1
((lp372
I3
aI4
aI5
aI6
atp373
Rp374
ag1
((lp375
I2
aI3
aI4
aI5
atp376
Rp377
ag1
((lp378
I2
aI3
aI4
aI6
atp379
Rp380
ag1
((lp381
I1
aI4
aI5
aI6
atp382
Rp383
ag1
((lp384
I1
aI3
aI4
aI5
atp385
Rp386
ag1
((lp387
I1
aI2
aI4
aI5
atp388
Rp389
ag203
ag1
((lp390
I1
aI3
aI4
aI6
atp391
Rp392
atp393
Rp394
I360
sg1
((lp395
g1
((lp396
I3
aI4
aI6
atp397
Rp398
ag230
ag1
((lp399
I1
aI2
aI4
aI6
atp400
Rp401
ag1
((lp402
I1
aI3
aI5
aI6
atp403
Rp404
ag1
((lp405
I1
aI2
aI3
aI5
atp406
Rp407
ag1
((lp408
I1
aI4
aI5
aI6
atp409
Rp410
ag1
((lp411
I1
aI2
aI5
aI6
atp412
Rp413
ag1
((lp414
I1
aI2
aI3
aI6
atp415
Rp416
ag1
((lp417
I2
aI4
aI5
aI6
atp418
Rp419
ag1
((lp420
I1
aI2
aI4
aI5
atp421
Rp422
atp423
Rp424
I360
sg1
((lp425
g107
ag1
((lp426
I1
aI2
aI4
aI6
atp427
Rp428
ag1
((lp429
I2
aI3
aI5
aI6
atp430
Rp431
ag1
((lp432
I1
aI2
aI3
aI4
atp433
Rp434
ag1
((lp435
I3
aI4
aI5
aI6
atp436
Rp437
ag1
((lp438
I1
aI2
aI3
aI6
atp439
Rp440
ag1
((lp441
I2
aI3
aI4
aI6
atp442
Rp443
ag1
((lp444
I2
aI4
aI5
aI6
atp445
Rp446
ag1
((lp447
I1
aI5
aI6
atp448
Rp449
ag1
((lp450
I2
aI3
aI4
aI5
atp451
Rp452
atp453
Rp454
I360
sg1
((lp455
g1
((lp456
I1
aI3
aI5
aI6
atp457
Rp458
ag1
((lp459
I2
aI3
aI5
aI6
atp460
Rp461
ag1
((lp462
I1
aI2
aI3
aI4
atp463
Rp464
ag1
((lp465
I1
aI3
aI4
aI5
atp466
Rp467
ag1
((lp468
I1
aI2
aI3
aI5
atp469
Rp470
ag1
((lp471
I3
aI4
aI5
aI6
atp472
Rp473
ag1
((lp474
I2
aI3
aI4
aI6
atp475
Rp476
ag98
ag62
ag1
((lp477
I1
aI3
aI4
aI6
atp478
Rp479
atp480
Rp481
I90
sg1
((lp482
g1
((lp483
I1
aI3
aI5
aI6
atp484
Rp485
ag1
((lp486
I1
aI2
aI4
aI6
atp487
Rp488
ag1
((lp489
I2
aI3
aI5
aI6
atp490
Rp491
ag1
((lp492
I3
aI4
aI5
aI6
atp493
Rp494
ag203
ag1
((lp495
I1
aI4
aI5
aI6
atp496
Rp497
ag1
((lp498
I1
aI2
aI5
aI6
atp499
Rp500
ag230
ag1
((lp501
I2
aI4
aI5
aI6
atp502
Rp503
ag1
((lp504
I2
aI3
aI4
aI5
atp505
Rp506
atp507
Rp508
I180
s.