(dp0
c__builtin__
frozenset
p1
((lp2
g1
((lp3
I3
aI4
aI5
aI6
atp4
Rp5
ag1
((lp6
I1
aI2
aI4
aI6
atp7
Rp8
ag1
((lp9
I2
aI3
aI5
aI6
atp10
Rp11
ag1
((lp12
I1
aI2
aI3
aI4
aI5
atp13
Rp14
atp15
Rp16
I180
sg1
((lp17
g5
ag1
((lp18
I1
aI3
aI5
aI6
atp19
Rp20
ag1
((lp21
I1
aI2
aI3
aI6
atp22
Rp23
ag1
((lp24
I1
aI2
aI4
aI5
aI6
atp25
Rp26
atp27
Rp28
I360
sg1
((lp29
g20
ag1
((lp30
I1
aI2
aI3
aI4
aI6
atp31
Rp32
ag1
((lp33
I1
aI2
aI3
aI5
atp34
Rp35
ag1
((lp36
I1
aI3
aI4
aI5
atp37
Rp38
atp39
Rp40
I60
sg1
((lp41
g1
((lp42
I1
aI2
aI5
aI6
atp43
Rp44
ag20
ag23
ag1
((lp45
I2
aI3
aI4
aI5
aI6
atp46
Rp47
atp48
Rp49
I120
s.