(dp0
c__builtin__
frozenset
p1
((lp2
g1
((lp3
I3
aI4
aI5
atp4
Rp5
ag1
((lp6
I1
aI2
aI3
aI4
atp7
Rp8
ag1
((lp9
I1
aI2
aI3
aI5
aI6
atp10
Rp11
ag1
((lp12
I2
aI3
aI4
aI6
atp13
Rp14
ag1
((lp15
I2
aI4
aI5
aI6
atp16
Rp17
ag1
((lp18
I1
aI2
aI4
aI5
atp19
Rp20
atp21
Rp22
I180
sg1
((lp23
g1
((lp24
I3
aI4
aI6
atp25
Rp26
ag1
((lp27
I2
aI3
aI5
aI6
atp28
Rp29
ag1
((lp30
I1
aI3
aI5
aI6
atp31
Rp32
ag1
((lp33
I1
aI4
aI5
aI6
atp34
Rp35
ag1
((lp36
I1
aI2
aI3
aI6
atp37
Rp38
ag1
((lp39
I1
aI2
aI3
aI4
aI5
atp40
Rp41
atp42
Rp43
I360
sg1
((lp44
g1
((lp45
I2
aI3
aI6
atp46
Rp47
ag1
((lp48
I3
aI4
aI5
aI6
atp49
Rp50
ag1
((lp51
I1
aI4
aI5
aI6
atp52
Rp53
ag1
((lp54
I2
aI4
aI5
aI6
atp55
Rp56
ag1
((lp57
I1
aI3
aI4
aI6
atp58
Rp59
ag1
((lp60
I1
aI2
aI3
aI4
aI5
atp61
Rp62
atp63
Rp64
I720
sg1
((lp65
g1
((lp66
I1
aI2
aI4
aI6
atp67
Rp68
ag1
((lp69
I2
aI3
aI5
aI6
atp70
Rp71
ag1
((lp72
I1
aI3
aI4
aI5
aI6
atp73
Rp74
ag1
((lp75
I1
aI2
aI3
aI5
atp76
Rp77
ag1
((lp78
I2
aI3
aI4
aI6
atp79
Rp80
ag1
((lp81
I2
aI4
aI5
atp82
Rp83
atp84
Rp85
I360
sg1
((lp86
g1
((lp87
I1
aI3
aI5
aI6
atp88
Rp89
ag1
((lp90
I3
aI4
aI5
aI6
atp91
Rp92
ag1
((lp93
I1
aI4
aI5
aI6
atp94
Rp95
ag1
((lp96
I1
aI2
aI6
atp97
Rp98
ag1
((lp99
I1
aI3
aI4
aI6
atp100
Rp101
ag1
((lp102
I1
aI2
aI3
aI4
aI5
atp103
Rp104
atp105
Rp106
I120
sg1
((lp107
g1
((lp108
I2
aI3
aI4
aI5
aI6
atp109
Rp110
ag89
ag1
((lp111
I1
aI3
aI4
aI5
atp112
Rp113
ag98
ag1
((lp114
I1
aI2
aI4
aI5
atp115
Rp116
ag101
atp117
Rp118
I360
s.