(dp0
c__builtin__
frozenset
p1
((lp2
g1
((lp3
I1
aI3
aI5
atp4
Rp5
ag1
((lp6
I3
aI4
aI5
atp7
Rp8
ag1
((lp9
I2
aI3
aI4
atp10
Rp11
ag1
((lp12
I1
aI2
aI3
aI6
atp13
Rp14
ag1
((lp15
I1
aI4
aI5
atp16
Rp17
ag1
((lp18
I1
aI3
aI4
atp19
Rp20
ag1
((lp21
I1
aI4
aI6
atp22
Rp23
ag1
((lp24
I2
aI4
aI5
atp25
Rp26
atp27
Rp28
I720
sg1
((lp29
g5
ag8
ag11
ag1
((lp30
I1
aI2
aI5
atp31
Rp32
ag1
((lp33
I1
aI2
aI4
atp34
Rp35
ag1
((lp36
I2
aI4
aI6
atp37
Rp38
ag1
((lp39
I1
aI2
aI6
atp40
Rp41
ag1
((lp42
I1
aI3
aI4
aI6
atp43
Rp44
atp45
Rp46
I720
sg1
((lp47
g26
ag8
ag1
((lp48
I1
aI3
aI6
atp49
Rp50
ag11
ag1
((lp51
I1
aI2
aI3
aI5
atp52
Rp53
ag35
ag23
ag1
((lp54
I4
aI5
aI6
atp55
Rp56
atp57
Rp58
I720
sg1
((lp59
g1
((lp60
I2
aI3
aI6
atp61
Rp62
ag1
((lp63
I2
aI5
aI6
atp64
Rp65
ag1
((lp66
I1
aI2
aI3
aI5
atp67
Rp68
ag17
ag41
ag1
((lp69
I1
aI5
aI6
atp70
Rp71
ag26
ag1
((lp72
I3
aI5
aI6
atp73
Rp74
atp75
Rp76
I720
sg1
((lp77
g23
ag1
((lp78
I2
aI3
aI5
aI6
atp79
Rp80
ag8
ag50
ag35
ag38
ag71
ag26
atp81
Rp82
I720
sg1
((lp83
g1
((lp84
I3
aI4
aI6
atp85
Rp86
ag65
ag1
((lp87
I1
aI3
aI5
aI6
atp88
Rp89
ag38
ag20
ag17
ag23
ag1
((lp90
I1
aI2
aI3
atp91
Rp92
atp93
Rp94
I720
sg1
((lp95
g65
ag50
ag1
((lp96
I2
aI3
aI5
atp97
Rp98
ag32
ag56
ag17
ag1
((lp99
I1
aI2
aI3
aI4
atp100
Rp101
ag41
atp102
Rp103
I720
sg1
((lp104
g17
ag23
ag1
((lp105
I3
aI4
aI5
aI6
atp106
Rp107
ag11
ag38
ag41
ag71
ag26
atp108
Rp109
I720
sg1
((lp110
g62
ag65
ag98
ag11
ag32
ag38
ag71
ag1
((lp111
I1
aI3
aI4
aI6
atp112
Rp113
atp114
Rp115
I720
sg1
((lp116
g1
((lp117
I1
aI2
aI5
aI6
atp118
Rp119
ag62
ag50
ag11
ag35
ag38
ag20
ag56
atp120
Rp121
I720
sg1
((lp122
g1
((lp123
I1
aI2
aI5
aI6
atp124
Rp125
ag62
ag26
ag11
ag35
ag17
ag23
ag56
atp126
Rp127
I360
sg1
((lp128
g86
ag5
ag50
ag11
ag35
ag98
ag20
ag1
((lp129
I2
aI4
aI5
aI6
atp130
Rp131
atp132
Rp133
I720
sg1
((lp134
g86
ag5
ag98
ag56
ag17
ag1
((lp135
I1
aI2
aI3
aI6
atp136
Rp137
ag26
ag74
atp138
Rp139
I360
sg1
((lp140
g86
ag1
((lp141
I1
aI3
aI5
aI6
atp142
Rp143
ag98
ag11
ag17
ag20
ag26
ag92
atp144
Rp145
I720
sg1
((lp146
g50
ag32
ag56
ag38
ag1
((lp147
I1
aI3
aI4
aI5
atp148
Rp149
ag71
ag23
ag74
atp150
Rp151
I360
sg1
((lp152
g98
ag74
ag32
ag35
ag38
ag71
ag26
ag1
((lp153
I1
aI3
aI4
aI6
atp154
Rp155
atp156
Rp157
I720
sg1
((lp158
g65
ag8
ag32
ag35
ag1
((lp159
I2
aI3
aI4
aI6
atp160
Rp161
ag41
ag71
ag92
atp162
Rp163
I360
sg1
((lp164
g23
ag65
ag1
((lp165
I1
aI2
aI3
aI5
atp166
Rp167
ag56
ag17
ag20
ag71
ag26
atp168
Rp169
I720
sg1
((lp170
g65
ag8
ag50
ag56
ag1
((lp171
I2
aI3
aI4
aI6
atp172
Rp173
ag41
ag71
ag74
atp174
Rp175
I720
sg1
((lp176
g62
ag98
ag11
ag32
ag56
ag38
ag1
((lp177
I1
aI3
aI4
aI5
atp178
Rp179
ag92
atp180
Rp181
I720
sg1
((lp182
g1
((lp183
I1
aI3
aI5
aI6
atp184
Rp185
ag8
ag11
ag32
ag17
ag20
ag26
ag92
atp186
Rp187
I360
sg1
((lp188
g1
((lp189
I2
aI3
aI5
aI6
atp190
Rp191
ag11
ag32
ag17
ag20
ag41
ag71
ag92
atp192
Rp193
I720
sg1
((lp194
g65
ag1
((lp195
I3
aI4
aI5
aI6
atp196
Rp197
ag17
ag98
ag41
ag71
ag23
ag92
atp198
Rp199
I720
sg1
((lp200
g86
ag1
((lp201
I1
aI2
aI4
aI6
atp202
Rp203
ag50
ag11
ag56
ag98
ag71
ag92
atp204
Rp205
I360
sg1
((lp206
g5
ag65
ag1
((lp207
I3
aI4
aI5
aI6
atp208
Rp209
ag35
ag38
ag98
ag41
ag26
atp210
Rp211
I360
sg1
((lp212
g17
ag62
ag98
ag38
ag1
((lp213
I3
aI4
aI5
aI6
atp214
Rp215
ag20
ag71
ag23
atp216
Rp217
I720
sg1
((lp218
g65
ag92
ag32
ag35
ag17
ag74
ag41
ag1
((lp219
I1
aI3
aI4
aI6
atp220
Rp221
atp222
Rp223
I720
sg1
((lp224
g17
ag65
ag50
ag38
ag1
((lp225
I3
aI4
aI5
aI6
atp226
Rp227
ag20
ag71
ag26
atp228
Rp229
I360
sg1
((lp230
g17
ag5
ag50
ag32
ag35
ag38
ag20
ag1
((lp231
I2
aI3
aI4
aI5
atp232
Rp233
atp234
Rp235
I720
sg1
((lp236
g86
ag23
ag74
ag11
ag32
ag1
((lp237
I1
aI3
aI4
aI5
atp238
Rp239
ag26
ag92
atp240
Rp241
I360
sg1
((lp242
g5
ag1
((lp243
I2
aI3
aI5
aI6
atp244
Rp245
ag8
ag11
ag56
ag41
ag23
ag92
atp246
Rp247
I360
sg1
((lp248
g5
ag11
ag38
ag20
ag41
ag1
((lp249
I1
aI2
aI4
aI5
atp250
Rp251
ag23
ag92
atp252
Rp253
I360
sg1
((lp254
g1
((lp255
I1
aI2
aI5
aI6
atp256
Rp257
ag5
ag8
ag98
ag26
ag38
ag23
ag92
atp258
Rp259
I720
sg1
((lp260
g5
ag65
ag8
ag32
ag17
ag20
ag26
ag1
((lp261
I1
aI2
aI4
aI6
atp262
Rp263
atp264
Rp265
I360
sg1
((lp266
g1
((lp267
I1
aI3
aI5
aI6
atp268
Rp269
ag32
ag35
ag38
ag20
ag41
ag26
ag56
atp270
Rp271
I360
sg1
((lp272
g86
ag23
ag65
ag32
ag38
ag1
((lp273
I1
aI2
aI3
aI6
atp274
Rp275
ag26
ag74
atp276
Rp277
I720
sg1
((lp278
g62
ag1
((lp279
I1
aI2
aI3
aI4
atp280
Rp281
ag26
ag56
ag17
ag50
ag71
ag23
atp282
Rp283
I720
sg1
((lp284
g86
ag5
ag65
ag11
ag56
ag17
ag26
ag1
((lp285
I1
aI2
aI4
aI6
atp286
Rp287
atp288
Rp289
I360
sg1
((lp290
g1
((lp291
I1
aI2
aI5
aI6
atp292
Rp293
ag5
ag8
ag56
ag17
ag20
ag23
ag26
atp294
Rp295
I720
sg1
((lp296
g5
ag8
ag98
ag56
ag41
ag71
ag26
ag1
((lp297
I1
aI3
aI4
aI6
atp298
Rp299
atp300
Rp301
I360
sg1
((lp302
g65
ag1
((lp303
I2
aI3
aI4
aI5
atp304
Rp305
ag32
ag35
ag20
ag41
ag71
ag92
atp306
Rp307
I360
sg1
((lp308
g5
ag8
ag56
ag38
ag1
((lp309
I1
aI2
aI3
aI6
atp310
Rp311
ag23
ag26
ag74
atp312
Rp313
I720
sg1
((lp314
g86
ag1
((lp315
I2
aI3
aI5
aI6
atp316
Rp317
ag50
ag11
ag32
ag17
ag20
ag41
atp318
Rp319
I720
sg1
((lp320
g86
ag26
ag50
ag32
ag38
ag1
((lp321
I1
aI3
aI4
aI5
atp322
Rp323
ag23
ag74
atp324
Rp325
I720
sg1
((lp326
g5
ag65
ag8
ag1
((lp327
I1
aI2
aI3
aI4
atp328
Rp329
ag17
ag50
ag41
ag26
atp330
Rp331
I720
sg1
((lp332
g1
((lp333
I1
aI2
aI5
aI6
atp334
Rp335
ag62
ag8
ag50
ag11
ag38
ag20
ag26
atp336
Rp337
I720
sg1
((lp338
g5
ag65
ag8
ag98
ag92
ag62
ag74
ag1
((lp339
I1
aI2
aI4
aI6
atp340
Rp341
atp342
Rp343
I720
sg1
((lp344
g92
ag32
ag35
ag20
ag41
ag1
((lp345
I2
aI4
aI5
aI6
atp346
Rp347
ag23
ag74
atp348
Rp349
I720
sg1
((lp350
g86
ag5
ag1
((lp351
I2
aI3
aI5
aI6
atp352
Rp353
ag11
ag35
ag38
ag23
ag92
atp354
Rp355
I720
sg1
((lp356
g62
ag65
ag8
ag50
ag1
((lp357
I1
aI4
aI5
aI6
atp358
Rp359
ag98
ag41
ag26
atp360
Rp361
I360
sg1
((lp362
g17
ag1
((lp363
I2
aI3
aI5
aI6
atp364
Rp365
ag50
ag32
ag38
ag20
ag41
ag71
atp366
Rp367
I720
sg1
((lp368
g86
ag62
ag50
ag92
ag35
ag20
ag1
((lp369
I2
aI4
aI5
aI6
atp370
Rp371
ag74
atp372
Rp373
I360
sg1
((lp374
g65
ag50
ag35
ag1
((lp375
I2
aI3
aI4
aI6
atp376
Rp377
ag41
ag71
ag26
ag74
atp378
Rp379
I360
sg1
((lp380
g86
ag5
ag65
ag8
ag1
((lp381
I1
aI4
aI5
aI6
atp382
Rp383
ag35
ag26
ag74
atp384
Rp385
I720
sg1
((lp386
g5
ag8
ag50
ag32
ag35
ag20
ag1
((lp387
I2
aI3
aI4
aI6
atp388
Rp389
ag74
atp390
Rp391
I720
sg1
((lp392
g1
((lp393
I1
aI3
aI5
aI6
atp394
Rp395
ag8
ag98
ag11
ag32
ag56
ag17
ag41
atp396
Rp397
I720
sg1
((lp398
g5
ag50
ag26
ag17
ag98
ag1
((lp399
I2
aI3
aI4
aI6
atp400
Rp401
ag41
ag23
atp402
Rp403
I360
sg1
((lp404
g62
ag65
ag98
ag11
ag56
ag38
ag1
((lp405
I1
aI3
aI4
aI5
atp406
Rp407
ag74
atp408
Rp409
I360
sg1
((lp410
g86
ag65
ag50
ag38
ag98
ag1
((lp411
I1
aI3
aI4
aI5
atp412
Rp413
ag23
ag92
atp414
Rp415
I720
sg1
((lp416
g86
ag5
ag1
((lp417
I2
aI3
aI5
aI6
atp418
Rp419
ag35
ag38
ag20
ag23
ag26
atp420
Rp421
I720
sg1
((lp422
g86
ag62
ag50
ag1
((lp423
I1
aI4
aI5
aI6
atp424
Rp425
ag5
ag32
ag26
ag74
atp426
Rp427
I720
sg1
((lp428
g62
ag8
ag50
ag11
ag56
ag1
((lp429
I1
aI2
aI5
aI6
atp430
Rp431
ag98
ag74
atp432
Rp433
I720
sg1
((lp434
g17
ag8
ag1
((lp435
I1
aI3
aI5
aI6
atp436
Rp437
ag98
ag32
ag38
ag20
ag26
atp438
Rp439
I360
sg1
((lp440
g86
ag5
ag8
ag1
((lp441
I1
aI2
aI3
aI4
atp442
Rp443
ag50
ag71
ag23
ag74
atp444
Rp445
I720
sg1
((lp446
g86
ag5
ag35
ag17
ag1
((lp447
I2
aI4
aI5
aI6
atp448
Rp449
ag41
ag23
ag74
atp450
Rp451
I720
sg1
((lp452
g86
ag62
ag65
ag8
ag50
ag92
ag1
((lp453
I1
aI2
aI4
aI5
atp454
Rp455
ag74
atp456
Rp457
I360
sg1
((lp458
g1
((lp459
I1
aI3
aI5
aI6
atp460
Rp461
ag62
ag65
ag8
ag11
ag35
ag41
ag23
atp462
Rp463
I720
sg1
((lp464
g86
ag62
ag65
ag1
((lp465
I1
aI2
aI3
aI4
atp466
Rp467
ag56
ag38
ag71
ag26
atp468
Rp469
I360
sg1
((lp470
g17
ag5
ag8
ag98
ag56
ag38
ag50
ag1
((lp471
I1
aI2
aI5
aI6
atp472
Rp473
atp474
Rp475
I720
sg1
((lp476
g5
ag1
((lp477
I1
aI2
aI3
aI6
atp478
Rp479
ag32
ag35
ag17
ag20
ag26
ag56
atp480
Rp481
I360
sg1
((lp482
g86
ag62
ag65
ag8
ag1
((lp483
I1
aI2
aI3
aI4
atp484
Rp485
ag41
ag23
ag74
atp486
Rp487
I720
sg1
((lp488
g5
ag98
ag11
ag1
((lp489
I1
aI4
aI5
aI6
atp490
Rp491
ag35
ag38
ag26
ag74
atp492
Rp493
I360
sg1
((lp494
g23
ag8
ag92
ag32
ag20
ag1
((lp495
I2
aI3
aI4
aI6
atp496
Rp497
ag26
ag74
atp498
Rp499
I360
sg1
((lp500
g5
ag65
ag98
ag56
ag62
ag71
ag26
ag1
((lp501
I1
aI2
aI4
aI6
atp502
Rp503
atp504
Rp505
I720
sg1
((lp506
g50
ag92
ag56
ag17
ag98
ag1
((lp507
I2
aI3
aI4
aI6
atp508
Rp509
ag23
ag74
atp510
Rp511
I360
sg1
((lp512
g86
ag62
ag74
ag35
ag38
ag20
ag23
ag1
((lp513
I2
aI3
aI4
aI5
atp514
Rp515
atp516
Rp517
I720
sg1
((lp518
g86
ag65
ag8
ag92
ag17
ag20
ag74
ag1
((lp519
I1
aI2
aI4
aI6
atp520
Rp521
atp522
Rp523
I720
sg1
((lp524
g8
ag50
ag32
ag20
ag1
((lp525
I2
aI4
aI5
aI6
atp526
Rp527
ag71
ag23
ag92
atp528
Rp529
I720
sg1
((lp530
g62
ag65
ag11
ag38
ag5
ag41
ag71
ag1
((lp531
I1
aI2
aI4
aI5
atp532
Rp533
atp534
Rp535
I360
sg1
((lp536
g17
ag65
ag50
ag35
ag38
ag20
ag41
ag1
((lp537
I2
aI3
aI4
aI5
atp538
Rp539
atp540
Rp541
I720
sg1
((lp542
g1
((lp543
I1
aI3
aI5
aI6
atp544
Rp545
ag65
ag35
ag38
ag41
ag56
ag26
ag92
atp546
Rp547
I720
sg1
((lp548
g86
ag62
ag92
ag1
((lp549
I2
aI4
aI5
aI6
atp550
Rp551
ag41
ag71
ag23
ag74
atp552
Rp553
I180
sg1
((lp554
g86
ag5
ag11
ag1
((lp555
I1
aI4
aI5
aI6
atp556
Rp557
ag20
ag41
ag26
ag92
atp558
Rp559
I360
sg1
((lp560
g62
ag8
ag50
ag1
((lp561
I1
aI2
aI3
aI5
atp562
Rp563
ag35
ag41
ag26
ag56
atp564
Rp565
I720
sg1
((lp566
g86
ag62
ag65
ag50
ag92
ag1
((lp567
I1
aI4
aI5
aI6
atp568
Rp569
ag32
ag74
atp570
Rp571
I720
sg1
((lp572
g5
ag1
((lp573
I1
aI2
aI4
aI6
atp574
Rp575
ag98
ag11
ag32
ag56
ag20
ag92
atp576
Rp577
I360
sg1
((lp578
g8
ag1
((lp579
I1
aI3
aI4
aI6
atp580
Rp581
ag11
ag56
ag17
ag41
ag26
ag92
atp582
Rp583
I720
sg1
((lp584
g5
ag65
ag32
ag35
ag23
ag1
((lp585
I2
aI3
aI4
aI6
atp586
Rp587
ag26
ag74
atp588
Rp589
I720
sg1
((lp590
g86
ag65
ag1
((lp591
I1
aI2
aI3
aI5
atp592
Rp593
ag56
ag41
ag71
ag26
ag74
atp594
Rp595
I720
sg1
((lp596
g5
ag50
ag74
ag1
((lp597
I1
aI4
aI5
aI6
atp598
Rp599
ag35
ag38
ag41
ag92
atp600
Rp601
I360
sg1
((lp602
g86
ag65
ag98
ag92
ag1
((lp603
I1
aI3
aI4
aI5
atp604
Rp605
ag41
ag23
ag74
atp606
Rp607
I720
sg1
((lp608
g65
ag8
ag98
ag32
ag17
ag26
ag92
ag1
((lp609
I1
aI2
aI4
aI6
atp610
Rp611
atp612
Rp613
I720
sg1
((lp614
g1
((lp615
I1
aI2
aI5
aI6
atp616
Rp617
ag62
ag8
ag50
ag17
ag98
ag26
ag74
atp618
Rp619
I720
sg1
((lp620
g5
ag50
ag32
ag17
ag1
((lp621
I2
aI3
aI4
aI6
atp622
Rp623
ag41
ag71
ag23
atp624
Rp625
I120
sg1
((lp626
g5
ag56
ag20
ag62
ag71
ag23
ag74
ag1
((lp627
I1
aI2
aI4
aI5
atp628
Rp629
atp630
Rp631
I720
sg1
((lp632
g5
ag8
ag98
ag11
ag38
ag20
ag1
((lp633
I1
aI2
aI4
aI5
atp634
Rp635
ag23
atp636
Rp637
I360
sg1
((lp638
g17
ag98
ag1
((lp639
I1
aI3
aI4
aI6
atp640
Rp641
ag32
ag56
ag38
ag41
ag74
atp642
Rp643
I720
sg1
((lp644
g17
ag65
ag98
ag1
((lp645
I1
aI3
aI4
aI6
atp646
Rp647
ag11
ag32
ag38
ag74
atp648
Rp649
I360
sg1
((lp650
g17
ag62
ag65
ag1
((lp651
I1
aI3
aI5
aI6
atp652
Rp653
ag98
ag32
ag38
ag20
atp654
Rp655
I720
sg1
((lp656
g86
ag62
ag65
ag11
ag56
ag1
((lp657
I1
aI3
aI4
aI5
atp658
Rp659
ag41
ag26
atp660
Rp661
I180
sg1
((lp662
g23
ag8
ag1
((lp663
I1
aI2
aI3
aI6
atp664
Rp665
ag32
ag11
ag17
ag20
ag26
atp666
Rp667
I720
sg1
((lp668
g5
ag65
ag50
ag74
ag56
ag38
ag20
ag1
((lp669
I2
aI3
aI4
aI5
atp670
Rp671
atp672
Rp673
I720
sg1
((lp674
g23
ag8
ag1
((lp675
I1
aI2
aI3
aI6
atp676
Rp677
ag35
ag20
ag56
ag26
ag74
atp678
Rp679
I360
sg1
((lp680
g17
ag62
ag8
ag1
((lp681
I1
aI2
aI3
aI5
atp682
Rp683
ag56
ag38
ag41
ag23
atp684
Rp685
I360
sg1
((lp686
g86
ag5
ag50
ag92
ag17
ag41
ag1
((lp687
I2
aI4
aI5
aI6
atp688
Rp689
ag74
atp690
Rp691
I720
sg1
((lp692
g86
ag1
((lp693
I1
aI2
aI4
aI6
atp694
Rp695
ag50
ag56
ag17
ag20
ag71
ag74
atp696
Rp697
I180
sg1
((lp698
g17
ag5
ag1
((lp699
I3
aI4
aI5
aI6
atp700
Rp701
ag35
ag38
ag41
ag71
ag26
atp702
Rp703
I720
sg1
((lp704
g86
ag8
ag11
ag56
ag20
ag1
((lp705
I1
aI2
aI4
aI5
atp706
Rp707
ag23
ag74
atp708
Rp709
I720
sg1
((lp710
g86
ag5
ag1
((lp711
I1
aI2
aI4
aI6
atp712
Rp713
ag8
ag50
ag56
ag26
ag92
atp714
Rp715
I720
sg1
((lp716
g65
ag1
((lp717
I3
aI4
aI5
aI6
atp718
Rp719
ag32
ag35
ag38
ag20
ag41
ag26
atp720
Rp721
I360
sg1
((lp722
g5
ag98
ag1
((lp723
I1
aI2
aI3
aI6
atp724
Rp725
ag32
ag35
ag38
ag20
ag56
atp726
Rp727
I720
sg1
((lp728
g5
ag50
ag11
ag20
ag41
ag1
((lp729
I2
aI4
aI5
aI6
atp730
Rp731
ag71
ag74
atp732
Rp733
I720
sg1
((lp734
g23
ag56
ag17
ag20
ag1
((lp735
I2
aI3
aI4
aI6
atp736
Rp737
ag41
ag26
ag92
atp738
Rp739
I720
sg1
((lp740
g5
ag65
ag8
ag98
ag11
ag1
((lp741
I1
aI4
aI5
aI6
atp742
Rp743
ag32
ag41
atp744
Rp745
I720
sg1
((lp746
g62
ag50
ag26
ag1
((lp747
I1
aI2
aI3
aI5
atp748
Rp749
ag35
ag17
ag23
ag56
atp750
Rp751
I720
sg1
((lp752
g65
ag98
ag32
ag35
ag17
ag1
((lp753
I1
aI2
aI3
aI6
atp754
Rp755
ag71
ag74
atp756
Rp757
I720
sg1
((lp758
g86
ag5
ag8
ag11
ag1
((lp759
I1
aI2
aI3
aI6
atp760
Rp761
ag20
ag71
ag23
atp762
Rp763
I720
sg1
((lp764
g86
ag62
ag98
ag32
ag56
ag1
((lp765
I1
aI3
aI4
aI5
atp766
Rp767
ag71
ag92
atp768
Rp769
I720
sg1
((lp770
g62
ag65
ag50
ag1
((lp771
I1
aI2
aI3
aI5
atp772
Rp773
ag41
ag71
ag26
ag74
atp774
Rp775
I180
sg1
((lp776
g65
ag50
ag32
ag56
ag17
ag20
ag26
ag1
((lp777
I1
aI2
aI4
aI6
atp778
Rp779
atp780
Rp781
I720
sg1
((lp782
g8
ag74
ag56
ag35
ag17
ag71
ag26
ag1
((lp783
I1
aI3
aI4
aI6
atp784
Rp785
atp786
Rp787
I720
sg1
((lp788
g8
ag98
ag1
((lp789
I1
aI4
aI5
aI6
atp790
Rp791
ag35
ag20
ag32
ag41
ag74
atp792
Rp793
I720
sg1
((lp794
g86
ag98
ag35
ag1
((lp795
I1
aI2
aI5
aI6
atp796
Rp797
ag50
ag20
ag23
ag92
atp798
Rp799
I720
sg1
((lp800
g86
ag62
ag8
ag1
((lp801
I1
aI2
aI3
aI4
atp802
Rp803
ag56
ag5
ag23
ag26
atp804
Rp805
I360
sg1
((lp806
g62
ag65
ag50
ag11
ag20
ag1
((lp807
I1
aI2
aI4
aI5
atp808
Rp809
ag23
ag74
atp810
Rp811
I720
sg1
((lp812
g92
ag98
ag74
ag32
ag41
ag71
ag26
ag1
((lp813
I1
aI3
aI4
aI6
atp814
Rp815
atp816
Rp817
I720
sg1
((lp818
g23
ag98
ag56
ag1
((lp819
I1
aI3
aI4
aI5
atp820
Rp821
ag41
ag71
ag26
ag74
atp822
Rp823
I720
sg1
((lp824
g5
ag65
ag1
((lp825
I3
aI4
aI5
aI6
atp826
Rp827
ag32
ag17
ag23
ag26
ag92
atp828
Rp829
I720
sg1
((lp830
g23
ag8
ag98
ag11
ag56
ag17
ag1
((lp831
I1
aI2
aI3
aI6
atp832
Rp833
ag26
atp834
Rp835
I180
sg1
((lp836
g23
ag98
ag92
ag35
ag1
((lp837
I2
aI3
aI4
aI6
atp838
Rp839
ag56
ag26
ag74
atp840
Rp841
I360
sg1
((lp842
g5
ag1
((lp843
I2
aI3
aI5
aI6
atp844
Rp845
ag50
ag38
ag20
ag41
ag71
ag92
atp846
Rp847
I720
sg1
((lp848
g5
ag8
ag50
ag92
ag20
ag1
((lp849
I2
aI3
aI4
aI6
atp850
Rp851
ag23
ag74
atp852
Rp853
I360
sg1
((lp854
g86
ag5
ag8
ag1
((lp855
I1
aI2
aI3
aI4
atp856
Rp857
ag56
ag17
ag62
ag74
atp858
Rp859
I720
sg1
((lp860
g62
ag65
ag32
ag35
ag17
ag41
ag23
ag1
((lp861
I2
aI3
aI4
aI5
atp862
Rp863
atp864
Rp865
I720
sg1
((lp866
g17
ag5
ag50
ag74
ag38
ag20
ag23
ag1
((lp867
I2
aI3
aI4
aI5
atp868
Rp869
atp870
Rp871
I720
sg1
((lp872
g5
ag98
ag11
ag56
ag38
ag20
ag71
ag1
((lp873
I1
aI2
aI4
aI5
atp874
Rp875
atp876
Rp877
I360
sg1
((lp878
g17
ag62
ag8
ag1
((lp879
I1
aI2
aI3
aI4
atp880
Rp881
ag38
ag98
ag71
ag26
atp882
Rp883
I720
sg1
((lp884
g1
((lp885
I1
aI2
aI5
aI6
atp886
Rp887
ag62
ag8
ag11
ag56
ag38
ag23
ag74
atp888
Rp889
I360
sg1
((lp890
g5
ag65
ag50
ag32
ag56
ag20
ag23
ag1
((lp891
I2
aI3
aI4
aI5
atp892
Rp893
atp894
Rp895
I720
sg1
((lp896
g5
ag1
((lp897
I3
aI4
aI5
aI6
atp898
Rp899
ag11
ag35
ag62
ag71
ag26
ag92
atp900
Rp901
I720
sg1
((lp902
g86
ag8
ag1
((lp903
I1
aI3
aI5
aI6
atp904
Rp905
ag98
ag11
ag56
ag17
ag20
atp906
Rp907
I360
sg1
((lp908
g17
ag5
ag65
ag32
ag56
ag38
ag1
((lp909
I1
aI2
aI3
aI6
atp910
Rp911
ag23
atp912
Rp913
I720
sg1
((lp914
g62
ag65
ag1
((lp915
I3
aI4
aI5
aI6
atp916
Rp917
ag17
ag50
ag71
ag23
ag92
atp918
Rp919
I720
sg1
((lp920
g65
ag8
ag35
ag20
ag1
((lp921
I2
aI3
aI4
aI6
atp922
Rp923
ag41
ag23
ag56
atp924
Rp925
I720
sg1
((lp926
g65
ag8
ag50
ag56
ag17
ag20
ag1
((lp927
I2
aI3
aI4
aI6
atp928
Rp929
ag74
atp930
Rp931
I720
sg1
((lp932
g23
ag8
ag50
ag56
ag1
((lp933
I2
aI3
aI4
aI6
atp934
Rp935
ag41
ag26
ag74
atp936
Rp937
I720
sg1
((lp938
g23
ag1
((lp939
I1
aI2
aI3
aI6
atp940
Rp941
ag32
ag35
ag17
ag20
ag26
ag56
atp942
Rp943
I720
sg1
((lp944
g5
ag98
ag74
ag11
ag56
ag41
ag26
ag1
((lp945
I1
aI3
aI4
aI6
atp946
Rp947
atp948
Rp949
I720
sg1
((lp950
g5
ag65
ag8
ag50
ag20
ag62
ag92
ag1
((lp951
I1
aI2
aI4
aI6
atp952
Rp953
atp954
Rp955
I360
sg1
((lp956
g50
ag35
ag17
ag20
ag1
((lp957
I2
aI3
aI4
aI6
atp958
Rp959
ag41
ag71
ag56
atp960
Rp961
I180
sg1
((lp962
g17
ag23
ag8
ag11
ag1
((lp963
I1
aI2
aI3
aI6
atp964
Rp965
ag38
ag20
ag26
atp966
Rp967
I360
sg1
((lp968
g23
ag1
((lp969
I2
aI3
aI5
aI6
atp970
Rp971
ag35
ag38
ag20
ag41
ag71
ag26
atp972
Rp973
I360
sg1
((lp974
g86
ag62
ag65
ag98
ag1
((lp975
I1
aI4
aI5
aI6
atp976
Rp977
ag35
ag32
ag41
atp978
Rp979
I720
sg1
((lp980
g5
ag8
ag50
ag32
ag1
((lp981
I2
aI4
aI5
aI6
atp982
Rp983
ag71
ag23
ag92
atp984
Rp985
I720
sg1
((lp986
g65
ag8
ag92
ag17
ag1
((lp987
I2
aI3
aI4
aI6
atp988
Rp989
ag71
ag26
ag74
atp990
Rp991
I180
sg1
((lp992
g17
ag5
ag1
((lp993
I2
aI3
aI5
aI6
atp994
Rp995
ag32
ag56
ag38
ag41
ag26
atp996
Rp997
I720
sg1
((lp998
g86
ag1
((lp999
I1
aI2
aI3
aI4
atp1000
Rp1001
ag56
ag38
ag17
ag71
ag26
ag74
atp1002
Rp1003
I360
sg1
((lp1004
g62
ag65
ag1
((lp1005
I1
aI2
aI3
aI4
atp1006
Rp1007
ag32
ag17
ag50
ag71
ag26
atp1008
Rp1009
I360
sg1
((lp1010
g17
ag5
ag65
ag8
ag56
ag38
ag1
((lp1011
I1
aI2
aI3
aI6
atp1012
Rp1013
ag71
atp1014
Rp1015
I720
sg1
((lp1016
g62
ag1
((lp1017
I1
aI2
aI3
aI4
atp1018
Rp1019
ag26
ag56
ag38
ag50
ag5
ag23
atp1020
Rp1021
I720
sg1
((lp1022
g86
ag35
ag1
((lp1023
I2
aI3
aI5
aI6
atp1024
Rp1025
ag8
ag11
ag56
ag38
ag26
atp1026
Rp1027
I120
sg1
((lp1028
g62
ag65
ag1
((lp1029
I1
aI2
aI3
aI4
atp1030
Rp1031
ag32
ag56
ag38
ag98
ag23
atp1032
Rp1033
I720
sg1
((lp1034
g62
ag65
ag50
ag35
ag38
ag41
ag71
ag1
((lp1035
I2
aI3
aI4
aI5
atp1036
Rp1037
atp1038
Rp1039
I360
sg1
((lp1040
g65
ag50
ag11
ag1
((lp1041
I1
aI4
aI5
aI6
atp1042
Rp1043
ag35
ag38
ag32
ag92
atp1044
Rp1045
I720
sg1
((lp1046
g65
ag11
ag1
((lp1047
I1
aI2
aI3
aI5
atp1048
Rp1049
ag35
ag38
ag56
ag26
ag74
atp1050
Rp1051
I720
sg1
((lp1052
g8
ag32
ag35
ag17
ag1
((lp1053
I2
aI3
aI4
aI6
atp1054
Rp1055
ag41
ag23
ag92
atp1056
Rp1057
I720
sg1
((lp1058
g62
ag1
((lp1059
I1
aI2
aI3
aI4
atp1060
Rp1061
ag17
ag98
ag5
ag41
ag71
ag23
atp1062
Rp1063
I360
sg1
((lp1064
g62
ag98
ag35
ag23
ag1
((lp1065
I1
aI3
aI4
aI5
atp1066
Rp1067
ag71
ag26
ag74
atp1068
Rp1069
I360
sg1
((lp1070
g65
ag98
ag11
ag35
ag1
((lp1071
I1
aI2
aI3
aI6
atp1072
Rp1073
ag71
ag23
ag56
atp1074
Rp1075
I720
sg1
((lp1076
g86
ag5
ag8
ag32
ag38
ag1
((lp1077
I1
aI2
aI3
aI6
atp1078
Rp1079
ag71
ag74
atp1080
Rp1081
I720
sg1
((lp1082
g65
ag98
ag32
ag35
ag38
ag41
ag26
ag1
((lp1083
I1
aI3
aI4
aI6
atp1084
Rp1085
atp1086
Rp1087
I120
sg1
((lp1088
g86
ag5
ag65
ag1
((lp1089
I1
aI2
aI3
aI4
atp1090
Rp1091
ag32
ag17
ag62
ag41
atp1092
Rp1093
I720
sg1
((lp1094
g62
ag1
((lp1095
I1
aI2
aI4
aI6
atp1096
Rp1097
ag50
ag11
ag56
ag17
ag98
ag92
atp1098
Rp1099
I360
sg1
((lp1100
g62
ag65
ag11
ag35
ag1
((lp1101
I1
aI3
aI4
aI5
atp1102
Rp1103
ag41
ag23
ag92
atp1104
Rp1105
I720
sg1
((lp1106
g62
ag98
ag11
ag56
ag38
ag1
((lp1107
I1
aI2
aI4
aI5
atp1108
Rp1109
ag23
ag92
atp1110
Rp1111
I360
sg1
((lp1112
g62
ag1
((lp1113
I1
aI2
aI4
aI6
atp1114
Rp1115
ag8
ag50
ag32
ag56
ag98
ag20
atp1116
Rp1117
I360
sg1
((lp1118
g86
ag26
ag1
((lp1119
I2
aI3
aI5
aI6
atp1120
Rp1121
ag8
ag11
ag35
ag41
ag23
atp1122
Rp1123
I720
sg1
((lp1124
g65
ag50
ag92
ag35
ag98
ag20
ag1
((lp1125
I2
aI3
aI4
aI6
atp1126
Rp1127
ag74
atp1128
Rp1129
I720
sg1
((lp1130
g5
ag8
ag1
((lp1131
I1
aI3
aI4
aI6
atp1132
Rp1133
ag11
ag32
ag38
ag71
ag92
atp1134
Rp1135
I720
sg1
((lp1136
g5
ag1
((lp1137
I1
aI2
aI4
aI6
atp1138
Rp1139
ag50
ag56
ag20
ag71
ag26
ag74
atp1140
Rp1141
I720
sg1
((lp1142
g17
ag98
ag74
ag11
ag56
ag38
ag92
ag1
((lp1143
I1
aI2
aI5
aI6
atp1144
Rp1145
atp1146
Rp1147
I720
sg1
((lp1148
g86
ag65
ag50
ag56
ag38
ag41
ag1
((lp1149
I1
aI2
aI4
aI5
atp1150
Rp1151
ag74
atp1152
Rp1153
I360
sg1
((lp1154
g5
ag8
ag50
ag32
ag98
ag1
((lp1155
I2
aI4
aI5
aI6
atp1156
Rp1157
ag71
ag92
atp1158
Rp1159
I720
sg1
((lp1160
g5
ag8
ag17
ag1
((lp1161
I2
aI3
aI4
aI6
atp1162
Rp1163
ag41
ag71
ag23
ag92
atp1164
Rp1165
I720
sg1
((lp1166
g1
((lp1167
I1
aI2
aI4
aI6
atp1168
Rp1169
ag50
ag11
ag32
ag56
ag17
ag71
ag74
atp1170
Rp1171
I720
sg1
((lp1172
g65
ag92
ag32
ag56
ag41
ag71
ag26
ag1
((lp1173
I1
aI3
aI4
aI6
atp1174
Rp1175
atp1176
Rp1177
I720
sg1
((lp1178
g1
((lp1179
I3
aI4
aI5
aI6
atp1180
Rp1181
ag11
ag38
ag20
ag41
ag71
ag23
ag92
atp1182
Rp1183
I720
sg1
((lp1184
g65
ag11
ag1
((lp1185
I1
aI2
aI3
aI5
atp1186
Rp1187
ag38
ag20
ag41
ag23
ag74
atp1188
Rp1189
I720
sg1
((lp1190
g86
ag62
ag1
((lp1191
I1
aI2
aI4
aI6
atp1192
Rp1193
ag50
ag11
ag56
ag26
ag92
atp1194
Rp1195
I360
sg1
((lp1196
g8
ag11
ag1
((lp1197
I1
aI2
aI3
aI5
atp1198
Rp1199
ag56
ag17
ag71
ag35
ag74
atp1200
Rp1201
I360
sg1
((lp1202
g35
ag8
ag56
ag20
ag1
((lp1203
I2
aI3
aI4
aI6
atp1204
Rp1205
ag71
ag26
ag92
atp1206
Rp1207
I360
sg1
((lp1208
g62
ag65
ag1
((lp1209
I1
aI2
aI3
aI4
atp1210
Rp1211
ag17
ag98
ag41
ag23
ag74
atp1212
Rp1213
I720
sg1
((lp1214
g5
ag8
ag74
ag32
ag35
ag62
ag26
ag1
((lp1215
I1
aI3
aI4
aI6
atp1216
Rp1217
atp1218
Rp1219
I360
sg1
((lp1220
g17
ag5
ag65
ag1
((lp1221
I3
aI4
aI5
aI6
atp1222
Rp1223
ag32
ag38
ag62
ag92
atp1224
Rp1225
I720
sg1
((lp1226
g5
ag56
ag20
ag23
ag1
((lp1227
I2
aI3
aI4
aI6
atp1228
Rp1229
ag71
ag26
ag92
atp1230
Rp1231
I720
sg1
((lp1232
g5
ag50
ag32
ag20
ag1
((lp1233
I2
aI3
aI4
aI6
atp1234
Rp1235
ag41
ag71
ag92
atp1236
Rp1237
I360
sg1
((lp1238
g62
ag98
ag11
ag35
ag1
((lp1239
I1
aI2
aI5
aI6
atp1240
Rp1241
ag20
ag23
ag74
atp1242
Rp1243
I720
sg1
((lp1244
g62
ag1
((lp1245
I1
aI3
aI4
aI6
atp1246
Rp1247
ag11
ag32
ag38
ag41
ag26
ag92
atp1248
Rp1249
I180
sg1
((lp1250
g86
ag65
ag50
ag11
ag38
ag98
ag71
ag1
((lp1251
I1
aI2
aI4
aI5
atp1252
Rp1253
atp1254
Rp1255
I720
sg1
((lp1256
g65
ag50
ag56
ag98
ag1
((lp1257
I2
aI3
aI4
aI6
atp1258
Rp1259
ag41
ag23
ag74
atp1260
Rp1261
I360
sg1
((lp1262
g86
ag62
ag65
ag98
ag41
ag1
((lp1263
I1
aI2
aI4
aI5
atp1264
Rp1265
ag23
ag74
atp1266
Rp1267
I720
sg1
((lp1268
g86
ag62
ag32
ag17
ag20
ag41
ag23
ag1
((lp1269
I2
aI3
aI4
aI5
atp1270
Rp1271
atp1272
Rp1273
I720
sg1
((lp1274
g86
ag62
ag1
((lp1275
I1
aI3
aI5
aI6
atp1276
Rp1277
ag11
ag35
ag38
ag20
ag92
atp1278
Rp1279
I180
sg1
((lp1280
g86
ag98
ag11
ag35
ag1
((lp1281
I1
aI3
aI4
aI5
atp1282
Rp1283
ag71
ag26
ag92
atp1284
Rp1285
I180
sg1
((lp1286
g62
ag11
ag56
ag1
((lp1287
I1
aI3
aI4
aI5
atp1288
Rp1289
ag41
ag71
ag26
ag92
atp1290
Rp1291
I720
sg1
((lp1292
g86
ag5
ag65
ag1
((lp1293
I1
aI2
aI3
aI4
atp1294
Rp1295
ag98
ag17
ag50
ag26
atp1296
Rp1297
I720
sg1
((lp1298
g17
ag62
ag1
((lp1299
I3
aI4
aI5
aI6
atp1300
Rp1301
ag35
ag38
ag98
ag71
ag26
atp1302
Rp1303
I720
sg1
((lp1304
g62
ag8
ag50
ag11
ag5
ag1
((lp1305
I2
aI4
aI5
aI6
atp1306
Rp1307
ag71
ag74
atp1308
Rp1309
I360
sg1
((lp1310
g50
ag1
((lp1311
I2
aI3
aI4
aI5
atp1312
Rp1313
ag32
ag17
ag92
ag71
ag23
ag74
atp1314
Rp1315
I720
sg1
((lp1316
g5
ag50
ag11
ag32
ag35
ag98
ag1
((lp1317
I2
aI4
aI5
aI6
atp1318
Rp1319
ag74
atp1320
Rp1321
I720
sg1
((lp1322
g50
ag35
ag17
ag20
ag1
((lp1323
I2
aI3
aI4
aI6
atp1324
Rp1325
ag71
ag23
ag92
atp1326
Rp1327
I720
sg1
((lp1328
g1
((lp1329
I1
aI3
aI5
aI6
atp1330
Rp1331
ag62
ag98
ag11
ag38
ag41
ag26
ag92
atp1332
Rp1333
I720
sg1
((lp1334
g17
ag8
ag1
((lp1335
I1
aI3
aI5
aI6
atp1336
Rp1337
ag56
ag38
ag41
ag26
ag92
atp1338
Rp1339
I720
sg1
((lp1340
g5
ag98
ag11
ag32
ag17
ag1
((lp1341
I2
aI4
aI5
aI6
atp1342
Rp1343
ag71
ag23
atp1344
Rp1345
I720
sg1
((lp1346
g65
ag8
ag50
ag32
ag35
ag98
ag1
((lp1347
I2
aI3
aI4
aI6
atp1348
Rp1349
ag23
atp1350
Rp1351
I720
sg1
((lp1352
g86
ag50
ag11
ag1
((lp1353
I1
aI2
aI3
aI5
atp1354
Rp1355
ag20
ag71
ag26
ag74
atp1356
Rp1357
I720
sg1
((lp1358
g8
ag11
ag32
ag35
ag1
((lp1359
I1
aI2
aI3
aI6
atp1360
Rp1361
ag56
ag26
ag74
atp1362
Rp1363
I720
sg1
((lp1364
g5
ag8
ag11
ag56
ag41
ag1
((lp1365
I1
aI2
aI4
aI5
atp1366
Rp1367
ag23
ag71
atp1368
Rp1369
I720
sg1
((lp1370
g5
ag8
ag11
ag32
ag35
ag17
ag56
ag1
((lp1371
I1
aI3
aI4
aI6
atp1372
Rp1373
atp1374
Rp1375
I720
sg1
((lp1376
g5
ag50
ag92
ag98
ag62
ag1
((lp1377
I2
aI4
aI5
aI6
atp1378
Rp1379
ag71
ag74
atp1380
Rp1381
I360
sg1
((lp1382
g62
ag98
ag32
ag35
ag38
ag1
((lp1383
I1
aI3
aI4
aI5
atp1384
Rp1385
ag23
ag74
atp1386
Rp1387
I360
sg1
((lp1388
g1
((lp1389
I3
aI4
aI5
aI6
atp1390
Rp1391
ag11
ag35
ag38
ag50
ag41
ag71
ag92
atp1392
Rp1393
I720
sg1
((lp1394
g86
ag62
ag50
ag1
((lp1395
I1
aI2
aI3
aI4
atp1396
Rp1397
ag32
ag98
ag71
ag26
atp1398
Rp1399
I360
sg1
((lp1400
g5
ag8
ag74
ag35
ag38
ag41
ag92
ag1
((lp1401
I1
aI3
aI4
aI6
atp1402
Rp1403
atp1404
Rp1405
I360
sg1
((lp1406
g62
ag50
ag74
ag38
ag20
ag5
ag71
ag1
((lp1407
I2
aI3
aI4
aI5
atp1408
Rp1409
atp1410
Rp1411
I720
sg1
((lp1412
g17
ag62
ag74
ag11
ag38
ag23
ag92
ag1
((lp1413
I1
aI2
aI5
aI6
atp1414
Rp1415
atp1416
Rp1417
I720
sg1
((lp1418
g62
ag8
ag1
((lp1419
I1
aI2
aI3
aI4
atp1420
Rp1421
ag32
ag56
ag17
ag71
ag23
atp1422
Rp1423
I360
sg1
((lp1424
g86
ag5
ag1
((lp1425
I2
aI3
aI5
aI6
atp1426
Rp1427
ag11
ag32
ag20
ag41
ag92
atp1428
Rp1429
I720
sg1
((lp1430
g65
ag8
ag50
ag35
ag1
((lp1431
I2
aI3
aI4
aI6
atp1432
Rp1433
ag41
ag26
ag92
atp1434
Rp1435
I720
sg1
((lp1436
g62
ag50
ag35
ag17
ag20
ag5
ag1
((lp1437
I2
aI4
aI5
aI6
atp1438
Rp1439
ag23
atp1440
Rp1441
I720
sg1
((lp1442
g86
ag5
ag1
((lp1443
I1
aI2
aI4
aI6
atp1444
Rp1445
ag8
ag32
ag56
ag17
ag62
atp1446
Rp1447
I720
sg1
((lp1448
g86
ag5
ag8
ag11
ag20
ag1
((lp1449
I2
aI4
aI5
aI6
atp1450
Rp1451
ag71
ag74
atp1452
Rp1453
I720
sg1
((lp1454
g1
((lp1455
I2
aI3
aI5
aI6
atp1456
Rp1457
ag11
ag35
ag20
ag41
ag71
ag26
ag56
atp1458
Rp1459
I720
sg1
((lp1460
g17
ag5
ag1
((lp1461
I2
aI3
aI5
aI6
atp1462
Rp1463
ag11
ag56
ag38
ag20
ag41
atp1464
Rp1465
I360
sg1
((lp1466
g1
((lp1467
I2
aI3
aI5
aI6
atp1468
Rp1469
ag11
ag32
ag35
ag38
ag41
ag26
ag92
atp1470
Rp1471
I60
sg1
((lp1472
g62
ag65
ag11
ag32
ag38
ag1
((lp1473
I1
aI3
aI4
aI5
atp1474
Rp1475
ag41
ag92
atp1476
Rp1477
I360
sg1
((lp1478
g5
ag65
ag98
ag1
((lp1479
I1
aI2
aI3
aI6
atp1480
Rp1481
ag32
ag38
ag20
ag74
atp1482
Rp1483
I360
sg1
((lp1484
g86
ag65
ag1
((lp1485
I1
aI2
aI3
aI4
atp1486
Rp1487
ag32
ag98
ag41
ag71
ag74
atp1488
Rp1489
I720
sg1
((lp1490
g50
ag11
ag1
((lp1491
I1
aI2
aI3
aI5
atp1492
Rp1493
ag17
ag41
ag71
ag23
ag74
atp1494
Rp1495
I720
sg1
((lp1496
g1
((lp1497
I1
aI2
aI5
aI6
atp1498
Rp1499
ag62
ag8
ag56
ag38
ag5
ag23
ag92
atp1500
Rp1501
I720
sg1
((lp1502
g5
ag56
ag35
ag62
ag41
ag71
ag23
ag1
((lp1503
I2
aI3
aI4
aI5
atp1504
Rp1505
atp1506
Rp1507
I360
sg1
((lp1508
g62
ag65
ag50
ag20
ag41
ag71
ag23
ag1
((lp1509
I1
aI2
aI4
aI5
atp1510
Rp1511
atp1512
Rp1513
I720
sg1
((lp1514
g5
ag92
ag32
ag17
ag41
ag71
ag26
ag1
((lp1515
I1
aI3
aI4
aI6
atp1516
Rp1517
atp1518
Rp1519
I360
sg1
((lp1520
g5
ag92
ag56
ag20
ag62
ag71
ag35
ag1
((lp1521
I2
aI3
aI4
aI5
atp1522
Rp1523
atp1524
Rp1525
I720
sg1
((lp1526
g17
ag65
ag8
ag11
ag35
ag38
ag1
((lp1527
I1
aI2
aI3
aI6
atp1528
Rp1529
ag74
atp1530
Rp1531
I720
sg1
((lp1532
g62
ag8
ag1
((lp1533
I1
aI3
aI4
aI6
atp1534
Rp1535
ag11
ag32
ag5
ag41
ag92
atp1536
Rp1537
I720
sg1
((lp1538
g86
ag74
ag32
ag35
ag38
ag20
ag23
ag1
((lp1539
I2
aI3
aI4
aI5
atp1540
Rp1541
atp1542
Rp1543
I360
sg1
((lp1544
g5
ag8
ag92
ag38
ag62
ag71
ag26
ag1
((lp1545
I1
aI3
aI4
aI6
atp1546
Rp1547
atp1548
Rp1549
I720
sg1
((lp1550
g62
ag65
ag1
((lp1551
I1
aI2
aI3
aI5
atp1552
Rp1553
ag35
ag38
ag20
ag41
ag71
atp1554
Rp1555
I720
sg1
((lp1556
g86
ag62
ag65
ag8
ag1
((lp1557
I1
aI3
aI5
aI6
atp1558
Rp1559
ag35
ag20
ag23
atp1560
Rp1561
I720
sg1
((lp1562
g5
ag65
ag26
ag32
ag35
ag17
ag1
((lp1563
I1
aI2
aI3
aI6
atp1564
Rp1565
ag23
atp1566
Rp1567
I720
sg1
((lp1568
g65
ag50
ag32
ag56
ag1
((lp1569
I1
aI3
aI4
aI5
atp1570
Rp1571
ag41
ag26
ag74
atp1572
Rp1573
I720
sg1
((lp1574
g5
ag1
((lp1575
I3
aI4
aI5
aI6
atp1576
Rp1577
ag11
ag38
ag50
ag41
ag23
ag92
atp1578
Rp1579
I720
sg1
((lp1580
g65
ag11
ag56
ag20
ag71
ag26
ag92
ag1
((lp1581
I1
aI2
aI4
aI6
atp1582
Rp1583
atp1584
Rp1585
I360
sg1
((lp1586
g62
ag65
ag1
((lp1587
I1
aI2
aI3
aI4
atp1588
Rp1589
ag56
ag17
ag50
ag71
ag26
atp1590
Rp1591
I360
sg1
((lp1592
g5
ag65
ag11
ag56
ag20
ag26
ag92
ag1
((lp1593
I1
aI2
aI4
aI6
atp1594
Rp1595
atp1596
Rp1597
I360
sg1
((lp1598
g5
ag65
ag8
ag32
ag17
ag62
ag26
ag1
((lp1599
I1
aI3
aI4
aI6
atp1600
Rp1601
atp1602
Rp1603
I360
sg1
((lp1604
g86
ag1
((lp1605
I2
aI3
aI5
aI6
atp1606
Rp1607
ag8
ag50
ag32
ag56
ag26
ag92
atp1608
Rp1609
I720
sg1
((lp1610
g62
ag50
ag11
ag1
((lp1611
I1
aI4
aI5
aI6
atp1612
Rp1613
ag35
ag98
ag32
ag92
atp1614
Rp1615
I360
sg1
((lp1616
g86
ag62
ag8
ag98
ag32
ag17
ag1
((lp1617
I2
aI4
aI5
aI6
atp1618
Rp1619
ag71
atp1620
Rp1621
I360
sg1
((lp1622
g5
ag65
ag8
ag56
ag20
ag71
ag74
ag1
((lp1623
I1
aI2
aI4
aI5
atp1624
Rp1625
atp1626
Rp1627
I360
sg1
((lp1628
g62
ag8
ag50
ag11
ag56
ag38
ag20
ag1
((lp1629
I1
aI2
aI4
aI5
atp1630
Rp1631
atp1632
Rp1633
I720
sg1
((lp1634
g1
((lp1635
I1
aI3
aI5
aI6
atp1636
Rp1637
ag65
ag11
ag32
ag56
ag38
ag41
ag92
atp1638
Rp1639
I720
sg1
((lp1640
g65
ag74
ag11
ag32
ag1
((lp1641
I1
aI3
aI4
aI5
atp1642
Rp1643
ag41
ag23
ag92
atp1644
Rp1645
I720
sg1
((lp1646
g86
ag8
ag32
ag56
ag17
ag1
((lp1647
I1
aI2
aI3
aI6
atp1648
Rp1649
ag71
ag26
atp1650
Rp1651
I720
sg1
((lp1652
g17
ag5
ag1
((lp1653
I1
aI2
aI3
aI4
atp1654
Rp1655
ag32
ag56
ag38
ag50
ag41
atp1656
Rp1657
I720
sg1
((lp1658
g86
ag23
ag50
ag1
((lp1659
I1
aI2
aI3
aI4
atp1660
Rp1661
ag32
ag56
ag98
ag26
atp1662
Rp1663
I360
sg1
((lp1664
g5
ag65
ag8
ag98
ag1
((lp1665
I1
aI2
aI3
aI6
atp1666
Rp1667
ag56
ag20
ag71
atp1668
Rp1669
I720
sg1
((lp1670
g86
ag65
ag8
ag50
ag11
ag98
ag1
((lp1671
I1
aI2
aI4
aI5
atp1672
Rp1673
ag23
atp1674
Rp1675
I360
sg1
((lp1676
g86
ag23
ag98
ag11
ag56
ag1
((lp1677
I1
aI2
aI5
aI6
atp1678
Rp1679
ag20
ag26
atp1680
Rp1681
I720
sg1
((lp1682
g86
ag5
ag1
((lp1683
I2
aI3
aI5
aI6
atp1684
Rp1685
ag56
ag20
ag41
ag23
ag92
atp1686
Rp1687
I720
sg1
((lp1688
g86
ag8
ag1
((lp1689
I1
aI2
aI3
aI6
atp1690
Rp1691
ag32
ag35
ag20
ag26
ag74
atp1692
Rp1693
I720
sg1
((lp1694
g86
ag8
ag1
((lp1695
I1
aI2
aI3
aI5
atp1696
Rp1697
ag38
ag20
ag41
ag26
ag74
atp1698
Rp1699
I720
sg1
((lp1700
g5
ag1
((lp1701
I3
aI4
aI5
aI6
atp1702
Rp1703
ag11
ag98
ag20
ag23
ag26
ag92
atp1704
Rp1705
I720
sg1
((lp1706
g5
ag98
ag11
ag17
ag41
ag1
((lp1707
I2
aI4
aI5
aI6
atp1708
Rp1709
ag23
ag92
atp1710
Rp1711
I720
sg1
((lp1712
g23
ag50
ag32
ag56
ag1
((lp1713
I1
aI3
aI4
aI5
atp1714
Rp1715
ag41
ag26
ag74
atp1716
Rp1717
I720
sg1
((lp1718
g8
ag50
ag98
ag56
ag38
ag1
((lp1719
I1
aI2
aI3
aI4
atp1720
Rp1721
ag71
ag26
atp1722
Rp1723
I720
sg1
((lp1724
g1
((lp1725
I3
aI4
aI5
aI6
atp1726
Rp1727
ag32
ag38
ag50
ag20
ag71
ag26
ag92
atp1728
Rp1729
I720
sg1
((lp1730
g86
ag5
ag98
ag32
ag20
ag1
((lp1731
I2
aI4
aI5
aI6
atp1732
Rp1733
ag23
ag92
atp1734
Rp1735
I180
sg1
((lp1736
g5
ag1
((lp1737
I2
aI3
aI5
aI6
atp1738
Rp1739
ag50
ag32
ag56
ag20
ag41
ag92
atp1740
Rp1741
I360
sg1
((lp1742
g62
ag56
ag38
ag5
ag41
ag71
ag92
ag1
((lp1743
I1
aI2
aI4
aI5
atp1744
Rp1745
atp1746
Rp1747
I720
sg1
((lp1748
g62
ag1
((lp1749
I1
aI3
aI4
aI6
atp1750
Rp1751
ag11
ag32
ag5
ag41
ag71
ag74
atp1752
Rp1753
I720
sg1
((lp1754
g5
ag50
ag11
ag20
ag41
ag71
ag23
ag1
((lp1755
I1
aI2
aI4
aI5
atp1756
Rp1757
atp1758
Rp1759
I720
sg1
((lp1760
g17
ag23
ag1
((lp1761
I1
aI2
aI3
aI4
atp1762
Rp1763
ag32
ag38
ag41
ag26
ag74
atp1764
Rp1765
I60
sg1
((lp1766
g17
ag98
ag35
ag38
ag50
ag20
ag56
ag1
((lp1767
I1
aI2
aI5
aI6
atp1768
Rp1769
atp1770
Rp1771
I360
sg1
((lp1772
g86
ag62
ag8
ag11
ag1
((lp1773
I1
aI2
aI3
aI5
atp1774
Rp1775
ag17
ag71
ag26
atp1776
Rp1777
I720
sg1
((lp1778
g65
ag8
ag98
ag1
((lp1779
I1
aI2
aI3
aI6
atp1780
Rp1781
ag11
ag17
ag20
ag71
atp1782
Rp1783
I720
sg1
((lp1784
g5
ag65
ag50
ag56
ag38
ag1
((lp1785
I1
aI2
aI4
aI5
atp1786
Rp1787
ag23
ag92
atp1788
Rp1789
I360
sg1
((lp1790
g1
((lp1791
I1
aI2
aI5
aI6
atp1792
Rp1793
ag8
ag50
ag11
ag56
ag38
ag20
ag74
atp1794
Rp1795
I360
sg1
((lp1796
g86
ag65
ag74
ag11
ag20
ag71
ag92
ag1
((lp1797
I1
aI2
aI4
aI5
atp1798
Rp1799
atp1800
Rp1801
I360
sg1
((lp1802
g17
ag5
ag1
((lp1803
I3
aI4
aI5
aI6
atp1804
Rp1805
ag38
ag98
ag71
ag23
ag92
atp1806
Rp1807
I360
sg1
((lp1808
g86
ag1
((lp1809
I2
aI3
aI5
aI6
atp1810
Rp1811
ag32
ag56
ag38
ag20
ag71
ag23
atp1812
Rp1813
I720
sg1
((lp1814
g86
ag5
ag92
ag35
ag17
ag20
ag1
((lp1815
I2
aI4
aI5
aI6
atp1816
Rp1817
ag74
atp1818
Rp1819
I720
sg1
((lp1820
g5
ag8
ag1
((lp1821
I1
aI2
aI3
aI4
atp1822
Rp1823
ag38
ag98
ag41
ag23
ag74
atp1824
Rp1825
I120
sg1
((lp1826
g5
ag65
ag1
((lp1827
I3
aI4
aI5
aI6
atp1828
Rp1829
ag32
ag38
ag98
ag20
ag23
atp1830
Rp1831
I720
sg1
((lp1832
g5
ag1
((lp1833
I1
aI2
aI4
aI6
atp1834
Rp1835
ag8
ag98
ag56
ag20
ag71
ag74
atp1836
Rp1837
I360
sg1
((lp1838
g86
ag5
ag8
ag50
ag1
((lp1839
I1
aI4
aI5
aI6
atp1840
Rp1841
ag98
ag62
ag74
atp1842
Rp1843
I180
s.