(dp0
c__builtin__
frozenset
p1
((lp2
g1
((lp3
I1
aI3
aI5
aI6
atp4
Rp5
ag1
((lp6
I2
aI3
aI5
aI6
atp7
Rp8
ag1
((lp9
I1
aI2
aI3
aI4
atp10
Rp11
ag1
((lp12
I1
aI3
aI4
aI6
atp13
Rp14
ag1
((lp15
I1
aI3
aI4
aI5
atp16
Rp17
ag1
((lp18
I1
aI2
aI3
aI6
atp19
Rp20
ag1
((lp21
I1
aI2
aI4
aI5
aI6
atp22
Rp23
ag1
((lp24
I2
aI3
aI4
aI6
atp25
Rp26
ag1
((lp27
I2
aI3
aI4
aI5
atp28
Rp29
atp30
Rp31
I90
sg1
((lp32
g1
((lp33
I2
aI3
aI4
aI5
aI6
atp34
Rp35
ag5
ag1
((lp36
I1
aI2
aI4
aI6
atp37
Rp38
ag11
ag1
((lp39
I1
aI2
aI3
aI5
atp40
Rp41
ag1
((lp42
I1
aI2
aI5
aI6
atp43
Rp44
ag20
ag17
ag14
atp45
Rp46
I180
s.