(dp0
c__builtin__
frozenset
p1
((lp2
g1
((lp3
I3
aI4
aI6
atp4
Rp5
ag1
((lp6
I2
aI3
aI6
atp7
Rp8
ag1
((lp9
I1
aI3
aI6
atp10
Rp11
ag1
((lp12
I3
aI5
atp13
Rp14
ag1
((lp15
I1
aI2
aI5
atp16
Rp17
ag1
((lp18
I4
aI5
aI6
atp19
Rp20
ag1
((lp21
I2
aI4
aI6
atp22
Rp23
ag1
((lp24
I1
aI3
aI4
atp25
Rp26
ag1
((lp27
I1
aI2
aI6
atp28
Rp29
ag1
((lp30
I2
aI4
aI5
atp31
Rp32
atp33
Rp34
I720
sg1
((lp35
g1
((lp36
I1
aI3
aI5
atp37
Rp38
ag1
((lp39
I1
aI3
aI6
atp40
Rp41
ag1
((lp42
I2
aI6
atp43
Rp44
ag1
((lp45
I4
aI5
aI6
atp46
Rp47
ag1
((lp48
I1
aI4
aI5
atp49
Rp50
ag1
((lp51
I2
aI3
aI5
atp52
Rp53
ag1
((lp54
I1
aI3
aI4
atp55
Rp56
ag1
((lp57
I1
aI4
aI6
atp58
Rp59
ag1
((lp60
I1
aI5
aI6
atp61
Rp62
ag1
((lp63
I2
aI4
aI5
atp64
Rp65
atp66
Rp67
I720
sg1
((lp68
g1
((lp69
I3
aI4
aI6
atp70
Rp71
ag1
((lp72
I1
aI3
aI5
atp73
Rp74
ag1
((lp75
I2
aI3
aI5
atp76
Rp77
ag1
((lp78
I2
aI3
aI4
atp79
Rp80
ag1
((lp81
I1
aI2
aI5
atp82
Rp83
ag1
((lp84
I1
aI3
aI4
atp85
Rp86
ag1
((lp87
I1
aI5
aI6
atp88
Rp89
ag1
((lp90
I1
aI4
aI6
atp91
Rp92
ag1
((lp93
I1
aI2
aI3
atp94
Rp95
ag1
((lp96
I4
aI5
atp97
Rp98
atp99
Rp100
I720
sg1
((lp101
g1
((lp102
I1
aI3
aI5
atp103
Rp104
ag1
((lp105
I1
aI3
aI6
atp106
Rp107
ag1
((lp108
I1
aI2
aI5
atp109
Rp110
ag1
((lp111
I1
aI2
aI4
atp112
Rp113
ag1
((lp114
I2
aI4
aI6
atp115
Rp116
ag1
((lp117
I3
aI4
atp118
Rp119
ag1
((lp120
I2
aI3
aI6
atp121
Rp122
ag1
((lp123
I1
aI5
aI6
atp124
Rp125
ag1
((lp126
I2
aI4
aI5
atp127
Rp128
ag1
((lp129
I4
aI5
aI6
atp130
Rp131
atp132
Rp133
I720
sg1
((lp134
g1
((lp135
I1
aI3
aI5
atp136
Rp137
ag1
((lp138
I1
aI3
aI6
atp139
Rp140
ag1
((lp141
I1
aI2
aI3
atp142
Rp143
ag1
((lp144
I1
aI4
atp145
Rp146
ag1
((lp147
I1
aI2
aI5
atp148
Rp149
ag1
((lp150
I2
aI4
aI6
atp151
Rp152
ag1
((lp153
I2
aI3
aI6
atp154
Rp155
ag1
((lp156
I1
aI2
aI6
atp157
Rp158
ag1
((lp159
I2
aI4
aI5
atp160
Rp161
ag1
((lp162
I3
aI5
aI6
atp163
Rp164
atp165
Rp166
I720
sg1
((lp167
g1
((lp168
I3
aI4
aI6
atp169
Rp170
ag1
((lp171
I2
aI3
aI6
atp172
Rp173
ag1
((lp174
I2
aI5
aI6
atp175
Rp176
ag1
((lp177
I3
aI4
aI5
atp178
Rp179
ag1
((lp180
I1
aI5
atp181
Rp182
ag1
((lp183
I1
aI2
aI4
atp184
Rp185
ag1
((lp186
I2
aI4
aI6
atp187
Rp188
ag1
((lp189
I1
aI3
aI4
atp190
Rp191
ag1
((lp192
I1
aI2
aI6
atp193
Rp194
ag1
((lp195
I1
aI4
aI6
atp196
Rp197
atp198
Rp199
I720
sg1
((lp200
g1
((lp201
I3
aI4
aI6
atp202
Rp203
ag1
((lp204
I1
aI3
aI6
atp205
Rp206
ag1
((lp207
I3
aI5
aI6
atp208
Rp209
ag1
((lp210
I1
aI2
aI5
atp211
Rp212
ag1
((lp213
I1
aI2
aI4
atp214
Rp215
ag1
((lp216
I1
aI4
aI5
atp217
Rp218
ag1
((lp219
I1
aI3
aI4
atp220
Rp221
ag1
((lp222
I2
aI3
atp223
Rp224
ag1
((lp225
I2
aI4
aI5
atp226
Rp227
ag1
((lp228
I4
aI5
aI6
atp229
Rp230
atp231
Rp232
I720
sg1
((lp233
g137
ag1
((lp234
I3
aI4
aI5
atp235
Rp236
ag146
ag1
((lp237
I2
aI3
aI4
atp238
Rp239
ag1
((lp240
I4
aI5
aI6
atp241
Rp242
ag152
ag155
ag1
((lp243
I1
aI5
aI6
atp244
Rp245
ag161
ag143
atp246
Rp247
I720
sg1
((lp248
g1
((lp249
I2
aI5
aI6
atp250
Rp251
ag1
((lp252
I3
aI6
atp253
Rp254
ag1
((lp255
I2
aI3
aI4
atp256
Rp257
ag1
((lp258
I1
aI2
aI4
atp259
Rp260
ag1
((lp261
I2
aI4
aI6
atp262
Rp263
ag1
((lp264
I1
aI3
aI4
atp265
Rp266
ag1
((lp267
I1
aI2
aI6
atp268
Rp269
ag1
((lp270
I4
aI5
aI6
atp271
Rp272
ag1
((lp273
I2
aI4
aI5
atp274
Rp275
ag1
((lp276
I1
aI2
aI3
atp277
Rp278
atp279
Rp280
I720
sg1
((lp281
g1
((lp282
I2
aI4
atp283
Rp284
ag1
((lp285
I3
aI4
aI6
atp286
Rp287
ag1
((lp288
I1
aI3
aI5
atp289
Rp290
ag1
((lp291
I2
aI5
aI6
atp292
Rp293
ag1
((lp294
I1
aI3
aI6
atp295
Rp296
ag1
((lp297
I1
aI2
aI3
atp298
Rp299
ag1
((lp300
I1
aI4
aI5
atp301
Rp302
ag1
((lp303
I1
aI2
aI6
atp304
Rp305
ag1
((lp306
I1
aI4
aI6
atp307
Rp308
ag1
((lp309
I3
aI5
aI6
atp310
Rp311
atp312
Rp313
I360
sg1
((lp314
g137
ag1
((lp315
I2
aI3
aI5
atp316
Rp317
ag143
ag146
ag239
ag242
ag155
ag245
ag161
ag164
atp318
Rp319
I720
sg1
((lp320
g1
((lp321
I3
aI4
aI6
atp322
Rp323
ag1
((lp324
I2
aI4
aI6
atp325
Rp326
ag1
((lp327
I2
aI3
aI5
atp328
Rp329
ag1
((lp330
I1
aI2
aI5
atp331
Rp332
ag1
((lp333
I1
aI2
aI4
atp334
Rp335
ag1
((lp336
I1
aI4
aI5
atp337
Rp338
ag1
((lp339
I1
aI3
atp340
Rp341
ag1
((lp342
I1
aI5
aI6
atp343
Rp344
ag1
((lp345
I2
aI4
aI5
atp346
Rp347
ag1
((lp348
I4
aI5
aI6
atp349
Rp350
atp351
Rp352
I720
sg1
((lp353
g197
ag176
ag179
ag1
((lp354
I1
aI3
aI6
atp355
Rp356
ag182
ag1
((lp357
I4
aI5
aI6
atp358
Rp359
ag1
((lp360
I2
aI3
aI5
atp361
Rp362
ag194
ag1
((lp363
I2
aI4
aI5
atp364
Rp365
ag1
((lp366
I3
aI5
aI6
atp367
Rp368
atp369
Rp370
I120
sg1
((lp371
g203
ag1
((lp372
I1
aI3
aI5
atp373
Rp374
ag1
((lp375
I3
aI4
aI5
atp376
Rp377
ag206
ag218
ag224
ag1
((lp378
I1
aI4
aI6
atp379
Rp380
ag1
((lp381
I1
aI5
aI6
atp382
Rp383
ag227
ag209
atp384
Rp385
I720
sg1
((lp386
g1
((lp387
I3
aI4
aI6
atp388
Rp389
ag137
ag236
ag140
ag146
ag239
ag242
ag158
ag245
ag164
atp390
Rp391
I360
sg1
((lp392
g1
((lp393
I2
aI3
aI6
atp394
Rp395
ag1
((lp396
I2
aI5
aI6
atp397
Rp398
ag1
((lp399
I3
aI4
aI5
atp400
Rp401
ag332
ag335
ag326
ag341
ag1
((lp402
I1
aI2
aI6
atp403
Rp404
ag347
ag1
((lp405
I3
aI5
aI6
atp406
Rp407
atp408
Rp409
I720
sg1
((lp410
g389
ag137
ag1
((lp411
I2
aI5
aI6
atp412
Rp413
ag140
ag146
ag239
ag149
ag152
ag317
ag245
atp414
Rp415
I360
sg1
((lp416
g74
ag1
((lp417
I2
aI5
aI6
atp418
Rp419
ag1
((lp420
I1
aI3
aI6
atp421
Rp422
ag83
ag1
((lp423
I2
aI4
aI6
atp424
Rp425
ag1
((lp426
I2
aI3
aI6
atp427
Rp428
ag1
((lp429
I1
aI2
aI6
atp430
Rp431
ag92
ag1
((lp432
I3
aI5
aI6
atp433
Rp434
ag98
atp435
Rp436
I720
sg1
((lp437
g1
((lp438
I3
aI4
aI5
atp439
Rp440
ag41
ag44
ag1
((lp441
I2
aI3
aI4
atp442
Rp443
ag1
((lp444
I1
aI2
aI5
atp445
Rp446
ag47
ag50
ag53
ag65
ag1
((lp447
I3
aI5
aI6
atp448
Rp449
atp450
Rp451
I720
sg1
((lp452
g218
ag374
ag206
ag212
ag230
ag1
((lp453
I2
aI4
aI6
atp454
Rp455
ag221
ag224
ag1
((lp456
I1
aI2
aI6
atp457
Rp458
ag227
atp459
Rp460
I720
sg1
((lp461
g1
((lp462
I1
aI3
aI5
atp463
Rp464
ag1
((lp465
I3
aI4
aI5
atp466
Rp467
ag1
((lp468
I1
aI3
aI6
atp469
Rp470
ag1
((lp471
I4
aI5
aI6
atp472
Rp473
ag1
((lp474
I2
aI4
aI6
atp475
Rp476
ag1
((lp477
I1
aI3
aI4
atp478
Rp479
ag1
((lp480
I2
aI5
atp481
Rp482
ag1
((lp483
I1
aI5
aI6
atp484
Rp485
ag1
((lp486
I1
aI2
aI4
atp487
Rp488
ag1
((lp489
I3
aI5
aI6
atp490
Rp491
atp492
Rp493
I720
sg1
((lp494
g284
ag287
ag1
((lp495
I2
aI3
aI6
atp496
Rp497
ag293
ag1
((lp498
I1
aI2
aI5
atp499
Rp500
ag1
((lp501
I4
aI5
aI6
atp502
Rp503
ag302
ag305
ag1
((lp504
I1
aI5
aI6
atp505
Rp506
ag308
atp507
Rp508
I180
sg1
((lp509
g389
ag137
ag413
ag317
ag146
ag239
ag242
ag155
ag161
ag164
atp510
Rp511
I180
sg1
((lp512
g374
ag1
((lp513
I2
aI5
aI6
atp514
Rp515
ag206
ag209
ag215
ag221
ag224
ag458
ag380
ag230
atp516
Rp517
I720
sg1
((lp518
g428
ag419
ag422
ag80
ag83
ag425
ag77
ag431
ag95
ag98
atp519
Rp520
I360
sg1
((lp521
g197
ag362
ag1
((lp522
I1
aI2
aI3
atp523
Rp524
ag182
ag185
ag191
ag194
ag359
ag365
ag368
atp525
Rp526
I360
sg1
((lp527
g1
((lp528
I1
aI3
aI5
atp529
Rp530
ag1
((lp531
I3
aI4
aI5
atp532
Rp533
ag1
((lp534
I2
aI3
aI5
atp535
Rp536
ag1
((lp537
I1
aI2
aI3
atp538
Rp539
ag1
((lp540
I2
aI3
aI4
atp541
Rp542
ag1
((lp543
I1
aI2
aI5
atp544
Rp545
ag1
((lp546
I2
aI3
aI6
atp547
Rp548
ag1
((lp549
I4
aI6
atp550
Rp551
ag1
((lp552
I2
aI4
aI5
atp553
Rp554
ag1
((lp555
I3
aI5
aI6
atp556
Rp557
atp558
Rp559
I360
sg1
((lp560
g1
((lp561
I2
aI5
aI6
atp562
Rp563
ag533
ag536
ag539
ag545
ag1
((lp564
I1
aI2
aI4
atp565
Rp566
ag551
ag1
((lp567
I1
aI2
aI6
atp568
Rp569
ag554
ag557
atp570
Rp571
I360
sg1
((lp572
g1
((lp573
I1
aI3
aI5
atp574
Rp575
ag251
ag254
ag1
((lp576
I2
aI3
aI5
atp577
Rp578
ag1
((lp579
I1
aI2
aI5
atp580
Rp581
ag266
ag269
ag1
((lp582
I1
aI5
aI6
atp583
Rp584
ag275
ag278
atp585
Rp586
I360
sg1
((lp587
g5
ag8
ag14
ag20
ag1
((lp588
I1
aI4
aI5
atp589
Rp590
ag26
ag29
ag1
((lp591
I1
aI5
aI6
atp592
Rp593
ag32
ag1
((lp594
I1
aI2
aI3
atp595
Rp596
atp597
Rp598
I360
sg1
((lp599
g104
ag1
((lp600
I2
aI5
aI6
atp601
Rp602
ag119
ag107
ag131
ag1
((lp603
I2
aI3
aI5
atp604
Rp605
ag122
ag1
((lp606
I1
aI2
aI6
atp607
Rp608
ag125
ag1
((lp609
I3
aI5
aI6
atp610
Rp611
atp612
Rp613
I360
sg1
((lp614
g530
ag563
ag533
ag1
((lp615
I1
aI3
aI6
atp616
Rp617
ag545
ag1
((lp618
I1
aI4
aI5
atp619
Rp620
ag536
ag551
ag1
((lp621
I1
aI5
aI6
atp622
Rp623
ag539
atp624
Rp625
I720
sg1
((lp626
g1
((lp627
I3
aI4
aI6
atp628
Rp629
ag1
((lp630
I1
aI3
aI5
atp631
Rp632
ag1
((lp633
I3
aI4
aI5
atp634
Rp635
ag1
((lp636
I1
aI3
aI6
atp637
Rp638
ag1
((lp639
I5
aI6
atp640
Rp641
ag1
((lp642
I2
aI3
aI4
atp643
Rp644
ag1
((lp645
I1
aI2
aI5
atp646
Rp647
ag1
((lp648
I2
aI4
aI6
atp649
Rp650
ag1
((lp651
I2
aI4
aI5
atp652
Rp653
ag1
((lp654
I1
aI2
aI3
atp655
Rp656
atp657
Rp658
I720
sg1
((lp659
g323
ag395
ag326
ag401
ag329
ag338
ag341
ag404
ag344
ag347
atp660
Rp661
I360
sg1
((lp662
g575
ag251
ag1
((lp663
I3
aI4
aI5
atp664
Rp665
ag254
ag578
ag581
ag1
((lp666
I1
aI4
aI5
atp667
Rp668
ag269
ag584
ag1
((lp669
I1
aI4
aI6
atp670
Rp671
atp672
Rp673
I720
sg1
((lp674
g1
((lp675
I3
aI4
aI6
atp676
Rp677
ag1
((lp678
I2
aI3
aI6
atp679
Rp680
ag1
((lp681
I3
aI4
aI5
atp682
Rp683
ag1
((lp684
I2
aI3
aI5
atp685
Rp686
ag1
((lp687
I1
aI2
atp688
Rp689
ag1
((lp690
I2
aI3
aI4
atp691
Rp692
ag1
((lp693
I1
aI3
aI4
atp694
Rp695
ag1
((lp696
I1
aI5
aI6
atp697
Rp698
ag1
((lp699
I2
aI4
aI5
atp700
Rp701
ag1
((lp702
I3
aI5
aI6
atp703
Rp704
atp705
Rp706
I720
sg1
((lp707
g284
ag287
ag290
ag293
ag1
((lp708
I3
aI4
aI5
atp709
Rp710
ag299
ag500
ag503
ag302
ag311
atp711
Rp712
I720
sg1
((lp713
g71
ag422
ag80
ag83
ag1
((lp714
I1
aI2
aI4
atp715
Rp716
ag86
ag89
ag92
ag434
ag98
atp717
Rp718
I720
sg1
((lp719
g530
ag617
ag542
ag545
ag566
ag620
ag536
ag548
ag551
ag569
atp720
Rp721
I720
sg1
((lp722
g548
ag563
ag533
ag617
ag542
ag545
ag620
ag551
ag623
ag557
atp723
Rp724
I720
sg1
((lp725
g530
ag563
ag617
ag539
ag542
ag1
((lp726
I1
aI3
aI4
atp727
Rp728
ag548
ag551
ag569
ag557
atp729
Rp730
I720
sg1
((lp731
g71
ag428
ag422
ag95
ag83
ag77
ag86
ag431
ag434
ag98
atp732
Rp733
I720
sg1
((lp734
g530
ag563
ag533
ag545
ag566
ag728
ag551
ag569
ag623
ag554
atp735
Rp736
I360
sg1
((lp737
g1
((lp738
I1
aI4
aI5
atp739
Rp740
ag1
((lp741
I2
aI3
aI6
atp742
Rp743
ag1
((lp744
I1
aI2
aI3
atp745
Rp746
ag1
((lp747
I2
aI3
aI4
atp748
Rp749
ag476
ag479
ag482
ag1
((lp750
I1
aI2
aI6
atp751
Rp752
ag1
((lp753
I1
aI4
aI6
atp754
Rp755
ag491
atp756
Rp757
I180
sg1
((lp758
g137
ag413
ag140
ag146
ag239
ag149
ag242
ag152
ag317
ag161
atp759
Rp760
I720
sg1
((lp761
g575
ag665
ag254
ag581
ag260
ag263
ag266
ag269
ag671
ag278
atp762
Rp763
I720
sg1
((lp764
g260
ag665
ag254
ag578
ag272
ag668
ag269
ag584
ag671
ag278
atp765
Rp766
I720
sg1
((lp767
g173
ag362
ag524
ag182
ag185
ag188
ag191
ag194
ag365
ag368
atp768
Rp769
I720
sg1
((lp770
g71
ag419
ag77
ag95
ag86
ag431
ag89
ag92
ag434
ag98
atp771
Rp772
I720
sg1
((lp773
g530
ag536
ag542
ag566
ag620
ag728
ag551
ag623
ag554
ag557
atp774
Rp775
I720
sg1
((lp776
g515
ag377
ag206
ag215
ag455
ag221
ag224
ag383
ag227
ag230
atp777
Rp778
I720
sg1
((lp779
g1
((lp780
I3
aI4
aI6
atp781
Rp782
ag1
((lp783
I1
aI2
aI3
atp784
Rp785
ag44
ag443
ag446
ag1
((lp786
I1
aI2
aI4
atp787
Rp788
ag56
ag62
ag65
ag449
atp789
Rp790
I720
sg1
((lp791
g677
ag1
((lp792
I2
aI5
aI6
atp793
Rp794
ag683
ag1
((lp795
I1
aI3
aI6
atp796
Rp797
ag689
ag1
((lp798
I4
aI5
aI6
atp799
Rp800
ag1
((lp801
I2
aI4
aI6
atp802
Rp803
ag686
ag698
ag1
((lp804
I1
aI4
aI6
atp805
Rp806
atp807
Rp808
I720
sg1
((lp809
g530
ag563
ag542
ag545
ag566
ag620
ag728
ag551
ag623
ag539
atp810
Rp811
I720
sg1
((lp812
g284
ag290
ag710
ag1
((lp813
I2
aI3
aI5
atp814
Rp815
ag500
ag302
ag305
ag506
ag308
ag299
atp816
Rp817
I720
sg1
((lp818
g782
ag59
ag440
ag41
ag44
ag47
ag50
ag62
ag65
ag449
atp819
Rp820
I180
sg1
((lp821
g575
ag254
ag578
ag275
ag581
ag272
ag266
ag584
ag260
ag278
atp822
Rp823
I720
sg1
((lp824
g389
ag137
ag413
ag236
ag140
ag146
ag149
ag152
ag317
ag245
atp825
Rp826
I720
sg1
((lp827
g203
ag374
ag377
ag206
ag455
ag221
ag224
ag218
ag458
ag227
atp828
Rp829
I720
sg1
((lp830
g668
ag251
ag665
ag254
ag257
ag581
ag260
ag263
ag671
ag272
atp831
Rp832
I360
sg1
((lp833
g743
ag746
ag749
ag488
ag740
ag479
ag482
ag485
ag473
ag491
atp834
Rp835
I360
sg1
((lp836
g629
ag1
((lp837
I2
aI3
aI6
atp838
Rp839
ag638
ag641
ag647
ag1
((lp840
I1
aI2
aI4
atp841
Rp842
ag1
((lp843
I2
aI3
aI5
atp844
Rp845
ag1
((lp846
I1
aI3
aI4
atp847
Rp848
ag1
((lp849
I1
aI4
aI6
atp850
Rp851
ag653
atp852
Rp853
I360
sg1
((lp854
g1
((lp855
I1
aI4
aI5
atp856
Rp857
ag104
ag602
ag110
ag131
ag116
ag119
ag608
ag125
ag1
((lp858
I1
aI2
aI3
atp859
Rp860
atp861
Rp862
I720
sg1
((lp863
g1
((lp864
I1
aI4
aI6
atp865
Rp866
ag1
((lp867
I2
aI5
aI6
atp868
Rp869
ag11
ag14
ag17
ag1
((lp870
I1
aI2
aI4
atp871
Rp872
ag23
ag29
ag32
ag20
atp873
Rp874
I720
sg1
((lp875
g254
ag578
ag257
ag581
ag272
ag263
ag269
ag584
ag275
ag278
atp876
Rp877
I360
sg1
((lp878
g74
ag422
ag80
ag83
ag425
ag86
ag428
ag431
ag92
ag98
atp879
Rp880
I720
sg1
((lp881
g170
ag173
ag176
ag362
ag182
ag1
((lp882
I2
aI3
aI4
atp883
Rp884
ag185
ag194
ag365
ag368
atp885
Rp886
I720
sg1
((lp887
g1
((lp888
I1
aI4
aI5
atp889
Rp890
ag635
ag638
ag641
ag644
ag647
ag650
ag845
ag848
ag656
atp891
Rp892
I360
sg1
((lp893
g782
ag41
ag44
ag443
ag446
ag788
ag53
ag56
ag62
ag785
atp894
Rp895
I720
sg1
((lp896
g389
ag137
ag413
ag140
ag146
ag239
ag242
ag155
ag158
ag164
atp897
Rp898
I360
sg1
((lp899
g575
ag251
ag254
ag257
ag581
ag260
ag668
ag584
ag275
ag272
atp900
Rp901
I360
sg1
((lp902
g629
ag839
ag635
ag638
ag641
ag644
ag647
ag842
ag845
ag656
atp903
Rp904
I720
sg1
((lp905
g395
ag401
ag329
ag335
ag338
ag341
ag404
ag344
ag1
((lp906
I1
aI4
aI6
atp907
Rp908
ag407
atp909
Rp910
I720
sg1
((lp911
g530
ag533
ag542
ag545
ag620
ag548
ag551
ag623
ag554
ag539
atp912
Rp913
I360
sg1
((lp914
g629
ag851
ag635
ag845
ag641
ag644
ag890
ag848
ag1
((lp915
I1
aI2
aI6
atp916
Rp917
ag653
atp918
Rp919
I720
sg1
((lp920
g338
ag395
ag398
ag332
ag335
ag326
ag341
ag344
ag908
ag350
atp921
Rp922
I360
sg1
((lp923
g1
((lp924
I3
aI4
aI6
atp925
Rp926
ag1
((lp927
I2
aI3
aI6
atp928
Rp929
ag1
((lp930
I2
aI5
aI6
atp931
Rp932
ag1
((lp933
I2
aI4
aI6
atp934
Rp935
ag1
((lp936
I2
aI3
aI4
atp937
Rp938
ag1
((lp939
I4
aI5
aI6
atp940
Rp941
ag1
((lp942
I1
aI4
aI5
atp943
Rp944
ag1
((lp945
I1
aI3
aI4
atp946
Rp947
ag1
((lp948
I1
aI6
atp949
Rp950
ag1
((lp951
I3
aI5
aI6
atp952
Rp953
atp954
Rp955
I720
sg1
((lp956
g530
ag563
ag536
ag542
ag566
ag620
ag551
ag623
ag554
ag539
atp957
Rp958
I720
sg1
((lp959
g629
ag638
ag641
ag644
ag650
ag848
ag890
ag917
ag851
ag656
atp960
Rp961
I360
sg1
((lp962
g203
ag209
ag212
ag215
ag455
ag224
ag218
ag458
ag380
ag230
atp963
Rp964
I720
sg1
((lp965
g173
ag179
ag524
ag182
ag884
ag185
ag188
ag194
ag359
ag368
atp966
Rp967
I120
sg1
((lp968
g680
ag794
ag683
ag689
ag692
ag695
ag1
((lp969
I1
aI3
aI5
atp970
Rp971
ag806
ag701
ag704
atp972
Rp973
I720
sg1
((lp974
g284
ag290
ag293
ag296
ag299
ag815
ag305
ag506
ag308
ag311
atp975
Rp976
I360
sg1
((lp977
g203
ag377
ag206
ag212
ag215
ag221
ag224
ag458
ag383
ag380
atp978
Rp979
I720
sg1
((lp980
g575
ag254
ag578
ag257
ag272
ag668
ag266
ag269
ag584
ag671
atp981
Rp982
I360
sg1
((lp983
g530
ag563
ag536
ag542
ag545
ag620
ag551
ag569
ag623
ag539
atp984
Rp985
I360
sg1
((lp986
g5
ag869
ag14
ag1
((lp987
I2
aI3
aI4
atp988
Rp989
ag17
ag20
ag23
ag29
ag593
ag872
atp990
Rp991
I720
sg1
((lp992
g8
ag11
ag596
ag14
ag989
ag17
ag872
ag26
ag866
ag20
atp993
Rp994
I720
sg1
((lp995
g155
ag413
ag236
ag140
ag146
ag242
ag152
ag317
ag161
ag143
atp996
Rp997
I720
sg1
((lp998
g284
ag287
ag290
ag293
ag296
ag1
((lp999
I1
aI3
aI4
atp1000
Rp1001
ag497
ag305
ag506
ag311
atp1002
Rp1003
I720
sg1
((lp1004
g137
ag413
ag140
ag146
ag239
ag152
ag317
ag158
ag161
ag164
atp1005
Rp1006
I720
sg1
((lp1007
g1
((lp1008
I3
aI4
aI6
atp1009
Rp1010
ag467
ag476
ag749
ag740
ag482
ag752
ag485
ag755
ag491
atp1011
Rp1012
I360
sg1
((lp1013
g677
ag971
ag797
ag689
ag692
ag800
ag695
ag698
ag806
ag704
atp1014
Rp1015
I720
sg1
((lp1016
g389
ag155
ag140
ag143
ag146
ag239
ag242
ag158
ag161
ag164
atp1017
Rp1018
I720
sg1
((lp1019
g284
ag287
ag497
ag710
ag500
ag503
ag302
ag1001
ag308
ag299
atp1020
Rp1021
I360
sg1
((lp1022
g926
ag1
((lp1023
I1
aI3
aI5
atp1024
Rp1025
ag1
((lp1026
I2
aI3
aI5
atp1027
Rp1028
ag1
((lp1029
I1
aI2
aI5
atp1030
Rp1031
ag1
((lp1032
I1
aI2
aI4
atp1033
Rp1034
ag944
ag947
ag950
ag1
((lp1035
I2
aI4
aI5
atp1036
Rp1037
ag953
atp1038
Rp1039
I720
sg1
((lp1040
g41
ag44
ag443
ag446
ag788
ag53
ag56
ag47
ag65
ag785
atp1041
Rp1042
I360
sg1
((lp1043
g932
ag1
((lp1044
I3
aI4
aI5
atp1045
Rp1046
ag1028
ag1
((lp1047
I1
aI2
aI3
atp1048
Rp1049
ag938
ag1031
ag941
ag950
ag1034
ag953
atp1050
Rp1051
I360
sg1
((lp1052
g926
ag1025
ag932
ag1046
ag935
ag938
ag1031
ag944
ag950
ag1037
atp1053
Rp1054
I720
sg1
((lp1055
g629
ag839
ag635
ag638
ag641
ag890
ag848
ag851
ag917
ag653
atp1056
Rp1057
I360
sg1
((lp1058
g323
ag395
ag401
ag1
((lp1059
I2
aI3
aI4
atp1060
Rp1061
ag332
ag350
ag338
ag908
ag341
ag347
atp1062
Rp1063
I720
sg1
((lp1064
g284
ag287
ag290
ag293
ag710
ag815
ag503
ag1001
ag308
ag299
atp1065
Rp1066
I720
sg1
((lp1067
g137
ag413
ag140
ag146
ag239
ag149
ag242
ag152
ag158
ag245
atp1068
Rp1069
I720
sg1
((lp1070
g338
ag395
ag401
ag1061
ag335
ag326
ag341
ag404
ag344
ag347
atp1071
Rp1072
I360
sg1
((lp1073
g866
ag869
ag14
ag989
ag17
ag20
ag590
ag29
ag32
ag596
atp1074
Rp1075
I720
sg1
((lp1076
g5
ag8
ag11
ag14
ag17
ag872
ag590
ag29
ag593
ag32
atp1077
Rp1078
I720
sg1
((lp1079
g677
ag680
ag794
ag683
ag797
ag689
ag692
ag803
ag1
((lp1080
I1
aI4
aI5
atp1081
Rp1082
ag701
atp1083
Rp1084
I720
sg1
((lp1085
g74
ag422
ag80
ag716
ag425
ag86
ag431
ag92
ag95
ag98
atp1086
Rp1087
I720
sg1
((lp1088
g137
ag236
ag146
ag239
ag149
ag152
ag155
ag158
ag245
ag164
atp1089
Rp1090
I720
sg1
((lp1091
g677
ag680
ag794
ag683
ag689
ag692
ag800
ag803
ag701
ag704
atp1092
Rp1093
I180
sg1
((lp1094
g629
ag632
ag635
ag641
ag842
ag890
ag839
ag917
ag851
ag656
atp1095
Rp1096
I720
sg1
((lp1097
g71
ag74
ag422
ag80
ag716
ag425
ag428
ag89
ag92
ag98
atp1098
Rp1099
I720
sg1
((lp1100
g668
ag671
ag665
ag254
ag581
ag272
ag263
ag269
ag584
ag275
atp1101
Rp1102
I720
sg1
((lp1103
g857
ag104
ag107
ag860
ag113
ag116
ag119
ag608
ag1
((lp1104
I1
aI4
aI6
atp1105
Rp1106
ag131
atp1107
Rp1108
I720
sg1
((lp1109
g71
ag74
ag419
ag422
ag77
ag428
ag431
ag92
ag95
ag98
atp1110
Rp1111
I720
sg1
((lp1112
g203
ag515
ag377
ag215
ag221
ag224
ag458
ag383
ag380
ag209
atp1113
Rp1114
I720
sg1
((lp1115
g203
ag374
ag206
ag230
ag455
ag224
ag218
ag458
ag380
ag209
atp1116
Rp1117
I720
sg1
((lp1118
g743
ag467
ag488
ag476
ag479
ag482
ag752
ag485
ag473
ag491
atp1119
Rp1120
I360
sg1
((lp1121
g284
ag287
ag293
ag710
ag296
ag500
ag503
ag815
ag305
ag299
atp1122
Rp1123
I360
sg1
((lp1124
g590
ag8
ag11
ag14
ag17
ag872
ag23
ag29
ag32
ag596
atp1125
Rp1126
I360
sg1
((lp1127
g782
ag38
ag41
ag44
ag446
ag788
ag50
ag56
ag62
ag785
atp1128
Rp1129
I720
sg1
((lp1130
g530
ag563
ag617
ag536
ag728
ag548
ag551
ag623
ag554
ag557
atp1131
Rp1132
I360
sg1
((lp1133
g782
ag38
ag41
ag44
ag443
ag446
ag788
ag53
ag59
ag785
atp1134
Rp1135
I360
sg1
((lp1136
g323
ag395
ag398
ag401
ag335
ag326
ag908
ag341
ag404
ag347
atp1137
Rp1138
I720
sg1
((lp1139
g176
ag179
ag356
ag182
ag884
ag359
ag188
ag191
ag197
ag368
atp1140
Rp1141
I720
sg1
((lp1142
g170
ag173
ag176
ag356
ag182
ag884
ag185
ag197
ag365
ag368
atp1143
Rp1144
I360
sg1
((lp1145
g203
ag515
ag212
ag215
ag218
ag221
ag224
ag458
ag383
ag230
atp1146
Rp1147
I720
sg1
((lp1148
g389
ag137
ag413
ag236
ag146
ag149
ag242
ag152
ag158
ag164
atp1149
Rp1150
I720
sg1
((lp1151
g122
ag602
ag119
ag107
ag110
ag131
ag605
ag125
ag128
ag611
atp1152
Rp1153
I720
sg1
((lp1154
g389
ag155
ag236
ag140
ag146
ag149
ag317
ag245
ag161
ag143
atp1155
Rp1156
I720
sg1
((lp1157
g104
ag860
ag110
ag113
ag119
ag122
ag1106
ag608
ag131
ag611
atp1158
Rp1159
I720
sg1
((lp1160
g251
ag665
ag254
ag578
ag272
ag266
ag269
ag584
ag671
ag278
atp1161
Rp1162
I180
sg1
((lp1163
g575
ag251
ag254
ag578
ag257
ag581
ag260
ag269
ag275
ag278
atp1164
Rp1165
I360
sg1
((lp1166
g740
ag743
ag470
ag749
ag476
ag482
ag752
ag485
ag755
ag746
atp1167
Rp1168
I720
sg1
((lp1169
g284
ag287
ag290
ag293
ag710
ag815
ag299
ag1001
ag497
ag311
atp1170
Rp1171
I720
sg1
((lp1172
g284
ag287
ag293
ag710
ag296
ag500
ag503
ag815
ag1001
ag311
atp1173
Rp1174
I720
sg1
((lp1175
g1106
ag602
ag605
ag110
ag113
ag116
ag119
ag131
ag128
ag611
atp1176
Rp1177
I720
sg1
((lp1178
g284
ag497
ag293
ag710
ag296
ag503
ag302
ag506
ag308
ag311
atp1179
Rp1180
I720
sg1
((lp1181
g857
ag122
ag602
ag107
ag860
ag110
ag116
ag119
ag1106
ag611
atp1182
Rp1183
I720
sg1
((lp1184
g677
ag680
ag794
ag683
ag797
ag689
ag1082
ag686
ag806
ag704
atp1185
Rp1186
I720
sg1
((lp1187
g926
ag1046
ag1028
ag1049
ag938
ag1034
ag935
ag950
ag1037
ag953
atp1188
Rp1189
I720
sg1
((lp1190
g590
ag8
ag14
ag989
ag872
ag23
ag26
ag593
ag866
ag20
atp1191
Rp1192
I720
sg1
((lp1193
g323
ag326
ag329
ag335
ag338
ag341
ag404
ag344
ag908
ag407
atp1194
Rp1195
I720
sg1
((lp1196
g440
ag41
ag785
ag44
ag443
ag446
ag788
ag53
ag59
ag47
atp1197
Rp1198
I720
sg1
((lp1199
g926
ag1025
ag1028
ag938
ag935
ag947
ag929
ag950
ag1037
ag1049
atp1200
Rp1201
I720
sg1
((lp1202
g284
ag290
ag293
ag710
ag296
ag1001
ag305
ag506
ag308
ag299
atp1203
Rp1204
I360
sg1
((lp1205
g389
ag155
ag413
ag143
ag146
ag239
ag149
ag242
ag161
ag164
atp1206
Rp1207
I360
sg1
((lp1208
g467
ag470
ag746
ag749
ag473
ag476
ag479
ag482
ag488
ag491
atp1209
Rp1210
I720
sg1
((lp1211
g944
ag1025
ag1046
ag1049
ag941
ag935
ag947
ag929
ag950
ag953
atp1212
Rp1213
I720
sg1
((lp1214
g530
ag563
ag536
ag539
ag545
ag566
ag551
ag569
ag623
ag557
atp1215
Rp1216
I360
sg1
((lp1217
g782
ag38
ag41
ag44
ag446
ag47
ag53
ag59
ag62
ag65
atp1218
Rp1219
I720
sg1
((lp1220
g338
ag398
ag401
ag329
ag1061
ag332
ag326
ag341
ag347
ag407
atp1221
Rp1222
I720
sg1
((lp1223
g374
ag515
ag377
ag212
ag215
ag455
ag221
ag224
ag383
ag227
atp1224
Rp1225
I720
sg1
((lp1226
g782
ag38
ag41
ag44
ag443
ag446
ag47
ag59
ag65
ag785
atp1227
Rp1228
I720
sg1
((lp1229
g548
ag617
ag542
ag566
ag620
ag536
ag728
ag551
ag623
ag539
atp1230
Rp1231
I720
sg1
((lp1232
g782
ag440
ag53
ag44
ag446
ag47
ag50
ag56
ag62
ag785
atp1233
Rp1234
I720
sg1
((lp1235
g575
ag251
ag254
ag257
ag581
ag272
ag668
ag266
ag584
ag278
atp1236
Rp1237
I360
sg1
((lp1238
g629
ag632
ag845
ag641
ag644
ag647
ag890
ag839
ag917
ag656
atp1239
Rp1240
I720
sg1
((lp1241
g389
ag155
ag413
ag236
ag317
ag146
ag149
ag152
ag158
ag161
atp1242
Rp1243
I360
sg1
((lp1244
g71
ag74
ag419
ag422
ag80
ag83
ag86
ag431
ag95
ag98
atp1245
Rp1246
I720
sg1
((lp1247
g632
ag635
ag845
ag641
ag644
ag647
ag890
ag851
ag917
ag653
atp1248
Rp1249
I360
sg1
((lp1250
g395
ag398
ag401
ag1061
ag335
ag338
ag341
ag404
ag908
ag350
atp1251
Rp1252
I720
sg1
((lp1253
g926
ag935
ag1028
ag1049
ag938
ag1034
ag944
ag947
ag950
ag953
atp1254
Rp1255
I720
sg1
((lp1256
g203
ag374
ag515
ag206
ag215
ag455
ag221
ag224
ag227
ag230
atp1257
Rp1258
I720
sg1
((lp1259
g563
ag533
ag536
ag539
ag542
ag620
ag551
ag623
ag554
ag557
atp1260
Rp1261
I360
sg1
((lp1262
g944
ag1025
ag932
ag1028
ag1034
ag935
ag929
ag950
ag941
ag1049
atp1263
Rp1264
I720
sg1
((lp1265
g857
ag104
ag119
ag107
ag116
ag605
ag122
ag608
ag125
ag128
atp1266
Rp1267
I360
sg1
((lp1268
g59
ag440
ag44
ag446
ag788
ag50
ag56
ag62
ag65
ag47
atp1269
Rp1270
I180
sg1
((lp1271
g680
ag794
ag683
ag686
ag689
ag692
ag1082
ag698
ag701
ag704
atp1272
Rp1273
I360
sg1
((lp1274
g38
ag440
ag785
ag44
ag443
ag446
ag788
ag50
ag59
ag47
atp1275
Rp1276
I720
sg1
((lp1277
g41
ag785
ag44
ag443
ag47
ag788
ag50
ag62
ag65
ag449
atp1278
Rp1279
I360
sg1
((lp1280
g104
ag107
ag110
ag131
ag116
ag119
ag122
ag608
ag128
ag860
atp1281
Rp1282
I720
sg1
((lp1283
g1010
ag743
ag467
ag749
ag488
ag740
ag482
ag752
ag485
ag491
atp1284
Rp1285
I180
sg1
((lp1286
g629
ag851
ag635
ag845
ag641
ag647
ag650
ag848
ag890
ag653
atp1287
Rp1288
I360
sg1
((lp1289
g575
ag251
ag665
ag254
ag257
ag272
ag671
ag584
ag275
ag278
atp1290
Rp1291
I720
sg1
((lp1292
g284
ag287
ag290
ag293
ag710
ag302
ag1001
ag305
ag506
ag299
atp1293
Rp1294
I720
sg1
((lp1295
g782
ag38
ag785
ag44
ag443
ag788
ag50
ag56
ag47
ag449
atp1296
Rp1297
I360
sg1
((lp1298
g530
ag533
ag536
ag539
ag542
ag545
ag551
ag623
ag554
ag557
atp1299
Rp1300
I720
sg1
((lp1301
g5
ag866
ag869
ag11
ag14
ag989
ag872
ag26
ag32
ag596
atp1302
Rp1303
I720
sg1
((lp1304
g1010
ag464
ag746
ag749
ag479
ag743
ag482
ag752
ag485
ag491
atp1305
Rp1306
I360
sg1
((lp1307
g122
ag605
ag110
ag113
ag116
ag119
ag608
ag125
ag128
ag860
atp1308
Rp1309
I180
sg1
((lp1310
g530
ag533
ag536
ag539
ag566
ag620
ag551
ag569
ag623
ag557
atp1311
Rp1312
I360
sg1
((lp1313
g5
ag8
ag869
ag14
ag17
ag872
ag23
ag26
ag29
ag20
atp1314
Rp1315
I720
sg1
((lp1316
g782
ag59
ag53
ag44
ag446
ag788
ag56
ag62
ag65
ag47
atp1317
Rp1318
I720
sg1
((lp1319
g530
ag617
ag545
ag620
ag536
ag548
ag551
ag623
ag554
ag557
atp1320
Rp1321
I720
sg1
((lp1322
g260
ag251
ag665
ag254
ag257
ag272
ag263
ag584
ag671
ag278
atp1323
Rp1324
I720
sg1
((lp1325
g869
ag11
ag14
ag17
ag872
ag23
ag26
ag593
ag32
ag596
atp1326
Rp1327
I720
sg1
((lp1328
g170
ag356
ag524
ag182
ag884
ag185
ag362
ag191
ag365
ag368
atp1329
Rp1330
I720
sg1
((lp1331
g563
ag533
ag617
ag566
ag620
ag728
ag551
ag569
ag623
ag539
atp1332
Rp1333
I360
sg1
((lp1334
g926
ag1028
ag1049
ag938
ag1031
ag941
ag935
ag950
ag1034
ag953
atp1335
Rp1336
I720
sg1
((lp1337
g389
ag155
ag236
ag317
ag143
ag146
ag239
ag158
ag161
ag164
atp1338
Rp1339
I720
sg1
((lp1340
g203
ag380
ag377
ag455
ag221
ag224
ag458
ag383
ag227
ag209
atp1341
Rp1342
I720
sg1
((lp1343
g926
ag932
ag935
ag1049
ag1031
ag944
ag947
ag950
ag1037
ag953
atp1344
Rp1345
I360
sg1
((lp1346
g857
ag104
ag107
ag110
ag113
ag116
ag119
ag1106
ag128
ag611
atp1347
Rp1348
I720
sg1
((lp1349
g203
ag374
ag515
ag206
ag215
ag218
ag224
ag383
ag380
ag230
atp1350
Rp1351
I360
sg1
((lp1352
g677
ag971
ag683
ag797
ag689
ag692
ag803
ag695
ag701
ag704
atp1353
Rp1354
I360
sg1
((lp1355
g1010
ag464
ag746
ag479
ag743
ag482
ag752
ag485
ag755
ag491
atp1356
Rp1357
I60
sg1
((lp1358
g395
ag398
ag329
ag1061
ag332
ag335
ag326
ag341
ag404
ag347
atp1359
Rp1360
I60
sg1
((lp1361
g782
ag440
ag785
ag44
ag443
ag788
ag50
ag56
ag59
ag47
atp1362
Rp1363
I360
sg1
((lp1364
g782
ag38
ag440
ag41
ag44
ag443
ag50
ag56
ag59
ag449
atp1365
Rp1366
I720
sg1
((lp1367
g203
ag380
ag377
ag212
ag215
ag455
ag221
ag224
ag227
ag230
atp1368
Rp1369
I360
sg1
((lp1370
g71
ag74
ag422
ag83
ag425
ag86
ag428
ag92
ag434
ag98
atp1371
Rp1372
I720
sg1
((lp1373
g629
ag641
ag644
ag647
ag842
ag650
ag848
ag917
ag653
ag656
atp1374
Rp1375
I720
sg1
((lp1376
g173
ag179
ag362
ag182
ag884
ag185
ag188
ag197
ag365
ag359
atp1377
Rp1378
I720
sg1
((lp1379
g323
ag395
ag398
ag401
ag329
ag326
ag341
ag344
ag908
ag407
atp1380
Rp1381
I720
sg1
((lp1382
g284
ag497
ag296
ag500
ag503
ag302
ag1001
ag305
ag308
ag299
atp1383
Rp1384
I720
sg1
((lp1385
g203
ag374
ag377
ag206
ag230
ag221
ag224
ag383
ag380
ag209
atp1386
Rp1387
I120
sg1
((lp1388
g374
ag377
ag206
ag212
ag218
ag221
ag224
ag380
ag383
ag227
atp1389
Rp1390
I720
sg1
((lp1391
g632
ag635
ag638
ag641
ag647
ag890
ag845
ag839
ag917
ag653
atp1392
Rp1393
I120
sg1
((lp1394
g1010
ag743
ag476
ag749
ag488
ag740
ag479
ag482
ag485
ag473
atp1395
Rp1396
I720
sg1
((lp1397
g464
ag746
ag473
ag476
ag479
ag743
ag482
ag752
ag485
ag491
atp1398
Rp1399
I180
sg1
((lp1400
g323
ag395
ag329
ag332
ag350
ag326
ag338
ag341
ag404
ag347
atp1401
Rp1402
I360
sg1
((lp1403
g284
ag497
ag293
ag296
ag299
ag503
ag302
ag1001
ag506
ag311
atp1404
Rp1405
I720
sg1
((lp1406
g629
ag632
ag635
ag641
ag647
ag842
ag890
ag917
ag851
ag656
atp1407
Rp1408
I720
sg1
((lp1409
g104
ag602
ag119
ag107
ag860
ag113
ag605
ag122
ag125
ag611
atp1410
Rp1411
I180
sg1
((lp1412
g374
ag377
ag206
ag215
ag455
ag224
ag458
ag383
ag380
ag209
atp1413
Rp1414
I360
sg1
((lp1415
g1010
ag464
ag470
ag749
ag488
ag740
ag479
ag482
ag752
ag491
atp1416
Rp1417
I720
sg1
((lp1418
g389
ag137
ag146
ag239
ag149
ag242
ag152
ag158
ag161
ag143
atp1419
Rp1420
I360
sg1
((lp1421
g740
ag464
ag470
ag488
ag476
ag479
ag482
ag752
ag755
ag473
atp1422
Rp1423
I720
sg1
((lp1424
g323
ag395
ag329
ag1061
ag335
ag338
ag341
ag404
ag908
ag407
atp1425
Rp1426
I360
sg1
((lp1427
g284
ag287
ag290
ag299
ag503
ag302
ag1001
ag497
ag308
ag311
atp1428
Rp1429
I360
sg1
((lp1430
g782
ag440
ag53
ag44
ag443
ag788
ag56
ag62
ag65
ag785
atp1431
Rp1432
I180
sg1
((lp1433
g323
ag395
ag398
ag329
ag1061
ag332
ag326
ag341
ag404
ag347
atp1434
Rp1435
I720
sg1
((lp1436
g635
ag638
ag641
ag644
ag650
ag845
ag848
ag917
ag851
ag656
atp1437
Rp1438
I360
sg1
((lp1439
g215
ag515
ag230
ag218
ag221
ag224
ag458
ag383
ag380
ag209
atp1440
Rp1441
I360
sg1
((lp1442
g575
ag251
ag665
ag254
ag257
ag668
ag671
ag584
ag275
ag278
atp1443
Rp1444
I720
sg1
((lp1445
g104
ag605
ag110
ag113
ag116
ag119
ag122
ag608
ag125
ag611
atp1446
Rp1447
I720
sg1
((lp1448
g5
ag8
ag14
ag17
ag20
ag590
ag26
ag866
ag32
ag596
atp1449
Rp1450
I720
sg1
((lp1451
g5
ag8
ag869
ag14
ag989
ag872
ag26
ag593
ag20
ag596
atp1452
Rp1453
I360
sg1
((lp1454
g926
ag935
ag1046
ag1028
ag944
ag947
ag950
ag1037
ag1049
ag932
atp1455
Rp1456
I720
sg1
((lp1457
g104
ag119
ag107
ag110
ag113
ag857
ag605
ag122
ag128
ag860
atp1458
Rp1459
I360
sg1
((lp1460
g782
ag38
ag41
ag44
ag443
ag50
ag53
ag56
ag65
ag449
atp1461
Rp1462
I360
sg1
((lp1463
g629
ag632
ag635
ag638
ag641
ag647
ag845
ag848
ag839
ag917
atp1464
Rp1465
I360
sg1
((lp1466
g38
ag41
ag785
ag44
ag47
ag53
ag56
ag59
ag65
ag449
atp1467
Rp1468
I720
sg1
((lp1469
g677
ag971
ag683
ag797
ag689
ag692
ag800
ag686
ag806
ag701
atp1470
Rp1471
I720
sg1
((lp1472
g575
ag665
ag254
ag578
ag581
ag266
ag671
ag584
ag275
ag278
atp1473
Rp1474
I720
sg1
((lp1475
g71
ag74
ag95
ag83
ag425
ag428
ag89
ag92
ag434
ag98
atp1476
Rp1477
I720
sg1
((lp1478
g203
ag374
ag377
ag212
ag230
ag455
ag221
ag224
ag458
ag380
atp1479
Rp1480
I720
sg1
((lp1481
g284
ag287
ag290
ag293
ag815
ag299
ag500
ag506
ag308
ag311
atp1482
Rp1483
I360
sg1
((lp1484
g1010
ag464
ag470
ag749
ag488
ag740
ag479
ag743
ag482
ag752
atp1485
Rp1486
I720
sg1
((lp1487
g284
ag293
ag710
ag296
ag299
ag500
ag503
ag302
ag815
ag311
atp1488
Rp1489
I720
sg1
((lp1490
g389
ag155
ag236
ag146
ag239
ag242
ag152
ag158
ag161
ag143
atp1491
Rp1492
I360
sg1
((lp1493
g668
ag575
ag254
ag578
ag278
ag581
ag260
ag263
ag671
ag272
atp1494
Rp1495
I360
sg1
((lp1496
g38
ag785
ag44
ag443
ag446
ag47
ag56
ag62
ag59
ag449
atp1497
Rp1498
I720
sg1
((lp1499
g782
ag38
ag41
ag44
ag443
ag446
ag47
ag50
ag53
ag788
atp1500
Rp1501
I360
sg1
((lp1502
g782
ag38
ag440
ag53
ag44
ag443
ag446
ag50
ag56
ag785
atp1503
Rp1504
I360
sg1
((lp1505
g971
ag794
ag689
ag800
ag695
ag680
ag806
ag698
ag701
ag704
atp1506
Rp1507
I360
sg1
((lp1508
g155
ag413
ag140
ag143
ag146
ag239
ag149
ag242
ag317
ag164
atp1509
Rp1510
I360
sg1
((lp1511
g575
ag251
ag665
ag254
ag578
ag272
ag266
ag269
ag584
ag278
atp1512
Rp1513
I720
sg1
((lp1514
g74
ag422
ag95
ag83
ag425
ag77
ag86
ag431
ag434
ag98
atp1515
Rp1516
I720
sg1
((lp1517
g548
ag563
ag533
ag536
ag620
ag728
ag551
ag569
ag623
ag554
atp1518
Rp1519
I720
sg1
((lp1520
g155
ag236
ag317
ag143
ag146
ag137
ag158
ag245
ag161
ag164
atp1521
Rp1522
I720
sg1
((lp1523
g782
ag38
ag440
ag53
ag785
ag44
ag443
ag446
ag788
ag449
atp1524
Rp1525
I720
sg1
((lp1526
g575
ag251
ag254
ag257
ag260
ag668
ag266
ag269
ag272
ag278
atp1527
Rp1528
I720
sg1
((lp1529
g857
ag104
ag602
ag605
ag110
ag113
ag116
ag119
ag128
ag860
atp1530
Rp1531
I720
sg1
((lp1532
g389
ag137
ag413
ag236
ag140
ag146
ag149
ag317
ag158
ag164
atp1533
Rp1534
I720
sg1
((lp1535
g782
ag38
ag53
ag44
ag443
ag446
ag788
ag56
ag65
ag785
atp1536
Rp1537
I720
sg1
((lp1538
g668
ag575
ag251
ag254
ag578
ag263
ag671
ag584
ag275
ag278
atp1539
Rp1540
I360
sg1
((lp1541
g203
ag374
ag515
ag377
ag206
ag212
ag224
ag380
ag227
ag209
atp1542
Rp1543
I360
sg1
((lp1544
g203
ag515
ag377
ag215
ag455
ag224
ag458
ag383
ag227
ag230
atp1545
Rp1546
I720
sg1
((lp1547
g926
ag929
ag1046
ag935
ag938
ag1031
ag1034
ag944
ag950
ag1049
atp1548
Rp1549
I720
sg1
((lp1550
g176
ag179
ag362
ag368
ag182
ag185
ag188
ag194
ag197
ag359
atp1551
Rp1552
I360
sg1
((lp1553
g389
ag155
ag413
ag140
ag146
ag149
ag152
ag158
ag245
ag143
atp1554
Rp1555
I720
sg1
((lp1556
g38
ag440
ag44
ag443
ag788
ag50
ag56
ag62
ag47
ag785
atp1557
Rp1558
I360
sg1
((lp1559
g632
ag638
ag641
ag647
ag842
ag845
ag839
ag851
ag653
ag656
atp1560
Rp1561
I720
sg1
((lp1562
g629
ag632
ag635
ag845
ag641
ag650
ag848
ag839
ag917
ag656
atp1563
Rp1564
I720
sg1
((lp1565
g926
ag935
ag1028
ag1049
ag938
ag941
ag944
ag950
ag1037
ag953
atp1566
Rp1567
I720
sg1
((lp1568
g926
ag1025
ag932
ag953
ag1034
ag944
ag947
ag950
ag1037
ag941
atp1569
Rp1570
I360
sg1
((lp1571
g575
ag251
ag254
ag578
ag257
ag581
ag272
ag584
ag671
ag278
atp1572
Rp1573
I720
sg1
((lp1574
g548
ag617
ag542
ag545
ag620
ag551
ag569
ag623
ag554
ag557
atp1575
Rp1576
I720
sg1
((lp1577
g203
ag374
ag377
ag206
ag212
ag230
ag455
ag224
ag218
ag380
atp1578
Rp1579
I720
sg1
((lp1580
g170
ag197
ag176
ag356
ag524
ag182
ag884
ag359
ag365
ag368
atp1581
Rp1582
I720
sg1
((lp1583
g338
ag398
ag329
ag332
ag335
ag326
ag341
ag344
ag908
ag407
atp1584
Rp1585
I360
sg1
((lp1586
g71
ag74
ag419
ag422
ag83
ag716
ag425
ag92
ag95
ag98
atp1587
Rp1588
I720
sg1
((lp1589
g323
ag395
ag398
ag329
ag335
ag326
ag341
ag404
ag344
ag908
atp1590
Rp1591
I720
sg1
((lp1592
g38
ag440
ag41
ag44
ag446
ag47
ag53
ag56
ag62
ag65
atp1593
Rp1594
I720
sg1
((lp1595
g677
ag971
ag794
ag686
ag689
ag692
ag1082
ag695
ag806
ag704
atp1596
Rp1597
I720
sg1
((lp1598
g857
ag104
ag860
ag110
ag131
ag116
ag119
ag608
ag128
ag611
atp1599
Rp1600
I720
sg1
((lp1601
g575
ag665
ag254
ag578
ag257
ag260
ag668
ag269
ag272
ag278
atp1602
Rp1603
I360
sg1
((lp1604
g548
ag563
ag617
ag539
ag566
ag536
ag551
ag623
ag554
ag557
atp1605
Rp1606
I720
sg1
((lp1607
g629
ag635
ag845
ag641
ag647
ag650
ag848
ag890
ag851
ag656
atp1608
Rp1609
I360
sg1
((lp1610
g11
ag14
ag989
ag872
ag590
ag26
ag29
ag593
ag866
ag20
atp1611
Rp1612
I720
sg1
((lp1613
g71
ag422
ag80
ag83
ag425
ag431
ag89
ag92
ag95
ag98
atp1614
Rp1615
I720
sg1
((lp1616
g629
ag638
ag641
ag644
ag647
ag842
ag650
ag845
ag917
ag653
atp1617
Rp1618
I720
sg1
((lp1619
g1010
ag755
ag470
ag746
ag488
ag479
ag482
ag485
ag473
ag491
atp1620
Rp1621
I360
sg1
((lp1622
g71
ag428
ag419
ag95
ag80
ag716
ag425
ag86
ag434
ag98
atp1623
Rp1624
I360
sg1
((lp1625
g203
ag374
ag206
ag215
ag455
ag224
ag218
ag458
ag227
ag209
atp1626
Rp1627
I720
sg1
((lp1628
g530
ag563
ag533
ag536
ag545
ag566
ag620
ag551
ag569
ag557
atp1629
Rp1630
I360
sg1
((lp1631
g971
ag794
ag683
ag689
ag800
ag695
ag680
ag698
ag701
ag704
atp1632
Rp1633
I720
sg1
((lp1634
g38
ag440
ag53
ag44
ag446
ag788
ag50
ag59
ag65
ag449
atp1635
Rp1636
I360
sg1
((lp1637
g155
ag413
ag236
ag140
ag146
ag149
ag242
ag152
ag317
ag158
atp1638
Rp1639
I720
sg1
((lp1640
g1010
ag464
ag470
ag746
ag473
ag479
ag482
ag752
ag485
ag491
atp1641
Rp1642
I720
sg1
((lp1643
g530
ag533
ag545
ag566
ag620
ag728
ag548
ag551
ag554
ag539
atp1644
Rp1645
I360
sg1
((lp1646
g284
ag497
ag710
ag296
ag500
ag815
ag305
ag506
ag308
ag299
atp1647
Rp1648
I720
sg1
((lp1649
g575
ag251
ag254
ag257
ag581
ag260
ag266
ag269
ag275
ag272
atp1650
Rp1651
I720
sg1
((lp1652
g671
ag251
ag254
ag578
ag257
ag581
ag266
ag269
ag584
ag275
atp1653
Rp1654
I720
sg1
((lp1655
g104
ag605
ag860
ag113
ag857
ag119
ag1106
ag608
ag131
ag611
atp1656
Rp1657
I720
s.