(dp0
c__builtin__
frozenset
p1
((lp2
g1
((lp3
I1
aI3
aI5
aI6
atp4
Rp5
ag1
((lp6
I1
aI2
aI3
aI4
atp7
Rp8
ag1
((lp9
I2
aI3
aI4
aI6
atp10
Rp11
ag1
((lp12
I1
aI4
aI5
aI6
atp13
Rp14
ag1
((lp15
I1
aI2
aI3
aI6
atp16
Rp17
ag1
((lp18
I2
aI5
atp19
Rp20
ag1
((lp21
I1
aI3
aI4
aI5
atp22
Rp23
ag1
((lp24
I1
aI3
aI4
aI6
atp25
Rp26
atp27
Rp28
I180
sg1
((lp29
g1
((lp30
I1
aI2
aI4
aI6
atp31
Rp32
ag1
((lp33
I5
aI6
atp34
Rp35
ag1
((lp36
I1
aI3
aI4
aI6
atp37
Rp38
ag1
((lp39
I1
aI3
aI4
aI5
atp40
Rp41
ag1
((lp42
I1
aI2
aI3
aI5
atp43
Rp44
ag1
((lp45
I2
aI3
aI4
aI6
atp46
Rp47
ag1
((lp48
I1
aI2
aI4
aI5
atp49
Rp50
ag1
((lp51
I2
aI3
aI4
aI5
atp52
Rp53
atp54
Rp55
I120
sg1
((lp56
g1
((lp57
I2
aI3
aI5
aI6
atp58
Rp59
ag1
((lp60
I1
aI4
atp61
Rp62
ag1
((lp63
I1
aI2
aI3
aI5
atp64
Rp65
ag1
((lp66
I1
aI2
aI5
aI6
atp67
Rp68
ag1
((lp69
I1
aI2
aI3
aI6
atp70
Rp71
ag1
((lp72
I2
aI3
aI4
aI6
atp73
Rp74
ag1
((lp75
I2
aI4
aI5
aI6
atp76
Rp77
ag1
((lp78
I2
aI3
aI4
aI5
atp79
Rp80
atp81
Rp82
I60
sg1
((lp83
g1
((lp84
I2
aI3
aI5
aI6
atp85
Rp86
ag1
((lp87
I3
aI4
aI5
aI6
atp88
Rp89
ag1
((lp90
I1
aI3
aI4
aI5
atp91
Rp92
ag1
((lp93
I1
aI2
aI3
aI5
atp94
Rp95
ag1
((lp96
I1
aI6
atp97
Rp98
ag1
((lp99
I2
aI3
aI4
aI6
atp100
Rp101
ag1
((lp102
I2
aI4
aI5
aI6
atp103
Rp104
ag1
((lp105
I2
aI3
aI4
aI5
atp106
Rp107
atp108
Rp109
I180
s.