(dp0
c__builtin__
frozenset
p1
((lp2
g1
((lp3
I2
aI4
atp4
Rp5
ag1
((lp6
I1
aI3
aI5
atp7
Rp8
ag1
((lp9
I2
aI5
aI6
atp10
Rp11
ag1
((lp12
I2
aI3
aI5
atp13
Rp14
ag1
((lp15
I1
aI2
aI3
atp16
Rp17
ag1
((lp18
I1
aI2
aI5
atp19
Rp20
ag1
((lp21
I4
aI5
aI6
atp22
Rp23
ag1
((lp24
I1
aI4
aI5
atp25
Rp26
ag1
((lp27
I3
aI5
aI6
atp28
Rp29
ag1
((lp30
I1
aI2
aI6
atp31
Rp32
ag1
((lp33
I1
aI5
aI6
atp34
Rp35
ag1
((lp36
I1
aI3
aI4
aI6
atp37
Rp38
atp39
Rp40
I720
sg1
((lp41
g1
((lp42
I3
aI4
aI6
atp43
Rp44
ag1
((lp45
I1
aI3
aI5
atp46
Rp47
ag1
((lp48
I2
aI5
aI6
atp49
Rp50
ag1
((lp51
I3
aI4
aI5
atp52
Rp53
ag1
((lp54
I4
aI5
aI6
atp55
Rp56
ag1
((lp57
I2
aI4
aI6
atp58
Rp59
ag1
((lp60
I1
aI3
aI4
atp61
Rp62
ag1
((lp63
I2
aI3
atp64
Rp65
ag1
((lp66
I1
aI2
aI6
atp67
Rp68
ag1
((lp69
I1
aI5
aI6
atp70
Rp71
ag1
((lp72
I1
aI4
aI6
atp73
Rp74
ag1
((lp75
I1
aI2
aI4
aI5
atp76
Rp77
atp78
Rp79
I360
sg1
((lp80
g1
((lp81
I3
aI4
aI6
atp82
Rp83
ag1
((lp84
I2
aI3
aI6
atp85
Rp86
ag1
((lp87
I1
aI3
aI6
atp88
Rp89
ag1
((lp90
I1
aI5
atp91
Rp92
ag1
((lp93
I2
aI3
aI4
atp94
Rp95
ag1
((lp96
I1
aI2
aI4
atp97
Rp98
ag1
((lp99
I2
aI3
aI5
atp100
Rp101
ag1
((lp102
I1
aI3
aI4
atp103
Rp104
ag1
((lp105
I1
aI2
aI6
atp106
Rp107
ag1
((lp108
I2
aI4
aI5
aI6
atp109
Rp110
ag1
((lp111
I1
aI4
aI6
atp112
Rp113
ag1
((lp114
I1
aI2
aI3
atp115
Rp116
atp117
Rp118
I360
sg1
((lp119
g1
((lp120
I3
aI4
aI6
atp121
Rp122
ag1
((lp123
I1
aI3
aI5
atp124
Rp125
ag1
((lp126
I3
aI4
aI5
atp127
Rp128
ag1
((lp129
I1
aI3
aI6
atp130
Rp131
ag1
((lp132
I1
aI2
atp133
Rp134
ag1
((lp135
I2
aI3
aI4
atp136
Rp137
ag1
((lp138
I1
aI4
aI5
atp139
Rp140
ag1
((lp141
I2
aI3
aI5
atp142
Rp143
ag1
((lp144
I2
aI3
aI6
atp145
Rp146
ag1
((lp147
I2
aI4
aI5
aI6
atp148
Rp149
ag1
((lp150
I1
aI5
aI6
atp151
Rp152
ag1
((lp153
I3
aI5
aI6
atp154
Rp155
atp156
Rp157
I720
sg1
((lp158
g125
ag1
((lp159
I2
aI5
aI6
atp160
Rp161
ag143
ag134
ag1
((lp162
I2
aI4
aI5
atp163
Rp164
ag137
ag140
ag1
((lp165
I3
aI4
aI5
aI6
atp166
Rp167
ag1
((lp168
I1
aI3
aI4
atp169
Rp170
ag146
ag152
ag1
((lp171
I1
aI4
aI6
atp172
Rp173
atp174
Rp175
I360
sg1
((lp176
g1
((lp177
I1
aI3
aI5
atp178
Rp179
ag1
((lp180
I2
aI5
aI6
atp181
Rp182
ag1
((lp183
I1
aI3
aI6
atp184
Rp185
ag1
((lp186
I1
aI4
atp187
Rp188
ag1
((lp189
I2
aI3
aI4
atp190
Rp191
ag1
((lp192
I1
aI2
aI5
atp193
Rp194
ag1
((lp195
I2
aI4
aI6
atp196
Rp197
ag1
((lp198
I3
aI4
aI5
aI6
atp199
Rp200
ag1
((lp201
I1
aI2
aI6
atp202
Rp203
ag1
((lp204
I1
aI5
aI6
atp205
Rp206
ag1
((lp207
I2
aI4
aI5
atp208
Rp209
ag1
((lp210
I1
aI2
aI3
atp211
Rp212
atp213
Rp214
I360
sg1
((lp215
g1
((lp216
I1
aI3
aI5
aI6
atp217
Rp218
ag1
((lp219
I2
aI3
aI6
atp220
Rp221
ag1
((lp222
I2
aI5
aI6
atp223
Rp224
ag1
((lp225
I2
aI3
aI5
atp226
Rp227
ag1
((lp228
I2
aI4
aI6
atp229
Rp230
ag1
((lp231
I1
aI2
aI4
atp232
Rp233
ag1
((lp234
I1
aI4
aI5
atp235
Rp236
ag1
((lp237
I3
aI4
atp238
Rp239
ag1
((lp240
I1
aI2
aI6
atp241
Rp242
ag1
((lp243
I4
aI5
aI6
atp244
Rp245
ag1
((lp246
I1
aI2
aI3
atp247
Rp248
ag1
((lp249
I2
aI4
aI5
atp250
Rp251
atp252
Rp253
I720
sg1
((lp254
g1
((lp255
I1
aI3
aI5
atp256
Rp257
ag1
((lp258
I2
aI5
aI6
atp259
Rp260
ag1
((lp261
I3
aI4
aI5
atp262
Rp263
ag1
((lp264
I1
aI3
aI6
atp265
Rp266
ag1
((lp267
I1
aI2
aI5
atp268
Rp269
ag1
((lp270
I1
aI4
aI5
atp271
Rp272
ag1
((lp273
I1
aI2
aI3
aI4
atp274
Rp275
ag1
((lp276
I2
aI3
aI6
atp277
Rp278
ag1
((lp279
I4
aI6
atp280
Rp281
ag1
((lp282
I1
aI2
aI6
atp283
Rp284
ag1
((lp285
I1
aI5
aI6
atp286
Rp287
ag1
((lp288
I2
aI4
aI5
atp289
Rp290
atp291
Rp292
I720
sg1
((lp293
g1
((lp294
I1
aI3
aI5
atp295
Rp296
ag1
((lp297
I3
aI4
aI5
atp298
Rp299
ag1
((lp300
I3
aI5
aI6
atp301
Rp302
ag1
((lp303
I1
aI2
aI3
atp304
Rp305
ag1
((lp306
I2
aI3
aI4
atp307
Rp308
ag1
((lp309
I4
aI5
aI6
atp310
Rp311
ag1
((lp312
I1
aI4
aI5
atp313
Rp314
ag1
((lp315
I2
aI3
aI6
atp316
Rp317
ag1
((lp318
I2
aI5
atp319
Rp320
ag1
((lp321
I1
aI2
aI6
atp322
Rp323
ag1
((lp324
I1
aI5
aI6
atp325
Rp326
ag1
((lp327
I1
aI3
aI4
aI6
atp328
Rp329
atp330
Rp331
I360
sg1
((lp332
g1
((lp333
I2
aI4
aI6
atp334
Rp335
ag296
ag299
ag302
ag305
ag308
ag311
ag314
ag317
ag320
ag1
((lp336
I1
aI2
aI4
atp337
Rp338
ag1
((lp339
I1
aI3
aI4
aI6
atp340
Rp341
atp342
Rp343
I90
sg1
((lp344
g5
ag8
ag11
ag1
((lp345
I1
aI3
aI6
atp346
Rp347
ag20
ag26
ag14
ag1
((lp348
I2
aI3
aI6
atp349
Rp350
ag32
ag1
((lp351
I3
aI4
aI5
aI6
atp352
Rp353
ag1
((lp354
I1
aI4
aI6
atp355
Rp356
ag17
atp357
Rp358
I360
sg1
((lp359
g1
((lp360
I1
aI3
aI5
atp361
Rp362
ag1
((lp363
I2
aI5
aI6
atp364
Rp365
ag1
((lp366
I3
aI4
aI5
atp367
Rp368
ag1
((lp369
I3
aI6
atp370
Rp371
ag1
((lp372
I2
aI3
aI4
atp373
Rp374
ag1
((lp375
I4
aI5
aI6
atp376
Rp377
ag1
((lp378
I2
aI4
aI6
atp379
Rp380
ag1
((lp381
I1
aI3
aI4
atp382
Rp383
ag1
((lp384
I1
aI2
aI6
atp385
Rp386
ag1
((lp387
I1
aI5
aI6
atp388
Rp389
ag1
((lp390
I1
aI2
aI3
atp391
Rp392
ag1
((lp393
I1
aI2
aI4
aI5
atp394
Rp395
atp396
Rp397
I90
sg1
((lp398
g1
((lp399
I3
aI4
aI6
atp400
Rp401
ag1
((lp402
I2
aI3
aI6
atp403
Rp404
ag1
((lp405
I3
aI4
aI5
atp406
Rp407
ag1
((lp408
I2
aI3
aI5
atp409
Rp410
ag1
((lp411
I2
aI3
aI4
atp412
Rp413
ag1
((lp414
I1
aI2
aI5
atp415
Rp416
ag1
((lp417
I1
aI2
aI4
atp418
Rp419
ag1
((lp420
I2
aI4
aI6
atp421
Rp422
ag1
((lp423
I1
aI4
aI5
aI6
atp424
Rp425
ag1
((lp426
I1
aI3
atp427
Rp428
ag1
((lp429
I1
aI2
aI6
atp430
Rp431
ag1
((lp432
I2
aI4
aI5
atp433
Rp434
atp435
Rp436
I360
sg1
((lp437
g1
((lp438
I3
aI4
aI6
atp439
Rp440
ag1
((lp441
I2
aI3
aI6
atp442
Rp443
ag1
((lp444
I2
aI5
aI6
atp445
Rp446
ag1
((lp447
I3
aI4
aI5
atp448
Rp449
ag1
((lp450
I2
aI3
aI5
atp451
Rp452
ag1
((lp453
I2
aI3
aI4
atp454
Rp455
ag1
((lp456
I4
aI5
aI6
atp457
Rp458
ag1
((lp459
I2
aI4
aI6
atp460
Rp461
ag1
((lp462
I1
aI3
aI4
atp463
Rp464
ag1
((lp465
I1
aI6
atp466
Rp467
ag1
((lp468
I1
aI2
aI4
aI5
atp469
Rp470
ag1
((lp471
I1
aI2
aI3
atp472
Rp473
atp474
Rp475
I360
sg1
((lp476
g1
((lp477
I2
aI5
aI6
atp478
Rp479
ag1
((lp480
I1
aI3
aI6
atp481
Rp482
ag1
((lp483
I3
aI5
aI6
atp484
Rp485
ag1
((lp486
I1
aI2
aI5
atp487
Rp488
ag1
((lp489
I1
aI2
aI4
atp490
Rp491
ag1
((lp492
I2
aI3
aI5
atp493
Rp494
ag1
((lp495
I1
aI3
aI4
atp496
Rp497
ag1
((lp498
I2
aI3
aI4
aI6
atp499
Rp500
ag1
((lp501
I1
aI2
aI6
atp502
Rp503
ag1
((lp504
I1
aI5
aI6
atp505
Rp506
ag1
((lp507
I1
aI2
aI3
atp508
Rp509
ag1
((lp510
I4
aI5
atp511
Rp512
atp513
Rp514
I720
sg1
((lp515
g5
ag1
((lp516
I3
aI4
aI6
atp517
Rp518
ag350
ag1
((lp519
I3
aI4
aI5
atp520
Rp521
ag347
ag1
((lp522
I1
aI2
aI3
aI5
atp523
Rp524
ag23
ag26
ag1
((lp525
I1
aI3
aI4
atp526
Rp527
ag32
ag356
ag29
atp528
Rp529
I720
sg1
((lp530
g422
ag404
ag407
ag434
ag413
ag419
ag1
((lp531
I1
aI4
aI5
atp532
Rp533
ag428
ag1
((lp534
I4
aI5
aI6
atp535
Rp536
ag1
((lp537
I1
aI4
aI6
atp538
Rp539
ag1
((lp540
I3
aI5
aI6
atp541
Rp542
ag1
((lp543
I1
aI2
aI5
aI6
atp544
Rp545
atp546
Rp547
I360
sg1
((lp548
g1
((lp549
I3
aI4
aI6
atp550
Rp551
ag1
((lp552
I2
aI3
aI6
atp553
Rp554
ag1
((lp555
I1
aI3
aI6
atp556
Rp557
ag1
((lp558
I3
aI5
atp559
Rp560
ag1
((lp561
I2
aI3
aI4
atp562
Rp563
ag1
((lp564
I1
aI2
aI5
atp565
Rp566
ag1
((lp567
I1
aI2
aI4
atp568
Rp569
ag1
((lp570
I1
aI4
aI5
atp571
Rp572
ag1
((lp573
I1
aI3
aI4
atp574
Rp575
ag1
((lp576
I1
aI2
aI6
atp577
Rp578
ag1
((lp579
I2
aI4
aI5
aI6
atp580
Rp581
ag1
((lp582
I1
aI5
aI6
atp583
Rp584
atp585
Rp586
I360
sg1
((lp587
g1
((lp588
I3
aI4
aI6
atp589
Rp590
ag317
ag1
((lp591
I1
aI3
aI6
atp592
Rp593
ag302
ag311
ag335
ag320
ag1
((lp594
I1
aI3
aI4
aI5
atp595
Rp596
ag323
ag326
ag1
((lp597
I1
aI4
aI6
atp598
Rp599
ag305
atp600
Rp601
I360
sg1
((lp602
g1
((lp603
I1
aI3
aI5
aI6
atp604
Rp605
ag1
((lp606
I2
aI3
aI6
atp607
Rp608
ag479
ag494
ag1
((lp609
I2
aI3
aI4
atp610
Rp611
ag491
ag1
((lp612
I2
aI4
aI6
atp613
Rp614
ag497
ag503
ag1
((lp615
I1
aI4
aI6
atp616
Rp617
ag509
ag512
atp618
Rp619
I360
sg1
((lp620
g1
((lp621
I3
aI4
aI6
atp622
Rp623
ag1
((lp624
I2
aI3
aI6
atp625
Rp626
ag1
((lp627
I3
aI4
aI5
atp628
Rp629
ag1
((lp630
I1
aI3
aI6
atp631
Rp632
ag1
((lp633
I5
aI6
atp634
Rp635
ag1
((lp636
I1
aI2
aI5
atp637
Rp638
ag1
((lp639
I2
aI4
aI6
atp640
Rp641
ag1
((lp642
I2
aI3
aI5
atp643
Rp644
ag1
((lp645
I1
aI2
aI3
aI4
atp646
Rp647
ag1
((lp648
I1
aI4
aI5
atp649
Rp650
ag1
((lp651
I1
aI2
aI6
atp652
Rp653
ag1
((lp654
I1
aI4
aI6
atp655
Rp656
atp657
Rp658
I90
s.