(dp0
c__builtin__
frozenset
p1
((lp2
g1
((lp3
I2
aI5
aI6
atp4
Rp5
ag1
((lp6
I1
aI3
aI6
atp7
Rp8
ag1
((lp9
I1
aI2
aI5
atp10
Rp11
ag1
((lp12
I1
aI2
aI4
atp13
Rp14
ag1
((lp15
I4
aI6
atp16
Rp17
ag1
((lp18
I2
aI4
aI5
atp19
Rp20
ag1
((lp21
I3
aI5
aI6
atp22
Rp23
atp24
Rp25
I720
sg1
((lp26
g1
((lp27
I2
aI3
aI6
atp28
Rp29
ag1
((lp30
I3
aI4
aI5
atp31
Rp32
ag1
((lp33
I2
aI3
aI5
atp34
Rp35
ag14
ag17
ag1
((lp36
I1
aI5
aI6
atp37
Rp38
ag1
((lp39
I1
aI2
aI3
atp40
Rp41
atp42
Rp43
I360
sg1
((lp44
g1
((lp45
I3
aI4
aI6
atp46
Rp47
ag1
((lp48
I1
aI3
aI5
atp49
Rp50
ag1
((lp51
I2
aI6
atp52
Rp53
ag1
((lp54
I4
aI5
aI6
atp55
Rp56
ag1
((lp57
I1
aI4
aI5
atp58
Rp59
ag1
((lp60
I1
aI5
aI6
atp61
Rp62
ag1
((lp63
I2
aI4
aI5
atp64
Rp65
atp66
Rp67
I720
sg1
((lp68
g1
((lp69
I3
aI4
aI6
atp70
Rp71
ag1
((lp72
I2
aI3
aI6
atp73
Rp74
ag1
((lp75
I3
aI4
aI5
atp76
Rp77
ag1
((lp78
I1
aI3
aI6
atp79
Rp80
ag1
((lp81
I1
aI5
atp82
Rp83
ag1
((lp84
I2
aI4
aI5
atp85
Rp86
ag1
((lp87
I3
aI5
aI6
atp88
Rp89
atp90
Rp91
I720
sg1
((lp92
g1
((lp93
I2
aI4
aI6
atp94
Rp95
ag1
((lp96
I2
aI5
aI6
atp97
Rp98
ag1
((lp99
I3
aI6
atp100
Rp101
ag1
((lp102
I1
aI2
aI5
atp103
Rp104
ag1
((lp105
I4
aI5
aI6
atp106
Rp107
ag1
((lp108
I1
aI4
aI5
atp109
Rp110
ag1
((lp111
I2
aI4
aI5
atp112
Rp113
atp114
Rp115
I360
sg1
((lp116
g1
((lp117
I1
aI2
aI3
atp118
Rp119
ag53
ag1
((lp120
I1
aI2
aI5
atp121
Rp122
ag56
ag62
ag1
((lp123
I1
aI2
aI4
atp124
Rp125
ag1
((lp126
I3
aI5
aI6
atp127
Rp128
atp129
Rp130
I180
sg1
((lp131
g32
ag11
ag1
((lp132
I1
aI3
aI4
atp133
Rp134
ag17
ag38
ag20
ag41
atp135
Rp136
I720
sg1
((lp137
g1
((lp138
I2
aI3
aI5
atp139
Rp140
ag53
ag56
ag1
((lp141
I1
aI3
aI6
atp142
Rp143
ag1
((lp144
I1
aI3
aI4
atp145
Rp146
ag62
ag119
atp147
Rp148
I720
sg1
((lp149
g1
((lp150
I2
aI4
aI6
atp151
Rp152
ag1
((lp153
I2
aI5
aI6
atp154
Rp155
ag1
((lp156
I1
aI2
aI4
atp157
Rp158
ag1
((lp159
I1
aI4
aI5
atp160
Rp161
ag1
((lp162
I2
aI3
atp163
Rp164
ag1
((lp165
I1
aI5
aI6
atp166
Rp167
ag1
((lp168
I1
aI4
aI6
atp169
Rp170
atp171
Rp172
I720
sg1
((lp173
g1
((lp174
I1
aI3
aI5
atp175
Rp176
ag1
((lp177
I2
aI3
aI4
atp178
Rp179
ag1
((lp180
I4
aI5
aI6
atp181
Rp182
ag1
((lp183
I2
aI4
aI6
atp184
Rp185
ag1
((lp186
I1
aI3
aI4
atp187
Rp188
ag1
((lp189
I2
aI3
aI6
atp190
Rp191
ag1
((lp192
I2
aI5
atp193
Rp194
atp195
Rp196
I720
sg1
((lp197
g47
ag140
ag53
ag1
((lp198
I2
aI3
aI4
atp199
Rp200
ag56
ag59
ag143
atp201
Rp202
I720
sg1
((lp203
g74
ag1
((lp204
I2
aI3
aI5
atp205
Rp206
ag83
ag1
((lp207
I2
aI3
aI4
atp208
Rp209
ag1
((lp210
I4
aI5
aI6
atp211
Rp212
ag1
((lp213
I2
aI4
aI6
atp214
Rp215
ag1
((lp216
I1
aI2
aI6
atp217
Rp218
atp219
Rp220
I720
sg1
((lp221
g1
((lp222
I2
aI5
aI6
atp223
Rp224
ag1
((lp225
I1
aI3
aI6
atp226
Rp227
ag1
((lp228
I1
aI2
aI4
atp229
Rp230
ag1
((lp231
I2
aI4
aI6
atp232
Rp233
ag1
((lp234
I1
aI3
aI4
atp235
Rp236
ag1
((lp237
I1
aI2
aI3
atp238
Rp239
ag1
((lp240
I4
aI5
atp241
Rp242
atp243
Rp244
I720
sg1
((lp245
g1
((lp246
I1
aI4
aI6
atp247
Rp248
ag1
((lp249
I1
aI2
aI4
atp250
Rp251
ag1
((lp252
I2
aI3
aI5
atp253
Rp254
ag1
((lp255
I4
aI5
aI6
atp256
Rp257
ag1
((lp258
I2
aI4
aI6
atp259
Rp260
ag1
((lp261
I3
aI4
atp262
Rp263
ag1
((lp264
I2
aI4
aI5
atp265
Rp266
atp267
Rp268
I720
sg1
((lp269
g143
ag53
ag200
ag122
ag125
ag146
ag65
atp270
Rp271
I720
sg1
((lp272
g74
ag77
ag206
ag83
ag1
((lp273
I1
aI2
aI4
atp274
Rp275
ag1
((lp276
I1
aI3
aI4
atp277
Rp278
ag86
atp279
Rp280
I360
sg1
((lp281
g1
((lp282
I2
aI3
aI4
atp283
Rp284
ag1
((lp285
I1
aI2
aI4
atp286
Rp287
ag1
((lp288
I2
aI4
aI6
atp289
Rp290
ag1
((lp291
I1
aI3
atp292
Rp293
ag1
((lp294
I1
aI5
aI6
atp295
Rp296
ag1
((lp297
I2
aI4
aI5
atp298
Rp299
ag1
((lp300
I3
aI5
aI6
atp301
Rp302
atp303
Rp304
I90
sg1
((lp305
g74
ag80
ag1
((lp306
I1
aI2
aI3
atp307
Rp308
ag83
ag275
ag1
((lp309
I1
aI4
aI6
atp310
Rp311
ag89
atp312
Rp313
I720
sg1
((lp314
g1
((lp315
I2
aI3
aI6
atp316
Rp317
ag1
((lp318
I2
aI5
aI6
atp319
Rp320
ag1
((lp321
I1
aI2
aI5
atp322
Rp323
ag260
ag263
ag1
((lp324
I1
aI2
aI6
atp325
Rp326
ag1
((lp327
I1
aI5
aI6
atp328
Rp329
atp330
Rp331
I90
sg1
((lp332
g1
((lp333
I1
aI3
aI5
atp334
Rp335
ag98
ag101
ag95
ag1
((lp336
I1
aI2
aI6
atp337
Rp338
ag1
((lp339
I1
aI5
aI6
atp340
Rp341
ag1
((lp342
I1
aI2
aI3
atp343
Rp344
atp345
Rp346
I720
sg1
((lp347
g254
ag323
ag1
((lp348
I1
aI4
aI5
atp349
Rp350
ag263
ag326
ag329
ag1
((lp351
I3
aI5
aI6
atp352
Rp353
atp354
Rp355
I360
sg1
((lp356
g32
ag23
ag1
((lp357
I2
aI3
aI4
atp358
Rp359
ag1
((lp360
I1
aI4
aI5
atp361
Rp362
ag134
ag17
ag41
atp363
Rp364
I720
sg1
((lp365
g260
ag320
ag257
ag350
ag263
ag329
ag266
atp366
Rp367
I720
sg1
((lp368
g248
ag323
ag251
ag263
ag326
ag266
ag1
((lp369
I1
aI2
aI3
atp370
Rp371
atp372
Rp373
I360
sg1
((lp374
g1
((lp375
I3
aI4
aI6
atp376
Rp377
ag1
((lp378
I2
aI3
aI6
atp379
Rp380
ag1
((lp381
I2
aI5
aI6
atp382
Rp383
ag1
((lp384
I3
aI5
atp385
Rp386
ag1
((lp387
I1
aI2
aI5
atp388
Rp389
ag1
((lp390
I1
aI5
aI6
atp391
Rp392
ag1
((lp393
I2
aI4
aI5
atp394
Rp395
atp396
Rp397
I720
sg1
((lp398
g71
ag74
ag1
((lp399
I2
aI5
aI6
atp400
Rp401
ag83
ag275
ag278
ag311
atp402
Rp403
I720
sg1
((lp404
g191
ag1
((lp405
I3
aI4
aI5
atp406
Rp407
ag179
ag176
ag194
ag1
((lp408
I1
aI2
aI6
atp409
Rp410
ag1
((lp411
I1
aI4
aI6
atp412
Rp413
atp414
Rp415
I720
sg1
((lp416
g1
((lp417
I2
aI4
atp418
Rp419
ag1
((lp420
I3
aI4
aI6
atp421
Rp422
ag1
((lp423
I1
aI3
aI5
atp424
Rp425
ag1
((lp426
I2
aI5
aI6
atp427
Rp428
ag1
((lp429
I3
aI5
aI6
atp430
Rp431
ag1
((lp432
I1
aI2
aI5
atp433
Rp434
ag1
((lp435
I1
aI2
aI3
atp436
Rp437
atp438
Rp439
I720
sg1
((lp440
g152
ag1
((lp441
I1
aI3
aI5
atp442
Rp443
ag1
((lp444
I1
aI3
aI6
atp445
Rp446
ag1
((lp447
I1
aI2
aI5
atp448
Rp449
ag161
ag164
ag1
((lp450
I3
aI5
aI6
atp451
Rp452
atp453
Rp454
I360
sg1
((lp455
g1
((lp456
I3
aI4
aI6
atp457
Rp458
ag1
((lp459
I1
aI3
aI6
atp460
Rp461
ag1
((lp462
I5
aI6
atp463
Rp464
ag1
((lp465
I2
aI3
aI4
atp466
Rp467
ag1
((lp468
I1
aI2
aI4
atp469
Rp470
ag1
((lp471
I1
aI4
aI5
atp472
Rp473
ag1
((lp474
I1
aI4
aI6
atp475
Rp476
atp477
Rp478
I720
sg1
((lp479
g443
ag1
((lp480
I3
aI4
aI5
atp481
Rp482
ag1
((lp483
I4
aI5
aI6
atp484
Rp485
ag1
((lp486
I1
aI3
aI4
atp487
Rp488
ag164
ag158
ag452
atp489
Rp490
I720
sg1
((lp491
g29
ag8
ag11
ag17
ag1
((lp492
I1
aI2
aI6
atp493
Rp494
ag38
ag23
atp495
Rp496
I360
sg1
((lp497
g224
ag1
((lp498
I2
aI3
aI5
atp499
Rp500
ag1
((lp501
I2
aI3
aI4
atp502
Rp503
ag233
ag236
ag1
((lp504
I1
aI5
aI6
atp505
Rp506
ag242
atp507
Rp508
I360
sg1
((lp509
g71
ag74
ag77
ag206
ag83
ag218
ag311
atp510
Rp511
I180
sg1
((lp512
g419
ag428
ag1
((lp513
I3
aI4
aI5
atp514
Rp515
ag1
((lp516
I1
aI3
aI6
atp517
Rp518
ag1
((lp519
I1
aI4
aI5
atp520
Rp521
ag1
((lp522
I1
aI2
aI6
atp523
Rp524
ag437
atp525
Rp526
I720
sg1
((lp527
g140
ag53
ag122
ag146
ag62
ag1
((lp528
I1
aI4
aI6
atp529
Rp530
ag128
atp531
Rp532
I720
sg1
((lp533
g1
((lp534
I1
aI3
aI5
atp535
Rp536
ag5
ag32
ag35
ag134
ag17
ag20
atp537
Rp538
I720
sg1
((lp539
g1
((lp540
I1
aI3
aI5
atp541
Rp542
ag254
ag350
ag263
ag317
ag326
ag329
atp543
Rp544
I720
sg1
((lp545
g1
((lp546
I1
aI2
aI4
atp547
Rp548
ag386
ag389
ag1
((lp549
I4
aI5
aI6
atp550
Rp551
ag1
((lp552
I1
aI3
aI4
atp553
Rp554
ag392
ag395
atp555
Rp556
I360
sg1
((lp557
g1
((lp558
I2
aI3
aI6
atp559
Rp560
ag500
ag233
ag227
ag236
ag506
ag242
atp561
Rp562
I180
sg1
((lp563
g11
ag14
ag362
ag134
ag17
ag494
ag41
atp564
Rp565
I360
sg1
((lp566
g1
((lp567
I3
aI4
aI6
atp568
Rp569
ag1
((lp570
I2
aI5
aI6
atp571
Rp572
ag1
((lp573
I4
aI5
aI6
atp574
Rp575
ag1
((lp576
I1
aI3
aI4
atp577
Rp578
ag1
((lp579
I1
aI6
atp580
Rp581
ag1
((lp582
I1
aI2
aI4
atp583
Rp584
ag1
((lp585
I3
aI5
aI6
atp586
Rp587
atp588
Rp589
I720
sg1
((lp590
g74
ag401
ag77
ag206
ag83
ag209
ag212
atp591
Rp592
I360
sg1
((lp593
g275
ag206
ag83
ag212
ag215
ag80
ag311
atp594
Rp595
I720
sg1
((lp596
g569
ag1
((lp597
I1
aI3
aI5
atp598
Rp599
ag1
((lp600
I2
aI3
aI5
atp601
Rp602
ag1
((lp603
I2
aI3
aI4
atp604
Rp605
ag584
ag581
ag1
((lp606
I2
aI4
aI5
atp607
Rp608
atp609
Rp610
I720
sg1
((lp611
g74
ag77
ag206
ag83
ag215
ag80
ag86
atp612
Rp613
I720
sg1
((lp614
g569
ag599
ag1
((lp615
I1
aI2
aI3
atp616
Rp617
ag1
((lp618
I2
aI4
aI6
atp619
Rp620
ag578
ag581
ag587
atp621
Rp622
I720
sg1
((lp623
g401
ag80
ag83
ag212
ag218
ag311
ag89
atp624
Rp625
I60
sg1
((lp626
g419
ag422
ag428
ag521
ag524
ag1
((lp627
I1
aI5
aI6
atp628
Rp629
ag1
((lp630
I1
aI4
aI6
atp631
Rp632
atp633
Rp634
I720
sg1
((lp635
g1
((lp636
I3
aI4
aI6
atp637
Rp638
ag1
((lp639
I2
aI3
aI6
atp640
Rp641
ag1
((lp642
I2
aI5
aI6
atp643
Rp644
ag1
((lp645
I1
aI3
aI6
atp646
Rp647
ag1
((lp648
I1
aI4
atp649
Rp650
ag1
((lp651
I4
aI5
aI6
atp652
Rp653
ag1
((lp654
I1
aI5
aI6
atp655
Rp656
atp657
Rp658
I180
sg1
((lp659
g542
ag320
ag251
ag263
ag329
ag266
ag371
atp660
Rp661
I360
sg1
((lp662
g383
ag386
ag389
ag1
((lp663
I2
aI4
aI6
atp664
Rp665
ag392
ag1
((lp666
I1
aI4
aI6
atp667
Rp668
ag1
((lp669
I1
aI2
aI3
atp670
Rp671
atp672
Rp673
I360
sg1
((lp674
g443
ag446
ag152
ag488
ag164
ag167
ag170
atp675
Rp676
I720
sg1
((lp677
g140
ag119
ag53
ag200
ag59
ag146
ag128
atp678
Rp679
I360
sg1
((lp680
g386
ag389
ag551
ag554
ag1
((lp681
I1
aI2
aI6
atp682
Rp683
ag392
ag548
atp684
Rp685
I720
sg1
((lp686
g95
ag335
ag98
ag1
((lp687
I3
aI4
aI5
atp688
Rp689
ag101
ag1
((lp690
I1
aI2
aI4
atp691
Rp692
ag110
atp693
Rp694
I720
sg1
((lp695
g536
ag8
ag359
ag14
ag134
ag29
ag17
atp696
Rp697
I720
sg1
((lp698
g260
ag254
ag251
ag350
ag263
ag329
ag266
atp699
Rp700
I720
sg1
((lp701
g1
((lp702
I3
aI4
aI6
atp703
Rp704
ag482
ag446
ag485
ag164
ag1
((lp705
I2
aI4
aI5
atp706
Rp707
ag452
atp708
Rp709
I360
sg1
((lp710
g140
ag53
ag200
ag125
ag146
ag62
ag65
atp711
Rp712
I720
sg1
((lp713
g317
ag254
ag323
ag263
ag326
ag329
ag266
atp714
Rp715
I720
sg1
((lp716
g377
ag380
ag386
ag548
ag665
ag554
ag395
atp717
Rp718
I720
sg1
((lp719
g1
((lp720
I3
aI4
aI6
atp721
Rp722
ag1
((lp723
I1
aI3
aI5
atp724
Rp725
ag1
((lp726
I1
aI2
aI5
atp727
Rp728
ag230
ag506
ag239
ag242
atp729
Rp730
I720
sg1
((lp731
g191
ag179
ag1
((lp732
I1
aI2
aI4
atp733
Rp734
ag1
((lp735
I1
aI4
aI5
atp736
Rp737
ag194
ag413
ag1
((lp738
I3
aI5
aI6
atp739
Rp740
atp741
Rp742
I720
sg1
((lp743
g599
ag1
((lp744
I3
aI4
aI5
atp745
Rp746
ag605
ag1
((lp747
I1
aI2
aI5
atp748
Rp749
ag1
((lp750
I1
aI4
aI5
atp751
Rp752
ag581
ag587
atp753
Rp754
I720
sg1
((lp755
g1
((lp756
I3
aI4
aI6
atp757
Rp758
ag1
((lp759
I1
aI3
aI5
atp760
Rp761
ag1
((lp762
I1
aI2
atp763
Rp764
ag1
((lp765
I2
aI4
aI6
atp766
Rp767
ag1
((lp768
I1
aI3
aI4
atp769
Rp770
ag1
((lp771
I1
aI4
aI6
atp772
Rp773
ag1
((lp774
I3
aI5
aI6
atp775
Rp776
atp777
Rp778
I720
sg1
((lp779
g725
ag224
ag728
ag230
ag1
((lp780
I1
aI4
aI6
atp781
Rp782
ag239
ag242
atp783
Rp784
I720
sg1
((lp785
g725
ag500
ag503
ag728
ag1
((lp786
I1
aI2
aI6
atp787
Rp788
ag239
ag242
atp789
Rp790
I720
sg1
((lp791
g419
ag425
ag428
ag515
ag434
ag1
((lp792
I4
aI5
aI6
atp793
Rp794
ag1
((lp795
I1
aI3
aI4
atp796
Rp797
atp798
Rp799
I720
sg1
((lp800
g335
ag689
ag101
ag1
((lp801
I2
aI3
aI5
atp802
Rp803
ag1
((lp804
I2
aI3
aI4
atp805
Rp806
ag338
ag341
atp807
Rp808
I720
sg1
((lp809
g704
ag155
ag446
ag449
ag485
ag164
ag170
atp810
Rp811
I720
sg1
((lp812
g446
ag449
ag158
ag161
ag488
ag164
ag707
atp813
Rp814
I720
sg1
((lp815
g638
ag1
((lp816
I2
aI3
aI5
atp817
Rp818
ag650
ag653
ag1
((lp819
I2
aI4
aI6
atp820
Rp821
ag656
ag1
((lp822
I1
aI2
aI3
atp823
Rp824
atp825
Rp826
I360
sg1
((lp827
g176
ag1
((lp828
I1
aI2
aI3
atp829
Rp830
ag182
ag188
ag194
ag1
((lp831
I1
aI5
aI6
atp832
Rp833
ag740
atp834
Rp835
I360
sg1
((lp836
g758
ag1
((lp837
I2
aI5
aI6
atp838
Rp839
ag764
ag1
((lp840
I2
aI3
aI4
atp841
Rp842
ag767
ag770
ag1
((lp843
I2
aI4
aI5
atp844
Rp845
atp846
Rp847
I720
sg1
((lp848
g77
ag308
ag83
ag209
ag275
ag311
ag89
atp849
Rp850
I720
sg1
((lp851
g443
ag449
ag161
ag164
ag167
ag707
ag452
atp852
Rp853
I360
sg1
((lp854
g419
ag422
ag1
((lp855
I2
aI3
aI5
atp856
Rp857
ag434
ag521
ag518
ag797
atp858
Rp859
I720
sg1
((lp860
g95
ag335
ag689
ag101
ag104
ag110
ag113
atp861
Rp862
I720
sg1
((lp863
g335
ag98
ag101
ag104
ag1
((lp864
I1
aI3
aI4
atp865
Rp866
ag113
ag344
atp867
Rp868
I360
sg1
((lp869
g386
ag1
((lp870
I2
aI3
aI4
atp871
Rp872
ag551
ag665
ag554
ag668
ag671
atp873
Rp874
I360
sg1
((lp875
g95
ag335
ag98
ag101
ag107
ag110
ag113
atp876
Rp877
I720
sg1
((lp878
g74
ag206
ag83
ag212
ag311
ag86
ag89
atp879
Rp880
I720
sg1
((lp881
g1
((lp882
I3
aI4
aI6
atp883
Rp884
ag176
ag1
((lp885
I1
aI3
aI6
atp886
Rp887
ag182
ag194
ag833
ag413
atp888
Rp889
I720
sg1
((lp890
g665
ag383
ag386
ag872
ag551
ag1
((lp891
I1
aI4
aI5
atp892
Rp893
ag683
atp894
Rp895
I720
sg1
((lp896
g380
ag386
ag872
ag389
ag554
ag683
ag671
atp897
Rp898
I720
sg1
((lp899
g191
ag734
ag185
ag188
ag194
ag410
ag413
atp900
Rp901
I360
sg1
((lp902
g689
ag101
ag803
ag104
ag107
ag110
ag341
atp903
Rp904
I720
sg1
((lp905
g317
ag254
ag251
ag263
ag326
ag329
ag266
atp906
Rp907
I360
sg1
((lp908
g569
ag599
ag749
ag575
ag620
ag581
ag608
atp909
Rp910
I720
sg1
((lp911
g401
ag80
ag83
ag215
ag278
ag311
ag308
atp912
Rp913
I720
sg1
((lp914
g1
((lp915
I3
aI4
aI6
atp916
Rp917
ag1
((lp918
I2
aI3
aI6
atp919
Rp920
ag1
((lp921
I2
aI3
aI5
atp922
Rp923
ag284
ag1
((lp924
I1
aI4
aI5
atp925
Rp926
ag293
ag302
atp927
Rp928
I180
sg1
((lp929
g1
((lp930
I2
aI3
aI5
atp931
Rp932
ag464
ag1
((lp933
I1
aI2
aI5
atp934
Rp935
ag470
ag473
ag461
ag1
((lp936
I1
aI2
aI3
atp937
Rp938
atp939
Rp940
I720
sg1
((lp941
g47
ag140
ag53
ag125
ag59
ag143
ag62
atp942
Rp943
I720
sg1
((lp944
g665
ag380
ag1
((lp945
I1
aI3
aI6
atp946
Rp947
ag386
ag389
ag893
ag683
atp948
Rp949
I720
sg1
((lp950
g1
((lp951
I3
aI4
aI5
atp952
Rp953
ag140
ag53
ag122
ag56
ag146
ag128
atp954
Rp955
I720
sg1
((lp956
g1
((lp957
I3
aI4
aI5
atp958
Rp959
ag1
((lp960
I2
aI3
aI5
atp961
Rp962
ag764
ag842
ag1
((lp963
I1
aI4
aI5
atp964
Rp965
ag1
((lp966
I1
aI3
aI6
atp967
Rp968
ag1
((lp969
I1
aI5
aI6
atp970
Rp971
atp972
Rp973
I720
sg1
((lp974
g569
ag617
ag749
ag575
ag578
ag581
ag587
atp975
Rp976
I720
sg1
((lp977
g32
ag35
ag11
ag17
ag494
ag38
ag20
atp978
Rp979
I720
sg1
((lp980
g758
ag761
ag959
ag968
ag764
ag770
ag971
atp981
Rp982
I360
sg1
((lp983
g1
((lp984
I1
aI4
aI6
atp985
Rp986
ag689
ag101
ag95
ag866
ag341
ag113
atp987
Rp988
I720
sg1
((lp989
g179
ag182
ag737
ag194
ag833
ag413
ag830
atp990
Rp991
I360
sg1
((lp992
g569
ag749
ag620
ag578
ag752
ag587
ag581
atp993
Rp994
I720
sg1
((lp995
g419
ag422
ag518
ag434
ag794
ag524
ag629
atp996
Rp997
I720
sg1
((lp998
g569
ag1
((lp999
I2
aI3
aI6
atp1000
Rp1001
ag746
ag749
ag599
ag581
ag617
atp1002
Rp1003
I720
sg1
((lp1004
g419
ag422
ag425
ag515
ag794
ag1
((lp1005
I2
aI3
aI6
atp1006
Rp1007
ag524
atp1008
Rp1009
I720
sg1
((lp1010
g95
ag335
ag98
ag101
ag803
ag692
ag110
atp1011
Rp1012
I360
sg1
((lp1013
g569
ag746
ag749
ag620
ag581
ag608
ag617
atp1014
Rp1015
I720
sg1
((lp1016
g152
ag446
ag485
ag161
ag164
ag167
ag158
atp1017
Rp1018
I360
sg1
((lp1019
g155
ag485
ag161
ag164
ag1
((lp1020
I1
aI2
aI6
atp1021
Rp1022
ag167
ag452
atp1023
Rp1024
I720
sg1
((lp1025
g704
ag155
ag446
ag485
ag161
ag164
ag158
atp1026
Rp1027
I720
sg1
((lp1028
g419
ag425
ag515
ag434
ag794
ag521
ag431
atp1029
Rp1030
I720
sg1
((lp1031
g317
ag320
ag1
((lp1032
I1
aI3
aI6
atp1033
Rp1034
ag350
ag263
ag326
ag371
atp1035
Rp1036
I360
sg1
((lp1037
g620
ag1001
ag572
ag749
ag584
ag752
ag581
atp1038
Rp1039
I360
sg1
((lp1040
g224
ag503
ag728
ag233
ag782
ag1
((lp1041
I3
aI5
aI6
atp1042
Rp1043
ag242
atp1044
Rp1045
I180
sg1
((lp1046
g401
ag77
ag83
ag215
ag218
ag86
ag308
atp1047
Rp1048
I720
sg1
((lp1049
g29
ag359
ag362
ag134
ag17
ag38
ag20
atp1050
Rp1051
I180
sg1
((lp1052
g71
ag74
ag80
ag83
ag218
ag86
ag89
atp1053
Rp1054
I720
sg1
((lp1055
g317
ag320
ag254
ag323
ag350
ag263
ag266
atp1056
Rp1057
I360
sg1
((lp1058
g1
((lp1059
I1
aI3
aI5
atp1060
Rp1061
ag1
((lp1062
I3
aI4
aI5
atp1063
Rp1064
ag650
ag653
ag641
ag656
ag1
((lp1065
I3
aI5
aI6
atp1066
Rp1067
atp1068
Rp1069
I180
sg1
((lp1070
g260
ag1034
ag350
ag263
ag326
ag329
ag371
atp1071
Rp1072
I720
sg1
((lp1073
g560
ag224
ag227
ag230
ag788
ag239
ag242
atp1074
Rp1075
I360
sg1
((lp1076
g704
ag155
ag446
ag485
ag152
ag164
ag452
atp1077
Rp1078
I360
sg1
((lp1079
g419
ag428
ag515
ag857
ag794
ag797
ag437
atp1080
Rp1081
I180
sg1
((lp1082
g317
ag320
ag1034
ag254
ag263
ag248
ag353
atp1083
Rp1084
I360
sg1
((lp1085
g704
ag443
ag152
ag164
ag1022
ag167
ag170
atp1086
Rp1087
I720
sg1
((lp1088
g548
ag383
ag386
ag551
ag665
ag668
ag671
atp1089
Rp1090
I720
sg1
((lp1091
g152
ag443
ag446
ag485
ag161
ag164
ag170
atp1092
Rp1093
I720
sg1
((lp1094
g458
ag932
ag464
ag467
ag473
ag461
ag938
atp1095
Rp1096
I360
sg1
((lp1097
g458
ag1
((lp1098
I1
aI3
aI5
atp1099
Rp1100
ag461
ag464
ag467
ag1
((lp1101
I2
aI4
aI6
atp1102
Rp1103
ag938
atp1104
Rp1105
I720
sg1
((lp1106
g443
ag155
ag158
ag152
ag164
ag1022
ag170
atp1107
Rp1108
I720
sg1
((lp1109
g641
ag818
ag650
ag1
((lp1110
I1
aI2
aI5
atp1111
Rp1112
ag653
ag647
ag824
atp1113
Rp1114
I360
sg1
((lp1115
g419
ag428
ag515
ag857
ag518
ag632
ag431
atp1116
Rp1117
I720
sg1
((lp1118
g419
ag422
ag1007
ag434
ag524
ag629
ag632
atp1119
Rp1120
I720
sg1
((lp1121
g29
ag32
ag8
ag362
ag134
ag17
ag494
atp1122
Rp1123
I180
sg1
((lp1124
g377
ag386
ag872
ag551
ag893
ag683
ag395
atp1125
Rp1126
I360
sg1
((lp1127
g458
ag1
((lp1128
I2
aI3
aI6
atp1129
Rp1130
ag1
((lp1131
I3
aI4
aI5
atp1132
Rp1133
ag461
ag464
ag935
ag473
atp1134
Rp1135
I720
sg1
((lp1136
g668
ag386
ag551
ag893
ag554
ag395
ag671
atp1137
Rp1138
I720
sg1
((lp1139
g101
ag803
ag806
ag107
ag95
ag338
ag341
atp1140
Rp1141
I720
sg1
((lp1142
g569
ag1001
ag602
ag605
ag578
ag581
ag617
atp1143
Rp1144
I360
sg1
((lp1145
g1
((lp1146
I3
aI4
aI5
atp1147
Rp1148
ag923
ag284
ag1
((lp1149
I1
aI2
aI5
atp1150
Rp1151
ag287
ag926
ag293
atp1152
Rp1153
I60
sg1
((lp1154
g290
ag1
((lp1155
I2
aI5
aI6
atp1156
Rp1157
ag1148
ag1
((lp1158
I4
aI5
aI6
atp1159
Rp1160
ag926
ag293
ag296
atp1161
Rp1162
I720
sg1
((lp1163
g380
ag383
ag947
ag386
ag893
ag554
ag395
atp1164
Rp1165
I180
sg1
((lp1166
g1130
ag464
ag1
((lp1167
I2
aI4
aI5
atp1168
Rp1169
ag935
ag473
ag1
((lp1170
I1
aI2
aI6
atp1171
Rp1172
ag476
atp1173
Rp1174
I720
sg1
((lp1175
g641
ag644
ag818
ag650
ag1
((lp1176
I2
aI3
aI4
atp1177
Rp1178
ag653
ag656
atp1179
Rp1180
I360
sg1
((lp1181
g761
ag968
ag764
ag1
((lp1182
I4
aI5
aI6
atp1183
Rp1184
ag965
ag773
ag776
atp1185
Rp1186
I180
sg1
((lp1187
g335
ag98
ag101
ag107
ag95
ag866
ag344
atp1188
Rp1189
I120
sg1
((lp1190
g260
ag254
ag257
ag350
ag263
ag266
ag353
atp1191
Rp1192
I360
sg1
((lp1193
g29
ag35
ag362
ag134
ag17
ag20
ag41
atp1194
Rp1195
I360
sg1
((lp1196
g95
ag101
ag803
ag104
ag107
ag110
ag113
atp1197
Rp1198
I720
sg1
((lp1199
g419
ag1007
ag518
ag437
ag797
ag425
ag431
atp1200
Rp1201
I720
sg1
((lp1202
g569
ag572
ag605
ag584
ag752
ag581
ag617
atp1203
Rp1204
I720
sg1
((lp1205
g536
ag32
ag35
ag14
ag8
ag17
ag38
atp1206
Rp1207
I360
sg1
((lp1208
g95
ag335
ag101
ag806
ag104
ag110
ag986
atp1209
Rp1210
I720
sg1
((lp1211
g419
ag425
ag518
ag521
ag629
ag632
ag437
atp1212
Rp1213
I360
sg1
((lp1214
g380
ag386
ag872
ag548
ag893
ag395
ag671
atp1215
Rp1216
I720
sg1
((lp1217
g317
ag323
ag251
ag260
ag263
ag266
ag353
atp1218
Rp1219
I720
sg1
((lp1220
g482
ag485
ag161
ag164
ag1022
ag167
ag170
atp1221
Rp1222
I90
sg1
((lp1223
g419
ag422
ag1007
ag515
ag521
ag524
ag629
atp1224
Rp1225
I720
sg1
((lp1226
g500
ag728
ag230
ag227
ag506
ag239
ag242
atp1227
Rp1228
I720
sg1
((lp1229
g917
ag923
ag1151
ag1160
ag926
ag293
ag1
((lp1230
I1
aI4
aI6
atp1231
Rp1232
atp1233
Rp1234
I720
sg1
((lp1235
g320
ag254
ag323
ag263
ag326
ag329
ag353
atp1236
Rp1237
I360
sg1
((lp1238
g140
ag53
ag59
ag143
ag146
ag62
ag530
atp1239
Rp1240
I360
sg1
((lp1241
g74
ag206
ag83
ag212
ag278
ag218
ag311
atp1242
Rp1243
I720
sg1
((lp1244
g542
ag1034
ag323
ag251
ag350
ag263
ag317
atp1245
Rp1246
I720
sg1
((lp1247
g143
ag53
ag200
ag122
ag56
ag530
ag128
atp1248
Rp1249
I90
sg1
((lp1250
g758
ag1
((lp1251
I2
aI3
aI6
atp1252
Rp1253
ag959
ag764
ag965
ag770
ag776
atp1254
Rp1255
I720
sg1
((lp1256
g1148
ag1160
ag926
ag293
ag296
ag287
ag302
atp1257
Rp1258
I720
sg1
((lp1259
g725
ag224
ag500
ag503
ag728
ag782
ag242
atp1260
Rp1261
I720
sg1
((lp1262
g530
ag953
ag140
ag53
ag143
ag146
ag65
atp1263
Rp1264
I180
sg1
((lp1265
g536
ag8
ag11
ag29
ag17
ag38
ag20
atp1266
Rp1267
I720
sg1
((lp1268
g722
ag500
ag1043
ag233
ag782
ag239
ag242
atp1269
Rp1270
I720
sg1
((lp1271
g725
ag500
ag233
ag227
ag788
ag782
ag242
atp1272
Rp1273
I720
sg1
((lp1274
g50
ag53
ag200
ag56
ag62
ag530
ag119
atp1275
Rp1276
I720
sg1
((lp1277
g923
ag284
ag1151
ag287
ag926
ag293
ag299
atp1278
Rp1279
I360
sg1
((lp1280
g47
ag140
ag53
ag122
ag125
ag59
ag530
atp1281
Rp1282
I720
sg1
((lp1283
g569
ag746
ag605
ag584
ag620
ag581
ag617
atp1284
Rp1285
I720
sg1
((lp1286
g644
ag1064
ag647
ag650
ag821
ag1
((lp1287
I1
aI2
aI6
atp1288
Rp1289
ag1067
atp1290
Rp1291
I720
sg1
((lp1292
g569
ag1001
ag572
ag587
ag620
ag581
ag617
atp1293
Rp1294
I180
sg1
((lp1295
g1034
ag257
ag350
ag263
ag329
ag251
ag353
atp1296
Rp1297
I720
sg1
((lp1298
g569
ag1001
ag605
ag620
ag752
ag617
ag581
atp1299
Rp1300
I360
sg1
((lp1301
g98
ag689
ag101
ag806
ag110
ag866
ag338
atp1302
Rp1303
I360
sg1
((lp1304
g152
ag158
ag485
ag161
ag164
ag167
ag707
atp1305
Rp1306
I360
sg1
((lp1307
g704
ag446
ag152
ag164
ag1022
ag167
ag707
atp1308
Rp1309
I720
sg1
((lp1310
g74
ag206
ag89
ag83
ag209
ag218
ag308
atp1311
Rp1312
I360
sg1
((lp1313
g689
ag101
ag104
ag107
ag110
ag338
ag344
atp1314
Rp1315
I180
sg1
((lp1316
g419
ag428
ag515
ag857
ag518
ag629
ag437
atp1317
Rp1318
I360
sg1
((lp1319
g407
ag179
ag182
ag185
ag188
ag194
ag734
atp1320
Rp1321
I720
sg1
((lp1322
g191
ag407
ag182
ag737
ag176
ag194
ag410
atp1323
Rp1324
I360
sg1
((lp1325
g71
ag401
ag80
ag83
ag212
ag278
ag86
atp1326
Rp1327
I360
sg1
((lp1328
g536
ag35
ag359
ag8
ag134
ag17
ag38
atp1329
Rp1330
I720
sg1
((lp1331
g248
ag320
ag1034
ag263
ag326
ag329
ag266
atp1332
Rp1333
I360
sg1
((lp1334
g98
ag101
ag803
ag806
ag104
ag110
ag986
atp1335
Rp1336
I720
sg1
((lp1337
g206
ag83
ag215
ag80
ag278
ag218
ag86
atp1338
Rp1339
I720
sg1
((lp1340
g71
ag83
ag209
ag212
ag218
ag86
ag89
atp1341
Rp1342
I720
sg1
((lp1343
g380
ag383
ag947
ag386
ag389
ag893
ag554
atp1344
Rp1345
I360
sg1
((lp1346
g5
ag32
ag362
ag134
ag17
ag20
ag41
atp1347
Rp1348
I360
sg1
((lp1349
g335
ag98
ag101
ag803
ag104
ag107
ag95
atp1350
Rp1351
I720
sg1
((lp1352
g98
ag101
ag803
ag806
ag95
ag338
ag986
atp1353
Rp1354
I720
sg1
((lp1355
g155
ag449
ag158
ag152
ag164
ag1022
ag707
atp1356
Rp1357
I30
sg1
((lp1358
g458
ag932
ag464
ag470
ag461
ag1
((lp1359
I1
aI3
aI4
atp1360
Rp1361
ag938
atp1362
Rp1363
I720
sg1
((lp1364
g959
ag962
ag764
ag842
ag770
ag773
ag776
atp1365
Rp1366
I720
sg1
((lp1367
g920
ag923
ag284
ag287
ag293
ag296
ag302
atp1368
Rp1369
I360
sg1
((lp1370
g722
ag224
ag227
ag239
ag233
ag1043
ag242
atp1371
Rp1372
I360
sg1
((lp1373
g176
ag179
ag182
ag191
ag194
ag833
ag734
atp1374
Rp1375
I180
sg1
((lp1376
g572
ag602
ag575
ag752
ag581
ag584
ag617
atp1377
Rp1378
I720
sg1
((lp1379
g536
ag5
ag35
ag11
ag17
ag38
ag23
atp1380
Rp1381
I120
sg1
((lp1382
g311
ag206
ag83
ag209
ag80
ag86
ag89
atp1383
Rp1384
I720
sg1
((lp1385
g443
ag482
ag449
ag161
ag488
ag164
ag167
atp1386
Rp1387
I360
sg1
((lp1388
g920
ag923
ag1160
ag290
ag293
ag299
ag302
atp1389
Rp1390
I120
sg1
((lp1391
g419
ag1007
ag518
ag431
ag425
ag632
ag437
atp1392
Rp1393
I360
sg1
((lp1394
g47
ag50
ag953
ag143
ag53
ag125
ag119
atp1395
Rp1396
I720
sg1
((lp1397
g71
ag74
ag83
ag209
ag215
ag311
ag308
atp1398
Rp1399
I90
sg1
((lp1400
g401
ag83
ag275
ag215
ag218
ag311
ag308
atp1401
Rp1402
I720
sg1
((lp1403
g722
ag500
ag728
ag233
ag782
ag239
ag242
atp1404
Rp1405
I360
sg1
((lp1406
g74
ag401
ag206
ag83
ag212
ag86
ag89
atp1407
Rp1408
I360
sg1
((lp1409
g32
ag8
ag14
ag134
ag17
ag20
ag23
atp1410
Rp1411
I360
sg1
((lp1412
g638
ag1061
ag818
ag650
ag1289
ag656
ag824
atp1413
Rp1414
I360
sg1
((lp1415
g569
ag1001
ag602
ag575
ag620
ag581
ag608
atp1416
Rp1417
I720
sg1
((lp1418
g143
ag53
ag122
ag56
ag59
ag125
ag119
atp1419
Rp1420
I360
s.