(dp0
c__builtin__
frozenset
p1
((lp2
g1
((lp3
I2
aI4
aI6
atp4
Rp5
ag1
((lp6
I1
aI3
aI5
atp7
Rp8
ag1
((lp9
I2
aI5
aI6
atp10
Rp11
ag1
((lp12
I3
aI6
atp13
Rp14
ag1
((lp15
I1
aI2
aI3
aI4
atp16
Rp17
ag1
((lp18
I4
aI5
aI6
atp19
Rp20
ag1
((lp21
I1
aI4
aI5
atp22
Rp23
ag1
((lp24
I1
aI2
aI6
atp25
Rp26
ag1
((lp27
I1
aI5
aI6
atp28
Rp29
ag1
((lp30
I1
aI4
aI6
atp31
Rp32
ag1
((lp33
I2
aI3
aI4
aI5
atp34
Rp35
atp36
Rp37
I360
sg1
((lp38
g1
((lp39
I3
aI4
aI6
atp40
Rp41
ag1
((lp42
I2
aI3
aI6
atp43
Rp44
ag1
((lp45
I1
aI3
aI6
atp46
Rp47
ag1
((lp48
I3
aI5
atp49
Rp50
ag1
((lp51
I2
aI3
aI4
atp52
Rp53
ag1
((lp54
I4
aI5
aI6
atp55
Rp56
ag1
((lp57
I2
aI4
aI6
atp58
Rp59
ag1
((lp60
I1
aI3
aI4
atp61
Rp62
ag1
((lp63
I1
aI2
aI4
aI5
atp64
Rp65
ag1
((lp66
I1
aI4
aI6
atp67
Rp68
ag1
((lp69
I1
aI2
aI5
aI6
atp70
Rp71
atp72
Rp73
I180
sg1
((lp74
g1
((lp75
I2
aI3
aI5
aI6
atp76
Rp77
ag1
((lp78
I3
aI4
aI5
atp79
Rp80
ag1
((lp81
I1
aI3
aI6
atp82
Rp83
ag1
((lp84
I1
aI2
aI3
aI5
atp85
Rp86
ag1
((lp87
I1
aI2
aI4
atp88
Rp89
ag1
((lp90
I1
aI4
aI5
atp91
Rp92
ag1
((lp93
I1
aI3
aI4
atp94
Rp95
ag1
((lp96
I4
aI6
atp97
Rp98
ag1
((lp99
I1
aI2
aI6
atp100
Rp101
ag1
((lp102
I1
aI5
aI6
atp103
Rp104
ag1
((lp105
I2
aI4
aI5
atp106
Rp107
atp108
Rp109
I360
sg1
((lp110
g1
((lp111
I3
aI4
aI6
atp112
Rp113
ag1
((lp114
I1
aI3
aI5
atp115
Rp116
ag1
((lp117
I2
aI3
aI5
aI6
atp118
Rp119
ag1
((lp120
I2
aI3
aI4
atp121
Rp122
ag1
((lp123
I1
aI2
aI5
atp124
Rp125
ag1
((lp126
I2
aI4
aI6
atp127
Rp128
ag1
((lp129
I1
aI3
aI4
atp130
Rp131
ag1
((lp132
I1
aI2
aI3
aI6
atp133
Rp134
ag1
((lp135
I1
aI5
aI6
atp136
Rp137
ag1
((lp138
I1
aI4
aI6
atp139
Rp140
ag1
((lp141
I4
aI5
atp142
Rp143
atp144
Rp145
I360
sg1
((lp146
g1
((lp147
I1
aI3
aI5
aI6
atp148
Rp149
ag95
ag1
((lp150
I2
aI5
aI6
atp151
Rp152
ag80
ag1
((lp153
I2
aI3
aI5
atp154
Rp155
ag1
((lp156
I2
aI3
aI4
atp157
Rp158
ag1
((lp159
I1
aI2
aI5
atp160
Rp161
ag92
ag1
((lp162
I1
aI2
aI3
aI6
atp163
Rp164
ag98
ag107
atp165
Rp166
I720
sg1
((lp167
g1
((lp168
I3
aI4
aI6
atp169
Rp170
ag1
((lp171
I1
aI3
aI5
atp172
Rp173
ag1
((lp174
I2
aI3
aI5
aI6
atp175
Rp176
ag1
((lp177
I1
aI2
aI3
atp178
Rp179
ag1
((lp180
I1
aI2
aI5
atp181
Rp182
ag1
((lp183
I1
aI2
aI4
atp184
Rp185
ag1
((lp186
I1
aI4
aI5
atp187
Rp188
ag1
((lp189
I1
aI3
aI4
atp190
Rp191
ag1
((lp192
I1
aI6
atp193
Rp194
ag1
((lp195
I4
aI5
aI6
atp196
Rp197
ag1
((lp198
I2
aI3
aI4
aI5
atp199
Rp200
atp201
Rp202
I360
sg1
((lp203
g173
ag1
((lp204
I2
aI3
aI5
aI6
atp205
Rp206
ag1
((lp207
I3
aI4
aI5
atp208
Rp209
ag179
ag182
ag185
ag191
ag194
ag1
((lp210
I2
aI3
aI4
aI6
atp211
Rp212
ag1
((lp213
I2
aI4
aI5
atp214
Rp215
ag197
atp216
Rp217
I180
sg1
((lp218
g1
((lp219
I2
aI4
atp220
Rp221
ag1
((lp222
I2
aI3
aI6
atp223
Rp224
ag1
((lp225
I2
aI5
aI6
atp226
Rp227
ag1
((lp228
I2
aI3
aI5
atp229
Rp230
ag1
((lp231
I1
aI2
aI3
atp232
Rp233
ag1
((lp234
I1
aI2
aI5
atp235
Rp236
ag1
((lp237
I3
aI5
aI6
atp238
Rp239
ag1
((lp240
I1
aI3
aI5
atp241
Rp242
ag1
((lp243
I1
aI4
aI5
aI6
atp244
Rp245
ag1
((lp246
I1
aI2
aI6
atp247
Rp248
ag1
((lp249
I1
aI3
aI4
aI6
atp250
Rp251
atp252
Rp253
I180
sg1
((lp254
g116
ag1
((lp255
I2
aI3
aI5
aI6
atp256
Rp257
ag1
((lp258
I1
aI2
aI3
atp259
Rp260
ag122
ag125
ag1
((lp261
I1
aI2
aI4
atp262
Rp263
ag128
ag1
((lp264
I1
aI2
aI6
atp265
Rp266
ag137
ag1
((lp267
I1
aI3
aI4
aI6
atp268
Rp269
ag143
atp270
Rp271
I180
sg1
((lp272
g1
((lp273
I1
aI3
aI5
atp274
Rp275
ag1
((lp276
I2
aI5
aI6
atp277
Rp278
ag1
((lp279
I3
aI4
aI5
atp280
Rp281
ag1
((lp282
I2
aI3
aI5
atp283
Rp284
ag1
((lp285
I1
aI4
atp286
Rp287
ag1
((lp288
I1
aI2
aI5
atp289
Rp290
ag1
((lp291
I4
aI5
aI6
atp292
Rp293
ag1
((lp294
I1
aI2
aI3
aI6
atp295
Rp296
ag1
((lp297
I2
aI3
aI4
aI6
atp298
Rp299
ag1
((lp300
I2
aI4
aI5
atp301
Rp302
ag1
((lp303
I3
aI5
aI6
atp304
Rp305
atp306
Rp307
I360
sg1
((lp308
g1
((lp309
I1
aI3
aI5
atp310
Rp311
ag1
((lp312
I2
aI3
aI5
aI6
atp313
Rp314
ag1
((lp315
I1
aI3
aI6
atp316
Rp317
ag1
((lp318
I1
aI2
aI5
atp319
Rp320
ag1
((lp321
I1
aI2
aI4
atp322
Rp323
ag1
((lp324
I1
aI4
aI5
atp325
Rp326
ag1
((lp327
I3
aI4
atp328
Rp329
ag1
((lp330
I1
aI2
aI6
atp331
Rp332
ag1
((lp333
I2
aI4
aI5
aI6
atp334
Rp335
ag1
((lp336
I1
aI4
aI6
atp337
Rp338
ag1
((lp339
I1
aI2
aI3
atp340
Rp341
atp342
Rp343
I180
s.