(dp0
c__builtin__
frozenset
p1
((lp2
g1
((lp3
I1
aI4
aI5
atp4
Rp5
ag1
((lp6
I3
aI4
aI5
atp7
Rp8
ag1
((lp9
I1
aI3
aI6
atp10
Rp11
ag1
((lp12
I1
aI2
aI5
atp13
Rp14
ag1
((lp15
I2
aI4
aI6
atp16
Rp17
ag1
((lp18
I1
aI3
aI4
atp19
Rp20
ag1
((lp21
I2
aI3
atp22
Rp23
ag1
((lp24
I1
aI5
aI6
atp25
Rp26
ag1
((lp27
I3
aI5
aI6
atp28
Rp29
atp30
Rp31
I180
sg1
((lp32
g1
((lp33
I3
aI4
aI6
atp34
Rp35
ag1
((lp36
I2
aI5
aI6
atp37
Rp38
ag1
((lp39
I1
aI3
aI6
atp40
Rp41
ag1
((lp42
I3
aI5
atp43
Rp44
ag1
((lp45
I2
aI3
aI4
atp46
Rp47
ag1
((lp48
I4
aI5
aI6
atp49
Rp50
ag1
((lp51
I2
aI4
aI6
atp52
Rp53
ag1
((lp54
I1
aI4
aI5
atp55
Rp56
ag1
((lp57
I1
aI5
aI6
atp58
Rp59
atp60
Rp61
I720
sg1
((lp62
g1
((lp63
I1
aI4
aI5
atp64
Rp65
ag1
((lp66
I2
aI3
aI6
atp67
Rp68
ag1
((lp69
I2
aI5
aI6
atp70
Rp71
ag1
((lp72
I2
aI3
aI4
atp73
Rp74
ag1
((lp75
I2
aI4
aI6
atp76
Rp77
ag1
((lp78
I1
aI3
atp79
Rp80
ag1
((lp81
I1
aI2
aI6
atp82
Rp83
ag1
((lp84
I2
aI4
aI5
atp85
Rp86
ag1
((lp87
I3
aI5
aI6
atp88
Rp89
atp90
Rp91
I720
sg1
((lp92
g1
((lp93
I2
aI3
aI6
atp94
Rp95
ag1
((lp96
I2
aI5
aI6
atp97
Rp98
ag1
((lp99
I1
aI2
aI3
atp100
Rp101
ag1
((lp102
I1
aI4
aI5
atp103
Rp104
ag1
((lp105
I1
aI3
aI4
atp106
Rp107
ag1
((lp108
I4
aI6
atp109
Rp110
ag1
((lp111
I1
aI2
aI6
atp112
Rp113
ag1
((lp114
I2
aI4
aI5
atp115
Rp116
ag1
((lp117
I3
aI5
aI6
atp118
Rp119
atp120
Rp121
I720
sg1
((lp122
g98
ag1
((lp123
I3
aI4
aI5
atp124
Rp125
ag1
((lp126
I1
aI3
aI6
atp127
Rp128
ag101
ag1
((lp129
I2
aI3
aI4
atp130
Rp131
ag104
ag107
ag110
ag119
atp132
Rp133
I720
sg1
((lp134
g65
ag1
((lp135
I2
aI3
aI5
atp136
Rp137
ag74
ag1
((lp138
I4
aI5
aI6
atp139
Rp140
ag77
ag80
ag83
ag1
((lp141
I1
aI5
aI6
atp142
Rp143
ag89
atp144
Rp145
I720
sg1
((lp146
g1
((lp147
I3
aI4
aI6
atp148
Rp149
ag1
((lp150
I1
aI4
aI6
atp151
Rp152
ag1
((lp153
I2
aI5
aI6
atp154
Rp155
ag14
ag1
((lp156
I1
aI2
aI4
atp157
Rp158
ag17
ag23
ag5
ag1
((lp159
I2
aI4
aI5
atp160
Rp161
atp162
Rp163
I720
sg1
((lp164
g1
((lp165
I3
aI4
aI6
atp166
Rp167
ag1
((lp168
I1
aI3
aI5
atp169
Rp170
ag1
((lp171
I2
aI5
aI6
atp172
Rp173
ag1
((lp174
I3
aI4
aI5
atp175
Rp176
ag1
((lp177
I1
aI2
atp178
Rp179
ag1
((lp180
I2
aI3
aI4
atp181
Rp182
ag1
((lp183
I2
aI4
aI6
atp184
Rp185
ag1
((lp186
I1
aI4
aI5
atp187
Rp188
ag1
((lp189
I1
aI5
aI6
atp190
Rp191
atp192
Rp193
I720
sg1
((lp194
g95
ag98
ag128
ag1
((lp195
I1
aI2
aI4
atp196
Rp197
ag1
((lp198
I2
aI3
aI5
atp199
Rp200
ag110
ag1
((lp201
I1
aI5
aI6
atp202
Rp203
ag116
ag101
atp204
Rp205
I720
sg1
((lp206
g1
((lp207
I1
aI3
aI5
atp208
Rp209
ag1
((lp210
I2
aI5
aI6
atp211
Rp212
ag1
((lp213
I3
aI4
aI5
atp214
Rp215
ag1
((lp216
I3
aI6
atp217
Rp218
ag1
((lp219
I2
aI3
aI5
atp220
Rp221
ag1
((lp222
I1
aI4
aI5
atp223
Rp224
ag1
((lp225
I1
aI2
aI6
atp226
Rp227
ag1
((lp228
I1
aI4
aI6
atp229
Rp230
ag1
((lp231
I1
aI2
aI3
atp232
Rp233
atp234
Rp235
I720
sg1
((lp236
g1
((lp237
I2
aI5
aI6
atp238
Rp239
ag1
((lp240
I2
aI3
aI5
atp241
Rp242
ag1
((lp243
I1
aI2
aI3
atp244
Rp245
ag1
((lp246
I2
aI4
aI6
atp247
Rp248
ag1
((lp249
I1
aI3
aI4
atp250
Rp251
ag1
((lp252
I1
aI2
aI6
atp253
Rp254
ag1
((lp255
I1
aI4
aI6
atp256
Rp257
ag1
((lp258
I3
aI5
aI6
atp259
Rp260
ag1
((lp261
I4
aI5
atp262
Rp263
atp264
Rp265
I720
sg1
((lp266
g1
((lp267
I2
aI5
aI6
atp268
Rp269
ag1
((lp270
I1
aI2
aI3
atp271
Rp272
ag1
((lp273
I1
aI2
aI5
atp274
Rp275
ag1
((lp276
I4
aI5
aI6
atp277
Rp278
ag1
((lp279
I2
aI4
aI6
atp280
Rp281
ag1
((lp282
I3
aI4
atp283
Rp284
ag1
((lp285
I1
aI5
aI6
atp286
Rp287
ag1
((lp288
I1
aI4
aI6
atp289
Rp290
ag1
((lp291
I3
aI5
aI6
atp292
Rp293
atp294
Rp295
I360
sg1
((lp296
g167
ag173
ag176
ag179
ag1
((lp297
I4
aI5
aI6
atp298
Rp299
ag185
ag191
ag1
((lp300
I2
aI4
aI5
atp301
Rp302
ag1
((lp303
I3
aI5
aI6
atp304
Rp305
atp306
Rp307
I360
sg1
((lp308
g38
ag41
ag44
ag47
ag1
((lp309
I1
aI2
aI4
atp310
Rp311
ag56
ag59
ag1
((lp312
I1
aI4
aI6
atp313
Rp314
ag1
((lp315
I1
aI2
aI3
atp316
Rp317
atp318
Rp319
I720
sg1
((lp320
g1
((lp321
I2
aI4
atp322
Rp323
ag1
((lp324
I1
aI3
aI5
atp325
Rp326
ag1
((lp327
I3
aI4
aI5
atp328
Rp329
ag1
((lp330
I2
aI3
aI5
atp331
Rp332
ag1
((lp333
I1
aI2
aI3
atp334
Rp335
ag1
((lp336
I1
aI4
aI5
atp337
Rp338
ag1
((lp339
I1
aI3
aI4
atp340
Rp341
ag1
((lp342
I2
aI3
aI6
atp343
Rp344
ag1
((lp345
I3
aI5
aI6
atp346
Rp347
atp348
Rp349
I720
sg1
((lp350
g1
((lp351
I3
aI4
aI6
atp352
Rp353
ag1
((lp354
I3
aI4
aI5
atp355
Rp356
ag1
((lp357
I2
aI6
atp358
Rp359
ag1
((lp360
I2
aI3
aI4
atp361
Rp362
ag1
((lp363
I1
aI2
aI5
atp364
Rp365
ag1
((lp366
I1
aI2
aI4
atp367
Rp368
ag1
((lp369
I1
aI4
aI5
atp370
Rp371
ag1
((lp372
I1
aI3
aI4
atp373
Rp374
ag1
((lp375
I1
aI5
aI6
atp376
Rp377
atp378
Rp379
I720
sg1
((lp380
g1
((lp381
I3
aI4
aI5
atp382
Rp383
ag1
((lp384
I2
aI3
aI5
atp385
Rp386
ag1
((lp387
I5
aI6
atp388
Rp389
ag1
((lp390
I1
aI2
aI5
atp391
Rp392
ag1
((lp393
I1
aI2
aI4
atp394
Rp395
ag1
((lp396
I1
aI3
aI4
atp397
Rp398
ag1
((lp399
I1
aI2
aI6
atp400
Rp401
ag1
((lp402
I2
aI4
aI5
atp403
Rp404
ag1
((lp405
I1
aI2
aI3
atp406
Rp407
atp408
Rp409
I360
sg1
((lp410
g1
((lp411
I1
aI3
aI5
atp412
Rp413
ag1
((lp414
I3
aI4
aI5
atp415
Rp416
ag1
((lp417
I2
aI3
aI5
atp418
Rp419
ag1
((lp420
I1
aI4
atp421
Rp422
ag1
((lp423
I2
aI3
aI4
atp424
Rp425
ag1
((lp426
I1
aI2
aI5
atp427
Rp428
ag1
((lp429
I1
aI2
aI6
atp430
Rp431
ag1
((lp432
I2
aI4
aI5
atp433
Rp434
ag1
((lp435
I1
aI2
aI3
atp436
Rp437
atp438
Rp439
I360
sg1
((lp440
g1
((lp441
I3
aI4
aI6
atp442
Rp443
ag1
((lp444
I3
aI4
aI5
atp445
Rp446
ag1
((lp447
I1
aI3
aI6
atp448
Rp449
ag1
((lp450
I1
aI5
atp451
Rp452
ag1
((lp453
I2
aI3
aI4
atp454
Rp455
ag1
((lp456
I4
aI5
aI6
atp457
Rp458
ag1
((lp459
I2
aI4
aI6
atp460
Rp461
ag1
((lp462
I2
aI4
aI5
atp463
Rp464
ag1
((lp465
I3
aI5
aI6
atp466
Rp467
atp468
Rp469
I360
sg1
((lp470
g209
ag212
ag218
ag221
ag1
((lp471
I1
aI2
aI5
atp472
Rp473
ag1
((lp474
I4
aI5
aI6
atp475
Rp476
ag1
((lp477
I2
aI4
aI6
atp478
Rp479
ag1
((lp480
I1
aI5
aI6
atp481
Rp482
ag230
atp483
Rp484
I360
sg1
((lp485
g167
ag1
((lp486
I2
aI3
aI6
atp487
Rp488
ag176
ag1
((lp489
I1
aI3
aI6
atp490
Rp491
ag179
ag299
ag1
((lp492
I1
aI4
aI6
atp493
Rp494
ag302
ag305
atp495
Rp496
I720
sg1
((lp497
g68
ag71
ag1
((lp498
I3
aI4
aI5
atp499
Rp500
ag74
ag1
((lp501
I1
aI2
aI4
atp502
Rp503
ag80
ag143
ag86
ag140
atp504
Rp505
I720
sg1
((lp506
g323
ag1
((lp507
I3
aI4
aI6
atp508
Rp509
ag1
((lp510
I2
aI5
aI6
atp511
Rp512
ag332
ag1
((lp513
I1
aI2
aI5
atp514
Rp515
ag341
ag1
((lp516
I1
aI5
aI6
atp517
Rp518
ag1
((lp519
I1
aI4
aI6
atp520
Rp521
ag347
atp522
Rp523
I360
sg1
((lp524
g1
((lp525
I2
aI3
aI6
atp526
Rp527
ag1
((lp528
I2
aI5
aI6
atp529
Rp530
ag1
((lp531
I3
aI4
aI5
atp532
Rp533
ag1
((lp534
I2
aI3
aI5
atp535
Rp536
ag1
((lp537
I1
aI2
aI5
atp538
Rp539
ag1
((lp540
I1
aI4
aI5
atp541
Rp542
ag1
((lp543
I1
aI6
atp544
Rp545
ag1
((lp546
I2
aI4
aI5
atp547
Rp548
ag1
((lp549
I3
aI5
aI6
atp550
Rp551
atp552
Rp553
I720
sg1
((lp554
g125
ag128
ag101
ag197
ag104
ag200
ag110
ag113
ag119
atp555
Rp556
I720
sg1
((lp557
g1
((lp558
I1
aI3
aI5
atp559
Rp560
ag284
ag1
((lp561
I1
aI3
aI6
atp562
Rp563
ag272
ag1
((lp564
I1
aI2
aI4
atp565
Rp566
ag1
((lp567
I2
aI3
aI5
atp568
Rp569
ag1
((lp570
I2
aI3
aI6
atp571
Rp572
ag278
ag293
atp573
Rp574
I90
sg1
((lp575
g167
ag170
ag176
ag1
((lp576
I2
aI3
aI5
atp577
Rp578
ag179
ag299
ag488
ag302
ag305
atp579
Rp580
I360
sg1
((lp581
g323
ag509
ag344
ag512
ag329
ag332
ag1
((lp582
I4
aI5
aI6
atp583
Rp584
ag338
ag341
atp585
Rp586
I360
sg1
((lp587
g230
ag212
ag218
ag1
((lp588
I2
aI3
aI4
atp589
Rp590
ag473
ag479
ag1
((lp591
I1
aI3
aI4
atp592
Rp593
ag482
ag1
((lp594
I2
aI4
aI5
atp595
Rp596
atp597
Rp598
I720
sg1
((lp599
g1
((lp600
I1
aI4
aI5
atp601
Rp602
ag1
((lp603
I1
aI3
aI5
atp604
Rp605
ag383
ag1
((lp606
I1
aI3
aI6
atp607
Rp608
ag389
ag1
((lp609
I2
aI4
aI6
atp610
Rp611
ag386
ag1
((lp612
I2
aI3
aI6
atp613
Rp614
ag1
((lp615
I1
aI4
aI6
atp616
Rp617
atp618
Rp619
I720
sg1
((lp620
g1
((lp621
I2
aI3
aI6
atp622
Rp623
ag38
ag44
ag47
ag50
ag53
ag314
ag1
((lp624
I1
aI2
aI6
atp625
Rp626
ag1
((lp627
I2
aI4
aI5
atp628
Rp629
atp630
Rp631
I720
sg1
((lp632
g41
ag317
ag44
ag47
ag1
((lp633
I1
aI2
aI5
atp634
Rp635
ag311
ag1
((lp636
I1
aI3
aI4
atp637
Rp638
ag314
ag50
atp639
Rp640
I720
sg1
((lp641
g125
ag1
((lp642
I1
aI2
aI5
atp643
Rp644
ag197
ag104
ag107
ag110
ag203
ag116
ag119
atp645
Rp646
I720
sg1
((lp647
g1
((lp648
I2
aI3
aI6
atp649
Rp650
ag422
ag428
ag1
((lp651
I4
aI5
aI6
atp652
Rp653
ag1
((lp654
I2
aI4
aI6
atp655
Rp656
ag431
ag1
((lp657
I1
aI5
aI6
atp658
Rp659
ag434
ag1
((lp660
I3
aI5
aI6
atp661
Rp662
atp663
Rp664
I180
sg1
((lp665
g1
((lp666
I3
aI4
aI6
atp667
Rp668
ag71
ag137
ag1
((lp669
I1
aI2
aI5
atp670
Rp671
ag503
ag65
ag80
ag83
ag1
((lp672
I1
aI4
aI6
atp673
Rp674
atp675
Rp676
I720
sg1
((lp677
g212
ag218
ag473
ag476
ag479
ag593
ag482
ag230
ag233
atp678
Rp679
I720
sg1
((lp680
g416
ag1
((lp681
I1
aI3
aI6
atp682
Rp683
ag437
ag422
ag425
ag428
ag419
ag431
ag662
atp684
Rp685
I720
sg1
((lp686
g623
ag38
ag41
ag44
ag50
ag56
ag314
ag626
ag629
atp687
Rp688
I720
sg1
((lp689
g668
ag674
ag71
ag671
ag140
ag65
ag80
ag83
ag86
atp690
Rp691
I720
sg1
((lp692
g1
((lp693
I3
aI4
aI6
atp694
Rp695
ag1
((lp696
I1
aI3
aI5
atp697
Rp698
ag536
ag539
ag1
((lp699
I1
aI2
aI4
atp700
Rp701
ag542
ag1
((lp702
I1
aI3
aI4
atp703
Rp704
ag545
ag1
((lp705
I1
aI2
aI3
atp706
Rp707
atp708
Rp709
I360
sg1
((lp710
g1
((lp711
I2
aI3
aI6
atp712
Rp713
ag239
ag242
ag248
ag251
ag254
ag257
ag245
ag263
atp714
Rp715
I720
sg1
((lp716
g152
ag155
ag11
ag158
ag17
ag23
ag1
((lp717
I4
aI5
aI6
atp718
Rp719
ag161
ag29
atp720
Rp721
I720
sg1
((lp722
g1
((lp723
I1
aI3
aI5
atp724
Rp725
ag1
((lp726
I1
aI3
aI6
atp727
Rp728
ag1
((lp729
I1
aI2
aI3
atp730
Rp731
ag359
ag365
ag1
((lp732
I2
aI3
aI5
atp733
Rp734
ag374
ag377
ag1
((lp735
I3
aI5
aI6
atp736
Rp737
atp738
Rp739
I180
sg1
((lp740
g1
((lp741
I1
aI4
aI5
atp742
Rp743
ag560
ag284
ag563
ag272
ag281
ag569
ag287
ag293
atp744
Rp745
I360
sg1
((lp746
g209
ag218
ag590
ag473
ag476
ag479
ag482
ag230
ag233
atp747
Rp748
I720
sg1
((lp749
g149
ag11
ag14
ag158
ag17
ag20
ag23
ag1
((lp750
I1
aI2
aI6
atp751
Rp752
ag29
atp753
Rp754
I360
sg1
((lp755
g617
ag608
ag389
ag1
((lp756
I2
aI3
aI4
atp757
Rp758
ag392
ag386
ag398
ag401
ag404
atp759
Rp760
I180
sg1
((lp761
g188
ag491
ag179
ag299
ag185
ag578
ag1
((lp762
I1
aI3
aI4
atp763
Rp764
ag191
ag305
atp765
Rp766
I360
sg1
((lp767
g209
ag212
ag218
ag221
ag1
((lp768
I1
aI2
aI4
atp769
Rp770
ag230
ag482
ag596
ag233
atp771
Rp772
I720
sg1
((lp773
g413
ag683
ag422
ag428
ag653
ag656
ag431
ag434
ag662
atp774
Rp775
I360
sg1
((lp776
g1
((lp777
I3
aI4
aI6
atp778
Rp779
ag413
ag416
ag683
ag422
ag425
ag656
ag431
ag659
atp780
Rp781
I360
sg1
((lp782
g149
ag1
((lp783
I1
aI3
aI5
atp784
Rp785
ag8
ag14
ag158
ag23
ag752
ag152
ag29
atp786
Rp787
I360
sg1
((lp788
g149
ag8
ag11
ag719
ag17
ag20
ag23
ag752
ag26
atp789
Rp790
I720
sg1
((lp791
g35
ag623
ag41
ag44
ag47
ag635
ag56
ag314
ag629
atp792
Rp793
I720
sg1
((lp794
g167
ag170
ag176
ag491
ag179
ag578
ag191
ag494
ag305
atp795
Rp796
I720
sg1
((lp797
g785
ag155
ag158
ag17
ag23
ag752
ag26
ag152
ag719
atp798
Rp799
I720
sg1
((lp800
g71
ag137
ag140
ag77
ag80
ag83
ag143
ag86
ag89
atp801
Rp802
I360
sg1
((lp803
g167
ag170
ag578
ag179
ag299
ag188
ag488
ag494
ag302
atp804
Rp805
I720
sg1
((lp806
g1
((lp807
I3
aI4
aI6
atp808
Rp809
ag383
ag608
ag389
ag395
ag611
ag386
ag602
ag401
atp810
Rp811
I720
sg1
((lp812
g155
ag8
ag11
ag14
ag158
ag5
ag23
ag161
ag719
atp813
Rp814
I720
sg1
((lp815
g95
ag98
ag128
ag644
ag197
ag110
ag203
ag116
ag101
atp816
Rp817
I720
sg1
((lp818
g1
((lp819
I1
aI3
aI5
atp820
Rp821
ag239
ag1
((lp822
I1
aI3
aI6
atp823
Rp824
ag245
ag1
((lp825
I2
aI3
aI4
atp826
Rp827
ag1
((lp828
I1
aI2
aI5
atp829
Rp830
ag713
ag260
ag263
atp831
Rp832
I360
sg1
((lp833
g1
((lp834
I2
aI5
aI6
atp835
Rp836
ag683
ag422
ag428
ag653
ag419
ag431
ag659
ag437
atp837
Rp838
I720
sg1
((lp839
g149
ag785
ag155
ag8
ag719
ag17
ag23
ag5
ag152
atp840
Rp841
I720
sg1
((lp842
g323
ag509
ag344
ag512
ag335
ag515
ag326
ag1
((lp843
I1
aI2
aI6
atp844
Rp845
ag347
atp846
Rp847
I720
sg1
((lp848
g650
ag836
ag416
ag419
ag437
ag422
ag428
ag431
ag662
atp849
Rp850
I360
sg1
((lp851
g614
ag383
ag608
ag389
ag392
ag611
ag398
ag401
ag617
atp852
Rp853
I360
sg1
((lp854
g698
ag533
ag1
((lp855
I2
aI3
aI4
atp856
Rp857
ag1
((lp858
I4
aI5
aI6
atp859
Rp860
ag1
((lp861
I2
aI4
aI6
atp862
Rp863
ag704
ag545
ag701
ag551
atp864
Rp865
I720
sg1
((lp866
g290
ag569
ag272
ag566
ag284
ag1
((lp867
I1
aI2
aI6
atp868
Rp869
ag278
ag1
((lp870
I2
aI4
aI5
atp871
Rp872
ag293
atp873
Rp874
I720
sg1
((lp875
g167
ag170
ag173
ag179
ag182
ag299
ag185
ag488
ag191
atp876
Rp877
I720
sg1
((lp878
g71
ag500
ag137
ag74
ag671
ag503
ag80
ag143
ag674
atp879
Rp880
I720
sg1
((lp881
g779
ag650
ag416
ag422
ag425
ag656
ag431
ag659
ag434
atp882
Rp883
I720
sg1
((lp884
g785
ag11
ag14
ag158
ag5
ag20
ag23
ag752
ag26
atp885
Rp886
I180
sg1
((lp887
g149
ag152
ag8
ag14
ag719
ag20
ag23
ag26
ag161
atp888
Rp889
I720
sg1
((lp890
g443
ag1
((lp891
I2
aI3
aI5
atp892
Rp893
ag1
((lp894
I1
aI2
aI3
atp895
Rp896
ag452
ag455
ag458
ag461
ag1
((lp897
I1
aI4
aI6
atp898
Rp899
ag467
atp900
Rp901
I720
sg1
((lp902
g809
ag614
ag389
ag392
ag395
ag611
ag398
ag602
ag404
atp903
Rp904
I720
sg1
((lp905
g95
ag98
ag125
ag128
ag131
ag107
ag110
ag203
ag101
atp906
Rp907
I360
sg1
((lp908
g683
ag422
ag425
ag428
ag653
ag656
ag419
ag431
ag662
atp909
Rp910
I180
sg1
((lp911
g1
((lp912
I1
aI3
aI5
atp913
Rp914
ag128
ag131
ag104
ag200
ag110
ag113
ag203
ag101
atp915
Rp916
I720
sg1
((lp917
g224
ag230
ag212
ag218
ag221
ag476
ag479
ag482
ag596
atp918
Rp919
I720
sg1
((lp920
g125
ag128
ag104
ag200
ag107
ag110
ag113
ag203
ag101
atp921
Rp922
I720
sg1
((lp923
g560
ag563
ag272
ag278
ag281
ag284
ag290
ag872
ag293
atp924
Rp925
I720
sg1
((lp926
g1
((lp927
I2
aI5
aI6
atp928
Rp929
ag446
ag893
ag452
ag455
ag1
((lp930
I1
aI2
aI4
atp931
Rp932
ag461
ag1
((lp933
I1
aI3
aI4
atp934
Rp935
ag899
atp936
Rp937
I720
sg1
((lp938
g35
ag314
ag38
ag44
ag50
ag56
ag638
ag626
ag629
atp939
Rp940
I720
sg1
((lp941
g617
ag608
ag389
ag758
ag392
ag611
ag386
ag401
ag404
atp942
Rp943
I720
sg1
((lp944
g167
ag170
ag173
ag491
ag179
ag182
ag188
ag578
ag191
atp945
Rp946
I720
sg1
((lp947
g323
ag509
ag326
ag329
ag1
((lp948
I1
aI3
aI6
atp949
Rp950
ag338
ag845
ag518
ag347
atp951
Rp952
I360
sg1
((lp953
g413
ag416
ag683
ag422
ag653
ag656
ag419
ag431
ag662
atp954
Rp955
I360
sg1
((lp956
g572
ag269
ag284
ag563
ag275
ag569
ag869
ag287
ag290
atp957
Rp958
I720
sg1
((lp959
g353
ag725
ag728
ag359
ag365
ag368
ag734
ag1
((lp960
I4
aI5
aI6
atp961
Rp962
ag731
atp963
Rp964
I720
sg1
((lp965
g149
ag155
ag14
ag719
ag17
ag20
ag23
ag158
ag29
atp966
Rp967
I720
sg1
((lp968
g209
ag218
ag590
ag473
ag770
ag479
ag227
ag482
ag476
atp969
Rp970
I360
sg1
((lp971
g188
ag488
ag176
ag491
ag179
ag185
ag578
ag764
ag302
atp972
Rp973
I720
sg1
((lp974
g173
ag491
ag179
ag182
ag299
ag188
ag578
ag764
ag191
atp975
Rp976
I720
sg1
((lp977
g605
ag383
ag608
ag389
ag395
ag611
ag398
ag614
ag401
atp978
Rp979
I720
sg1
((lp980
g353
ag356
ag359
ag362
ag962
ag374
ag377
ag1
((lp981
I2
aI4
aI5
atp982
Rp983
ag731
atp984
Rp985
I720
sg1
((lp986
g323
ag509
ag326
ag512
ag329
ag950
ag584
ag845
ag347
atp987
Rp988
I720
sg1
((lp989
g743
ag560
ag563
ag272
ag281
ag284
ag572
ag872
ag293
atp990
Rp991
I360
sg1
((lp992
g695
ag530
ag536
ag857
ag539
ag701
ag863
ag704
ag545
atp993
Rp994
I360
sg1
((lp995
g914
ag200
ag197
ag104
ag95
ag110
ag113
ag116
ag119
atp996
Rp997
I720
sg1
((lp998
g779
ag650
ag836
ag683
ag422
ag653
ag656
ag431
ag662
atp999
Rp1000
I360
sg1
((lp1001
g713
ag239
ag242
ag830
ag248
ag254
ag1
((lp1002
I1
aI5
aI6
atp1003
Rp1004
ag260
ag263
atp1005
Rp1006
I180
sg1
((lp1007
g725
ag356
ag728
ag359
ag365
ag371
ag374
ag377
ag731
atp1008
Rp1009
I180
sg1
((lp1010
g35
ag623
ag44
ag635
ag56
ag638
ag626
ag59
ag317
atp1011
Rp1012
I720
sg1
((lp1013
g323
ag344
ag512
ag332
ag335
ag584
ag338
ag341
ag347
atp1014
Rp1015
I720
sg1
((lp1016
g695
ag707
ag539
ag701
ag863
ag545
ag860
ag548
ag551
atp1017
Rp1018
I720
sg1
((lp1019
g572
ag569
ag275
ag566
ag284
ag869
ag287
ag278
ag293
atp1020
Rp1021
I360
sg1
((lp1022
g560
ag563
ag566
ag281
ag284
ag572
ag287
ag872
ag293
atp1023
Rp1024
I360
sg1
((lp1025
g416
ag437
ag422
ag653
ag656
ag431
ag659
ag434
ag662
atp1026
Rp1027
I720
sg1
((lp1028
g443
ag893
ag452
ag932
ag461
ag449
ag1
((lp1029
I1
aI2
aI6
atp1030
Rp1031
ag899
ag896
atp1032
Rp1033
I720
sg1
((lp1034
g167
ag578
ag179
ag299
ag185
ag491
ag188
ag191
ag305
atp1035
Rp1036
I720
sg1
((lp1037
g224
ag230
ag218
ag221
ag590
ag473
ag479
ag593
ag596
atp1038
Rp1039
I720
sg1
((lp1040
g323
ag509
ag326
ag329
ag584
ag338
ag341
ag845
ag347
atp1041
Rp1042
I180
sg1
((lp1043
g323
ag509
ag344
ag332
ag341
ag845
ag518
ag521
ag335
atp1044
Rp1045
I360
sg1
((lp1046
g167
ag170
ag173
ag491
ag179
ag182
ag299
ag494
ag302
atp1047
Rp1048
I720
sg1
((lp1049
g212
ag215
ag218
ag590
ag473
ag770
ag227
ag596
ag476
atp1050
Rp1051
I720
sg1
((lp1052
g668
ag68
ag71
ag74
ag77
ag65
ag80
ag143
ag86
atp1053
Rp1054
I360
sg1
((lp1055
g779
ag413
ag683
ag422
ag425
ag419
ag431
ag659
ag662
atp1056
Rp1057
I720
sg1
((lp1058
g413
ag836
ag683
ag437
ag422
ag656
ag419
ag431
ag662
atp1059
Rp1060
I360
sg1
((lp1061
g779
ag836
ag416
ag419
ag422
ag428
ag656
ag659
ag437
atp1062
Rp1063
I360
sg1
((lp1064
g170
ag179
ag299
ag185
ag764
ag488
ag494
ag191
ag302
atp1065
Rp1066
I720
sg1
((lp1067
g1
((lp1068
I3
aI4
aI6
atp1069
Rp1070
ag1
((lp1071
I2
aI3
aI6
atp1072
Rp1073
ag1
((lp1074
I2
aI4
aI6
atp1075
Rp1076
ag1
((lp1077
I1
aI2
aI4
atp1078
Rp1079
ag1
((lp1080
I1
aI4
aI5
atp1081
Rp1082
ag1
((lp1083
I2
aI5
atp1084
Rp1085
ag1
((lp1086
I1
aI2
aI6
atp1087
Rp1088
ag1
((lp1089
I1
aI5
aI6
atp1090
Rp1091
ag1
((lp1092
I1
aI2
aI3
atp1093
Rp1094
atp1095
Rp1096
I720
sg1
((lp1097
g698
ag530
ag533
ag857
ag701
ag542
ag704
ag545
ag551
atp1098
Rp1099
I720
sg1
((lp1100
g209
ag212
ag215
ag218
ag473
ag770
ag224
ag596
ag476
atp1101
Rp1102
I360
sg1
((lp1103
g1
((lp1104
I2
aI3
aI6
atp1105
Rp1106
ag929
ag446
ag452
ag455
ag932
ag899
ag464
ag458
atp1107
Rp1108
I720
sg1
((lp1109
g35
ag623
ag38
ag41
ag44
ag50
ag56
ag638
ag59
atp1110
Rp1111
I180
sg1
((lp1112
g572
ag284
ag563
ag566
ag569
ag869
ag287
ag290
ag272
atp1113
Rp1114
I720
sg1
((lp1115
g779
ag413
ag836
ag416
ag422
ag653
ag656
ag650
ag437
atp1116
Rp1117
I720
sg1
((lp1118
g899
ag929
ag446
ag893
ag452
ag932
ag461
ag935
ag464
atp1119
Rp1120
I720
sg1
((lp1121
g323
ag326
ag332
ag515
ag338
ag341
ag845
ag521
ag335
atp1122
Rp1123
I360
sg1
((lp1124
g668
ag71
ag137
ag671
ag77
ag65
ag80
ag83
ag89
atp1125
Rp1126
I720
sg1
((lp1127
g809
ag614
ag386
ag389
ag392
ag611
ag602
ag401
ag407
atp1128
Rp1129
I720
sg1
((lp1130
g56
ag38
ag44
ag635
ag53
ag638
ag626
ag59
ag314
atp1131
Rp1132
I720
sg1
((lp1133
g779
ag650
ag416
ag419
ag437
ag422
ag425
ag656
ag662
atp1134
Rp1135
I720
sg1
((lp1136
g95
ag98
ag101
ag131
ag644
ag197
ag110
ag113
ag119
atp1137
Rp1138
I720
sg1
((lp1139
g1
((lp1140
I1
aI3
aI5
atp1141
Rp1142
ag1
((lp1143
I3
aI4
aI5
atp1144
Rp1145
ag1
((lp1146
I1
aI3
aI6
atp1147
Rp1148
ag1094
ag1
((lp1149
I2
aI3
aI4
atp1150
Rp1151
ag1073
ag1085
ag1
((lp1152
I1
aI4
aI6
atp1153
Rp1154
ag1
((lp1155
I3
aI5
aI6
atp1156
Rp1157
atp1158
Rp1159
I180
sg1
((lp1160
g5
ag11
ag158
ag17
ag20
ag23
ag752
ag26
ag719
atp1161
Rp1162
I360
sg1
((lp1163
g230
ag218
ag221
ag590
ag473
ag770
ag227
ag596
ag233
atp1164
Rp1165
I720
sg1
((lp1166
g779
ag413
ag416
ag683
ag422
ag653
ag650
ag431
ag434
atp1167
Rp1168
I720
sg1
((lp1169
g68
ag500
ag137
ag89
ag503
ag65
ag80
ag86
ag140
atp1170
Rp1171
I720
sg1
((lp1172
g713
ag239
ag824
ag830
ag1
((lp1173
I1
aI2
aI4
atp1174
Rp1175
ag242
ag254
ag1004
ag263
atp1176
Rp1177
I720
sg1
((lp1178
g170
ag173
ag176
ag491
ag179
ag188
ag578
ag191
ag494
atp1179
Rp1180
I720
sg1
((lp1181
g725
ag356
ag728
ag359
ag962
ag371
ag374
ag983
ag731
atp1182
Rp1183
I45
sg1
((lp1184
g149
ag785
ag8
ag11
ag20
ag23
ag752
ag26
ag152
atp1185
Rp1186
I720
sg1
((lp1187
g668
ag500
ag137
ag503
ag77
ag80
ag83
ag143
ag89
atp1188
Rp1189
I720
sg1
((lp1190
g602
ag605
ag383
ag608
ag389
ag611
ag614
ag401
ag404
atp1191
Rp1192
I180
sg1
((lp1193
g1073
ag1145
ag1148
ag1079
ag1076
ag1085
ag1088
ag1154
ag1
((lp1194
I4
aI5
aI6
atp1195
Rp1196
atp1197
Rp1198
I720
sg1
((lp1199
g695
ag698
ag530
ag707
ag857
ag860
ag545
ag548
ag551
atp1200
Rp1201
I720
sg1
((lp1202
g785
ag11
ag719
ag17
ag23
ag152
ag752
ag26
ag161
atp1203
Rp1204
I720
sg1
((lp1205
g323
ag344
ag950
ag584
ag338
ag341
ag518
ag521
ag335
atp1206
Rp1207
I720
sg1
((lp1208
g560
ag569
ag272
ag566
ag743
ag284
ag572
ag869
ag293
atp1209
Rp1210
I720
sg1
((lp1211
g167
ag170
ag173
ag176
ag179
ag185
ag488
ag191
ag305
atp1212
Rp1213
I720
sg1
((lp1214
g209
ag212
ag218
ag221
ag590
ag476
ag224
ag230
ag596
atp1215
Rp1216
I720
sg1
((lp1217
g38
ag44
ag47
ag50
ag56
ag638
ag626
ag59
ag629
atp1218
Rp1219
I360
sg1
((lp1220
g215
ag218
ag221
ag476
ag224
ag227
ag482
ag596
ag233
atp1221
Rp1222
I360
sg1
((lp1223
g572
ag269
ag272
ag275
ag566
ag284
ag287
ag290
ag293
atp1224
Rp1225
I720
sg1
((lp1226
g230
ag215
ag218
ag590
ag476
ag593
ag227
ag596
ag233
atp1227
Rp1228
I720
sg1
((lp1229
g1
((lp1230
I3
aI4
aI6
atp1231
Rp1232
ag821
ag824
ag830
ag1175
ag242
ag254
ag245
ag263
atp1233
Rp1234
I720
sg1
((lp1235
g821
ag242
ag245
ag830
ag248
ag1004
ag257
ag260
ag263
atp1236
Rp1237
I720
sg1
((lp1238
g650
ag416
ag683
ag422
ag428
ag653
ag419
ag434
ag437
atp1239
Rp1240
I720
sg1
((lp1241
g779
ag413
ag416
ag683
ag422
ag428
ag656
ag431
ag434
atp1242
Rp1243
I45
sg1
((lp1244
g560
ag269
ag275
ag566
ag281
ag284
ag572
ag278
ag272
atp1245
Rp1246
I360
sg1
((lp1247
g71
ag500
ag74
ag671
ag503
ag80
ag143
ag674
ag140
atp1248
Rp1249
I720
sg1
((lp1250
g650
ag836
ag416
ag419
ag422
ag425
ag428
ag653
ag431
atp1251
Rp1252
I720
sg1
((lp1253
g209
ag212
ag215
ag218
ag473
ag770
ag479
ag482
ag596
atp1254
Rp1255
I720
sg1
((lp1256
g323
ag509
ag332
ag515
ag584
ag338
ag845
ag518
ag521
atp1257
Rp1258
I720
sg1
((lp1259
g224
ag212
ag218
ag221
ag590
ag473
ag479
ag227
ag482
atp1260
Rp1261
I720
sg1
((lp1262
g527
ag530
ag536
ag857
ag539
ag860
ag863
ag545
ag551
atp1263
Rp1264
I720
sg1
((lp1265
g323
ag509
ag326
ag329
ag332
ag515
ag344
ag845
ag335
atp1266
Rp1267
I720
sg1
((lp1268
g668
ag71
ag137
ag74
ag77
ag65
ag80
ag143
ag89
atp1269
Rp1270
I720
sg1
((lp1271
g323
ag326
ag512
ag515
ag584
ag338
ag845
ag518
ag347
atp1272
Rp1273
I360
sg1
((lp1274
g209
ag215
ag218
ag221
ag770
ag479
ag227
ag482
ag476
atp1275
Rp1276
I360
sg1
((lp1277
g173
ag176
ag491
ag179
ag182
ag188
ag764
ag494
ag305
atp1278
Rp1279
I720
sg1
((lp1280
g95
ag98
ag200
ag197
ag107
ag914
ag110
ag116
ag101
atp1281
Rp1282
I720
sg1
((lp1283
g224
ag209
ag215
ag218
ag221
ag473
ag479
ag230
ag596
atp1284
Rp1285
I360
sg1
((lp1286
g98
ag128
ag131
ag644
ag197
ag107
ag110
ag113
ag116
atp1287
Rp1288
I720
sg1
((lp1289
g209
ag212
ag218
ag770
ag224
ag230
ag227
ag596
ag233
atp1290
Rp1291
I720
sg1
((lp1292
g779
ag413
ag416
ag422
ag428
ag653
ag650
ag659
ag434
atp1293
Rp1294
I360
sg1
((lp1295
g743
ag560
ag275
ag278
ag281
ag284
ag869
ag290
ag293
atp1296
Rp1297
I720
sg1
((lp1298
g290
ag284
ag563
ag275
ag278
ag569
ag869
ag872
ag293
atp1299
Rp1300
I180
sg1
((lp1301
g1142
ag1145
ag1151
ag1196
ag1082
ag1073
ag1085
ag1091
ag1094
atp1302
Rp1303
I360
sg1
((lp1304
g560
ag269
ag569
ag293
ag566
ag284
ag869
ag290
ag278
atp1305
Rp1306
I720
sg1
((lp1307
g71
ag500
ag137
ag74
ag140
ag77
ag80
ag86
ag89
atp1308
Rp1309
I360
sg1
((lp1310
g560
ag284
ag563
ag281
ag569
ag572
ag287
ag872
ag293
atp1311
Rp1312
I360
sg1
((lp1313
g188
ag488
ag173
ag179
ag299
ag185
ag764
ag191
ag494
atp1314
Rp1315
I720
sg1
((lp1316
g695
ag527
ag530
ag536
ag857
ag539
ag704
ag545
ag707
atp1317
Rp1318
I180
sg1
((lp1319
g809
ag605
ag383
ag608
ag389
ag758
ag395
ag398
ag614
atp1320
Rp1321
I720
sg1
((lp1322
g809
ag605
ag383
ag386
ag389
ag611
ag602
ag401
ag404
atp1323
Rp1324
I720
sg1
((lp1325
g323
ag509
ag344
ag512
ag329
ag341
ag326
ag845
ag521
atp1326
Rp1327
I720
sg1
((lp1328
g413
ag416
ag683
ag422
ag428
ag653
ag650
ag659
ag662
atp1329
Rp1330
I360
sg1
((lp1331
g650
ag437
ag422
ag425
ag428
ag653
ag413
ag659
ag662
atp1332
Rp1333
I720
sg1
((lp1334
g167
ag176
ag491
ag179
ag299
ag578
ag764
ag494
ag305
atp1335
Rp1336
I360
sg1
((lp1337
g170
ag173
ag179
ag182
ag299
ag185
ag488
ag494
ag305
atp1338
Rp1339
I720
sg1
((lp1340
g560
ag269
ag563
ag275
ag743
ag284
ag572
ag872
ag272
atp1341
Rp1342
I720
sg1
((lp1343
g809
ag614
ag386
ag389
ag611
ag608
ag398
ag404
ag407
atp1344
Rp1345
I720
sg1
((lp1346
g572
ag569
ag272
ag566
ag281
ag284
ag290
ag872
ag293
atp1347
Rp1348
I360
sg1
((lp1349
g128
ag101
ag197
ag104
ag200
ag110
ag203
ag116
ag119
atp1350
Rp1351
I180
sg1
((lp1352
g323
ag509
ag344
ag512
ag329
ag950
ag335
ag341
ag347
atp1353
Rp1354
I720
sg1
((lp1355
g323
ag509
ag326
ag512
ag338
ag845
ag518
ag521
ag335
atp1356
Rp1357
I720
sg1
((lp1358
g623
ag38
ag44
ag635
ag56
ag638
ag626
ag59
ag317
atp1359
Rp1360
I720
sg1
((lp1361
g779
ag650
ag836
ag416
ag422
ag653
ag656
ag434
ag662
atp1362
Rp1363
I360
sg1
((lp1364
g152
ag155
ag8
ag14
ag5
ag23
ag26
ag161
ag29
atp1365
Rp1366
I360
sg1
((lp1367
g527
ag533
ag536
ag857
ag701
ag698
ag545
ag548
ag860
atp1368
Rp1369
I90
sg1
((lp1370
g1070
ag1142
ag1148
ag1151
ag1076
ag1
((lp1371
I1
aI3
aI4
atp1372
Rp1373
ag1085
ag1154
ag1157
atp1374
Rp1375
I720
sg1
((lp1376
g527
ag530
ag533
ag701
ag542
ag698
ag545
ag548
ag551
atp1377
Rp1378
I720
sg1
((lp1379
g1106
ag929
ag446
ag452
ag455
ag935
ag1031
ag464
ag467
atp1380
Rp1381
I360
sg1
((lp1382
g443
ag446
ag896
ag452
ag455
ag932
ag935
ag458
ag467
atp1383
Rp1384
I180
sg1
((lp1385
g698
ag530
ag536
ag539
ag542
ag704
ag527
ag545
ag551
atp1386
Rp1387
I720
sg1
((lp1388
g35
ag623
ag41
ag44
ag311
ag638
ag314
ag59
ag629
atp1389
Rp1390
I720
sg1
((lp1391
g323
ag509
ag344
ag950
ag515
ag584
ag338
ag518
ag521
atp1392
Rp1393
I720
sg1
((lp1394
g713
ag239
ag824
ag245
ag827
ag248
ag257
ag260
ag263
atp1395
Rp1396
I720
sg1
((lp1397
g779
ag836
ag416
ag422
ag425
ag428
ag656
ag431
ag659
atp1398
Rp1399
I360
sg1
((lp1400
g443
ag929
ag446
ag893
ag452
ag455
ag935
ag1031
ag896
atp1401
Rp1402
I360
sg1
((lp1403
g149
ag785
ag155
ag8
ag11
ag14
ag20
ag23
ag752
atp1404
Rp1405
I360
sg1
((lp1406
g413
ag416
ag683
ag437
ag422
ag656
ag650
ag434
ag662
atp1407
Rp1408
I720
sg1
((lp1409
g323
ag509
ag329
ag335
ag584
ag338
ag845
ag518
ag347
atp1410
Rp1411
I720
sg1
((lp1412
g560
ag269
ag569
ag275
ag278
ag281
ag284
ag287
ag290
atp1413
Rp1414
I360
sg1
((lp1415
g1232
ag713
ag239
ag242
ag830
ag251
ag1004
ag245
ag263
atp1416
Rp1417
I360
sg1
((lp1418
g779
ag650
ag836
ag683
ag422
ag425
ag419
ag659
ag662
atp1419
Rp1420
I360
sg1
((lp1421
g821
ag239
ag242
ag245
ag827
ag1175
ag257
ag260
ag263
atp1422
Rp1423
I720
sg1
((lp1424
g725
ag731
ag359
ag362
ag365
ag371
ag374
ag983
ag737
atp1425
Rp1426
I360
sg1
((lp1427
g695
ag527
ag533
ag857
ag860
ag542
ag704
ag545
ag551
atp1428
Rp1429
I720
sg1
((lp1430
g212
ag218
ag473
ag476
ag224
ag593
ag227
ag596
ag233
atp1431
Rp1432
I720
sg1
((lp1433
g527
ag533
ag536
ag857
ag539
ag701
ag542
ag545
ag551
atp1434
Rp1435
I360
sg1
((lp1436
g785
ag155
ag14
ag158
ag20
ag23
ag752
ag161
ag29
atp1437
Rp1438
I360
sg1
((lp1439
g323
ag326
ag950
ag515
ag332
ag341
ag845
ag521
ag335
atp1440
Rp1441
I720
sg1
((lp1442
g152
ag11
ag14
ag17
ag20
ag23
ag752
ag26
ag161
atp1443
Rp1444
I720
sg1
((lp1445
g1070
ag1142
ag1145
ag1151
ag1196
ag1373
ag1085
ag1088
ag1091
atp1446
Rp1447
I360
sg1
((lp1448
g209
ag215
ag218
ag221
ag770
ag479
ag482
ag476
ag233
atp1449
Rp1450
I720
sg1
((lp1451
g914
ag98
ag125
ag128
ag644
ag107
ag110
ag113
ag116
atp1452
Rp1453
I360
sg1
((lp1454
g35
ag623
ag38
ag44
ag47
ag50
ag56
ag626
ag314
atp1455
Rp1456
I720
sg1
((lp1457
g668
ag500
ag74
ag671
ag140
ag65
ag80
ag503
ag89
atp1458
Rp1459
I720
sg1
((lp1460
g785
ag155
ag158
ag17
ag23
ag752
ag26
ag161
ag719
atp1461
Rp1462
I720
sg1
((lp1463
g914
ag98
ag125
ag128
ag644
ag200
ag110
ag116
ag119
atp1464
Rp1465
I720
sg1
((lp1466
g821
ag242
ag827
ag1175
ag248
ag251
ag257
ag245
ag263
atp1467
Rp1468
I360
sg1
((lp1469
g572
ag269
ag272
ag275
ag284
ag560
ag869
ag287
ag293
atp1470
Rp1471
I90
sg1
((lp1472
g602
ag608
ag389
ag758
ag611
ag386
ag398
ag401
ag407
atp1473
Rp1474
I720
sg1
((lp1475
g779
ag650
ag836
ag422
ag425
ag653
ag431
ag659
ag662
atp1476
Rp1477
I720
sg1
((lp1478
g809
ag605
ag608
ag389
ag758
ag602
ag386
ag398
ag617
atp1479
Rp1480
I720
sg1
((lp1481
g623
ag38
ag44
ag47
ag50
ag638
ag626
ag314
ag317
atp1482
Rp1483
I720
sg1
((lp1484
g95
ag98
ag200
ag644
ag197
ag110
ag113
ag203
ag116
atp1485
Rp1486
I720
sg1
((lp1487
g488
ag491
ag179
ag188
ag578
ag764
ag191
ag494
ag305
atp1488
Rp1489
I720
sg1
((lp1490
g68
ag137
ag503
ag674
ag80
ag83
ag143
ag86
ag89
atp1491
Rp1492
I720
sg1
((lp1493
g572
ag284
ag563
ag272
ag278
ag569
ag290
ag872
ag293
atp1494
Rp1495
I720
sg1
((lp1496
g809
ag605
ag608
ag389
ag758
ag392
ag386
ag614
ag401
atp1497
Rp1498
I720
sg1
((lp1499
g1070
ag1148
ag1094
ag1079
ag1373
ag1085
ag1088
ag1196
ag1157
atp1500
Rp1501
I720
sg1
((lp1502
g35
ag623
ag41
ag44
ag47
ag50
ag638
ag59
ag314
atp1503
Rp1504
I720
sg1
((lp1505
g674
ag71
ag137
ag74
ag671
ag80
ag83
ag143
ag86
atp1506
Rp1507
I720
sg1
((lp1508
g821
ag239
ag824
ag830
ag242
ag1004
ag257
ag260
ag263
atp1509
Rp1510
I360
sg1
((lp1511
g167
ag173
ag176
ag179
ag299
ag188
ag764
ag191
ag302
atp1512
Rp1513
I720
sg1
((lp1514
g323
ag344
ag950
ag584
ag338
ag332
ag845
ag518
ag521
atp1515
Rp1516
I720
sg1
((lp1517
g527
ag533
ag707
ag863
ag704
ag698
ag545
ag548
ag551
atp1518
Rp1519
I720
sg1
((lp1520
g215
ag218
ag590
ag473
ag770
ag593
ag227
ag482
ag230
atp1521
Rp1522
I720
sg1
((lp1523
g1142
ag1148
ag1094
ag1079
ag1076
ag1073
ag1085
ag1091
ag1157
atp1524
Rp1525
I360
sg1
((lp1526
g779
ag650
ag416
ag419
ag437
ag422
ag428
ag653
ag662
atp1527
Rp1528
I720
sg1
((lp1529
g65
ag68
ag71
ag137
ag74
ag140
ag77
ag80
ag89
atp1530
Rp1531
I720
sg1
((lp1532
g872
ag269
ag272
ag278
ag743
ag284
ag287
ag566
ag293
atp1533
Rp1534
I360
sg1
((lp1535
g149
ag785
ag14
ag158
ag17
ag23
ag752
ag26
ag29
atp1536
Rp1537
I720
sg1
((lp1538
g785
ag155
ag11
ag14
ag158
ag17
ag20
ag23
ag752
atp1539
Rp1540
I360
sg1
((lp1541
g695
ag698
ag533
ag536
ag857
ag701
ag545
ag548
ag860
atp1542
Rp1543
I360
sg1
((lp1544
g560
ag269
ag569
ag278
ag284
ag869
ag287
ag872
ag272
atp1545
Rp1546
I720
sg1
((lp1547
g224
ag209
ag212
ag215
ag218
ag590
ag479
ag593
ag230
atp1548
Rp1549
I720
sg1
((lp1550
g695
ag698
ag530
ag533
ag860
ag542
ag704
ag545
ag548
atp1551
Rp1552
I720
sg1
((lp1553
g149
ag155
ag8
ag719
ag5
ag23
ag752
ag161
ag29
atp1554
Rp1555
I720
sg1
((lp1556
g614
ag389
ag392
ag395
ag602
ag398
ag605
ag617
ag407
atp1557
Rp1558
I360
sg1
((lp1559
g1232
ag239
ag242
ag251
ag254
ag1004
ag257
ag260
ag263
atp1560
Rp1561
I720
sg1
((lp1562
g212
ag218
ag221
ag473
ag476
ag224
ag227
ag482
ag233
atp1563
Rp1564
I720
sg1
((lp1565
g68
ag71
ag137
ag74
ag140
ag65
ag80
ag674
ag89
atp1566
Rp1567
I360
sg1
((lp1568
g779
ag419
ag422
ag425
ag428
ag653
ag659
ag434
ag662
atp1569
Rp1570
I360
sg1
((lp1571
g68
ag137
ag74
ag77
ag674
ag80
ag83
ag86
ag89
atp1572
Rp1573
I720
sg1
((lp1574
g695
ag698
ag530
ag857
ag539
ag860
ag863
ag704
ag545
atp1575
Rp1576
I720
sg1
((lp1577
g650
ag836
ag419
ag437
ag422
ag428
ag431
ag434
ag662
atp1578
Rp1579
I360
sg1
((lp1580
g572
ag269
ag569
ag275
ag566
ag284
ag290
ag287
ag872
atp1581
Rp1582
I720
sg1
((lp1583
g824
ag827
ag1175
ag251
ag254
ag1004
ag257
ag245
ag263
atp1584
Rp1585
I360
sg1
((lp1586
g821
ag242
ag827
ag830
ag248
ag251
ag257
ag260
ag263
atp1587
Rp1588
I360
sg1
((lp1589
g149
ag785
ag155
ag8
ag14
ag17
ag23
ag152
ag161
atp1590
Rp1591
I720
sg1
((lp1592
g695
ag551
ag857
ag701
ag542
ag704
ag545
ag548
ag860
atp1593
Rp1594
I360
sg1
((lp1595
g914
ag128
ag101
ag131
ag197
ag110
ag203
ag116
ag119
atp1596
Rp1597
I360
sg1
((lp1598
g323
ag509
ag344
ag950
ag515
ag338
ag341
ag521
ag347
atp1599
Rp1600
I360
sg1
((lp1601
g1070
ag1142
ag1145
ag1148
ag1196
ag1085
ag1088
ag1091
ag1154
atp1602
Rp1603
I720
sg1
((lp1604
g167
ag488
ag176
ag491
ag179
ag182
ag299
ag185
ag188
atp1605
Rp1606
I360
sg1
((lp1607
g1070
ag1142
ag1151
ag1079
ag1073
ag1085
ag1088
ag1154
ag1094
atp1608
Rp1609
I180
sg1
((lp1610
g38
ag41
ag317
ag44
ag47
ag311
ag53
ag314
ag50
atp1611
Rp1612
I720
sg1
((lp1613
g209
ag212
ag218
ag221
ag473
ag479
ag230
ag482
ag596
atp1614
Rp1615
I720
sg1
((lp1616
g668
ag68
ag137
ag671
ag140
ag65
ag674
ag80
ag86
atp1617
Rp1618
I360
sg1
((lp1619
g1070
ag1142
ag1076
ag1082
ag1148
ag1373
ag1073
ag1085
ag1154
atp1620
Rp1621
I180
sg1
((lp1622
g698
ag530
ag536
ag539
ag860
ag863
ag704
ag545
ag707
atp1623
Rp1624
I360
sg1
((lp1625
g353
ag725
ag728
ag359
ag362
ag371
ag734
ag377
ag731
atp1626
Rp1627
I720
sg1
((lp1628
g353
ag725
ag356
ag359
ag362
ag365
ag962
ag371
ag731
atp1629
Rp1630
I720
sg1
((lp1631
g695
ag527
ag533
ag857
ag539
ag701
ag704
ag545
ag551
atp1632
Rp1633
I720
sg1
((lp1634
g167
ag170
ag179
ag182
ag188
ag764
ag488
ag302
ag305
atp1635
Rp1636
I720
sg1
((lp1637
g695
ag698
ag533
ag857
ag701
ag704
ag527
ag545
ag860
atp1638
Rp1639
I180
sg1
((lp1640
g35
ag38
ag44
ag47
ag50
ag53
ag638
ag626
ag314
atp1641
Rp1642
I720
sg1
((lp1643
g230
ag212
ag218
ag221
ag473
ag224
ag227
ag596
ag233
atp1644
Rp1645
I720
sg1
((lp1646
g1070
ag1073
ag1145
ag1094
ag1079
ag1373
ag1085
ag1196
ag1157
atp1647
Rp1648
I720
sg1
((lp1649
g188
ag170
ag176
ag179
ag182
ag185
ag764
ag302
ag305
atp1650
Rp1651
I360
sg1
((lp1652
g290
ag269
ag278
ag743
ag284
ag869
ag287
ag872
ag293
atp1653
Rp1654
I720
sg1
((lp1655
g209
ag215
ag218
ag221
ag590
ag473
ag770
ag593
ag227
atp1656
Rp1657
I180
sg1
((lp1658
g698
ag533
ag536
ag539
ag863
ag704
ag527
ag545
ag551
atp1659
Rp1660
I720
sg1
((lp1661
g413
ag836
ag416
ag419
ag422
ag428
ag653
ag656
ag659
atp1662
Rp1663
I720
sg1
((lp1664
g35
ag623
ag44
ag311
ag53
ag638
ag59
ag314
ag50
atp1665
Rp1666
I720
sg1
((lp1667
g623
ag44
ag311
ag53
ag638
ag626
ag59
ag314
ag317
atp1668
Rp1669
I720
sg1
((lp1670
g1232
ag821
ag239
ag824
ag830
ag248
ag251
ag245
ag263
atp1671
Rp1672
I360
sg1
((lp1673
g68
ag71
ag500
ag137
ag503
ag77
ag80
ag86
ag89
atp1674
Rp1675
I720
sg1
((lp1676
g695
ag527
ag533
ag857
ag701
ag704
ag545
ag860
ag551
atp1677
Rp1678
I720
sg1
((lp1679
g1232
ag821
ag824
ag1175
ag248
ag713
ag257
ag245
ag263
atp1680
Rp1681
I720
sg1
((lp1682
g668
ag71
ag74
ag671
ag503
ag77
ag80
ag674
ag89
atp1683
Rp1684
I360
sg1
((lp1685
g821
ag239
ag824
ag830
ag242
ag254
ag1004
ag260
ag263
atp1686
Rp1687
I180
sg1
((lp1688
g413
ag836
ag437
ag422
ag428
ag650
ag659
ag434
ag662
atp1689
Rp1690
I720
sg1
((lp1691
g413
ag683
ag422
ag425
ag428
ag653
ag419
ag659
ag437
atp1692
Rp1693
I720
sg1
((lp1694
g914
ag98
ag125
ag644
ag197
ag107
ag95
ag110
ag101
atp1695
Rp1696
I720
sg1
((lp1697
g605
ag383
ag389
ag758
ag392
ag611
ag398
ag614
ag407
atp1698
Rp1699
I720
sg1
((lp1700
g560
ag284
ag563
ag566
ag569
ag572
ag290
ag872
ag278
atp1701
Rp1702
I90
sg1
((lp1703
g128
ag101
ag644
ag104
ag107
ag110
ag113
ag203
ag119
atp1704
Rp1705
I360
sg1
((lp1706
g170
ag176
ag491
ag179
ag182
ag299
ag494
ag191
ag302
atp1707
Rp1708
I720
sg1
((lp1709
g353
ag725
ag728
ag731
ag359
ag365
ag368
ag374
ag737
atp1710
Rp1711
I180
sg1
((lp1712
g167
ag170
ag176
ag491
ag179
ag299
ag764
ag191
ag494
atp1713
Rp1714
I360
sg1
((lp1715
g536
ag707
ag857
ag701
ag542
ag704
ag545
ag860
ag551
atp1716
Rp1717
I720
sg1
((lp1718
g413
ag437
ag422
ag428
ag656
ag650
ag431
ag434
ag662
atp1719
Rp1720
I720
sg1
((lp1721
g419
ag437
ag422
ag425
ag428
ag653
ag431
ag434
ag662
atp1722
Rp1723
I720
sg1
((lp1724
g725
ag356
ag728
ag731
ag359
ag362
ag374
ag1
((lp1725
I1
aI4
aI6
atp1726
Rp1727
ag737
atp1728
Rp1729
I720
sg1
((lp1730
g914
ag125
ag200
ag644
ag197
ag107
ag110
ag203
ag119
atp1731
Rp1732
I720
sg1
((lp1733
g914
ag98
ag125
ag128
ag131
ag644
ag104
ag95
ag110
atp1734
Rp1735
I720
sg1
((lp1736
g323
ag512
ag329
ag332
ag515
ag584
ag518
ag521
ag335
atp1737
Rp1738
I720
sg1
((lp1739
g1232
ag821
ag242
ag248
ag824
ag251
ag1004
ag260
ag263
atp1740
Rp1741
I720
sg1
((lp1742
g413
ag836
ag419
ag437
ag422
ag428
ag656
ag434
ag662
atp1743
Rp1744
I720
sg1
((lp1745
g209
ag212
ag215
ag218
ag221
ag590
ag593
ag227
ag233
atp1746
Rp1747
I360
sg1
((lp1748
g809
ag605
ag608
ag389
ag395
ag386
ag398
ag617
ag404
atp1749
Rp1750
I720
sg1
((lp1751
g785
ag11
ag719
ag5
ag20
ag23
ag752
ag161
ag29
atp1752
Rp1753
I720
sg1
((lp1754
g356
ag728
ag359
ag365
ag962
ag371
ag734
ag377
ag983
atp1755
Rp1756
I720
sg1
((lp1757
g560
ag269
ag569
ag275
ag566
ag281
ag284
ag572
ag272
atp1758
Rp1759
I720
sg1
((lp1760
g809
ag614
ag383
ag389
ag395
ag611
ag617
ag602
ag404
atp1761
Rp1762
I720
sg1
((lp1763
g353
ag725
ag734
ag359
ag362
ag365
ag368
ag374
ag1727
atp1764
Rp1765
I360
sg1
((lp1766
g914
ag98
ag131
ag644
ag104
ag107
ag110
ag113
ag116
atp1767
Rp1768
I720
s.