(dp0
c__builtin__
frozenset
p1
((lp2
g1
((lp3
I2
aI4
atp4
Rp5
ag1
((lp6
I2
aI6
atp7
Rp8
ag1
((lp9
I1
aI4
atp10
Rp11
ag1
((lp12
I3
aI5
atp13
Rp14
ag1
((lp15
I3
aI4
atp16
Rp17
ag1
((lp18
I2
aI3
atp19
Rp20
ag1
((lp21
I4
aI6
atp22
Rp23
ag1
((lp24
I2
aI5
atp25
Rp26
ag1
((lp27
I1
aI3
atp28
Rp29
ag1
((lp30
I4
aI5
atp31
Rp32
ag1
((lp33
I1
aI6
atp34
Rp35
atp36
Rp37
I360
sg1
((lp38
g5
ag1
((lp39
I3
aI6
atp40
Rp41
ag1
((lp42
I1
aI2
atp43
Rp44
ag1
((lp45
I1
aI5
atp46
Rp47
ag11
ag14
ag23
ag35
ag1
((lp48
I5
aI6
atp49
Rp50
ag8
ag32
atp51
Rp52
I360
sg1
((lp53
g5
ag41
ag44
ag8
ag14
ag17
ag20
ag35
ag50
ag29
ag26
atp54
Rp55
I180
sg1
((lp56
g50
ag47
ag14
ag17
ag20
ag23
ag26
ag29
ag32
ag8
ag35
atp57
Rp58
I60
sg1
((lp59
g41
ag44
ag47
ag11
ag14
ag17
ag20
ag23
ag35
ag29
ag26
atp60
Rp61
I45
sg1
((lp62
g41
ag44
ag8
ag11
ag14
ag17
ag23
ag26
ag29
ag32
ag35
atp63
Rp64
I90
sg1
((lp65
g5
ag44
ag47
ag11
ag14
ag17
ag20
ag23
ag26
ag29
ag32
atp66
Rp67
I30
sg1
((lp68
g5
ag41
ag44
ag47
ag20
ag23
ag26
ag50
ag29
ag32
ag35
atp69
Rp70
I180
sg1
((lp71
g50
ag47
ag11
ag14
ag17
ag20
ag23
ag35
ag29
ag8
ag32
atp72
Rp73
I60
s.