(dp0
c__builtin__
frozenset
p1
((lp2
g1
((lp3
I2
aI4
atp4
Rp5
ag1
((lp6
I3
aI4
aI6
atp7
Rp8
ag1
((lp9
I1
aI3
aI5
atp10
Rp11
ag1
((lp12
I3
aI4
aI5
atp13
Rp14
ag1
((lp15
I1
aI3
aI6
atp16
Rp17
ag1
((lp18
I1
aI2
aI3
atp19
Rp20
ag1
((lp21
I2
aI6
atp22
Rp23
ag1
((lp24
I1
aI2
aI5
atp25
Rp26
ag1
((lp27
I4
aI5
aI6
atp28
Rp29
ag1
((lp30
I1
aI4
aI5
atp31
Rp32
ag1
((lp33
I2
aI3
aI5
atp34
Rp35
ag1
((lp36
I1
aI3
aI4
atp37
Rp38
ag1
((lp39
I1
aI4
aI6
atp40
Rp41
ag1
((lp42
I3
aI5
aI6
atp43
Rp44
atp45
Rp46
I360
sg1
((lp47
g1
((lp48
I3
aI4
aI6
atp49
Rp50
ag1
((lp51
I2
aI3
aI6
atp52
Rp53
ag1
((lp54
I2
aI5
aI6
atp55
Rp56
ag1
((lp57
I1
aI3
aI6
atp58
Rp59
ag1
((lp60
I1
aI2
aI3
atp61
Rp62
ag1
((lp63
I1
aI5
atp64
Rp65
ag1
((lp66
I2
aI3
aI4
atp67
Rp68
ag1
((lp69
I1
aI2
aI4
atp70
Rp71
ag1
((lp72
I2
aI4
aI6
atp73
Rp74
ag1
((lp75
I2
aI3
aI5
atp76
Rp77
ag1
((lp78
I1
aI2
aI6
atp79
Rp80
ag1
((lp81
I1
aI4
aI6
atp82
Rp83
ag1
((lp84
I3
aI5
aI6
atp85
Rp86
ag1
((lp87
I4
aI5
atp88
Rp89
atp90
Rp91
I180
sg1
((lp92
g1
((lp93
I3
aI4
aI6
atp94
Rp95
ag1
((lp96
I1
aI3
aI5
atp97
Rp98
ag1
((lp99
I1
aI3
aI6
atp100
Rp101
ag1
((lp102
I1
aI2
aI3
atp103
Rp104
ag23
ag1
((lp105
I2
aI3
aI4
atp106
Rp107
ag1
((lp108
I1
aI2
aI5
atp109
Rp110
ag1
((lp111
I1
aI2
aI4
atp112
Rp113
ag1
((lp114
I2
aI3
aI5
atp115
Rp116
ag1
((lp117
I1
aI3
aI4
atp118
Rp119
ag1
((lp120
I1
aI5
aI6
atp121
Rp122
ag1
((lp123
I1
aI4
aI6
atp124
Rp125
ag1
((lp126
I3
aI5
aI6
atp127
Rp128
ag89
atp129
Rp130
I45
sg1
((lp131
g1
((lp132
I3
aI4
aI6
atp133
Rp134
ag1
((lp135
I2
aI3
aI6
atp136
Rp137
ag1
((lp138
I2
aI5
aI6
atp139
Rp140
ag1
((lp141
I3
aI4
aI5
atp142
Rp143
ag1
((lp144
I1
aI3
aI6
atp145
Rp146
ag1
((lp147
I1
aI2
atp148
Rp149
ag65
ag1
((lp150
I2
aI3
aI4
atp151
Rp152
ag1
((lp153
I4
aI5
aI6
atp154
Rp155
ag1
((lp156
I2
aI4
aI6
atp157
Rp158
ag1
((lp159
I2
aI3
aI5
atp160
Rp161
ag1
((lp162
I1
aI4
aI6
atp163
Rp164
ag1
((lp165
I2
aI4
aI5
atp166
Rp167
ag1
((lp168
I3
aI5
aI6
atp169
Rp170
atp171
Rp172
I180
sg1
((lp173
g5
ag1
((lp174
I3
aI4
aI6
atp175
Rp176
ag1
((lp177
I1
aI3
aI5
atp178
Rp179
ag1
((lp180
I2
aI5
aI6
atp181
Rp182
ag1
((lp183
I3
aI4
aI5
atp184
Rp185
ag1
((lp186
I1
aI3
aI6
atp187
Rp188
ag149
ag1
((lp189
I4
aI5
aI6
atp190
Rp191
ag1
((lp192
I1
aI4
aI5
atp193
Rp194
ag1
((lp195
I2
aI3
aI5
atp196
Rp197
ag1
((lp198
I1
aI3
aI4
atp199
Rp200
ag1
((lp201
I2
aI3
aI6
atp202
Rp203
ag1
((lp204
I1
aI5
aI6
atp205
Rp206
ag1
((lp207
I1
aI4
aI6
atp208
Rp209
atp210
Rp211
I60
s.