(dp0
c__builtin__
frozenset
p1
((lp2
g1
((lp3
I2
aI3
aI6
atp4
Rp5
ag1
((lp6
I1
aI2
aI4
atp7
Rp8
ag1
((lp9
I1
aI3
atp10
Rp11
ag1
((lp12
I1
aI5
aI6
atp13
Rp14
ag1
((lp15
I1
aI4
aI6
atp16
Rp17
ag1
((lp18
I4
aI5
atp19
Rp20
atp21
Rp22
I720
sg1
((lp23
g1
((lp24
I3
aI6
atp25
Rp26
ag1
((lp27
I2
aI3
aI5
atp28
Rp29
ag1
((lp30
I1
aI2
aI5
atp31
Rp32
ag1
((lp33
I2
aI4
aI6
atp34
Rp35
ag1
((lp36
I1
aI6
atp37
Rp38
ag1
((lp39
I2
aI4
aI5
atp40
Rp41
atp42
Rp43
I360
sg1
((lp44
g1
((lp45
I3
aI4
aI5
atp46
Rp47
ag1
((lp48
I2
aI3
aI5
atp49
Rp50
ag1
((lp51
I5
aI6
atp52
Rp53
ag11
ag1
((lp54
I1
aI2
aI6
atp55
Rp56
ag1
((lp57
I2
aI4
aI5
atp58
Rp59
atp60
Rp61
I720
sg1
((lp62
g1
((lp63
I2
aI3
aI6
atp64
Rp65
ag1
((lp66
I2
aI3
aI5
atp67
Rp68
ag1
((lp69
I1
aI2
atp70
Rp71
ag1
((lp72
I1
aI5
atp73
Rp74
ag1
((lp75
I2
aI3
aI4
atp76
Rp77
ag1
((lp78
I1
aI4
aI6
atp79
Rp80
atp81
Rp82
I360
sg1
((lp83
g26
ag1
((lp84
I2
aI3
aI4
atp85
Rp86
ag1
((lp87
I4
aI5
aI6
atp88
Rp89
ag1
((lp90
I2
aI4
aI6
atp91
Rp92
ag1
((lp93
I2
aI5
atp94
Rp95
ag1
((lp96
I1
aI2
aI4
atp97
Rp98
atp99
Rp100
I720
sg1
((lp101
g1
((lp102
I1
aI3
aI5
atp103
Rp104
ag1
((lp105
I3
aI4
aI5
atp106
Rp107
ag26
ag1
((lp108
I1
aI4
atp109
Rp110
ag1
((lp111
I1
aI2
aI5
atp112
Rp113
ag1
((lp114
I2
aI4
aI5
atp115
Rp116
atp117
Rp118
I360
sg1
((lp119
g1
((lp120
I2
aI3
aI5
atp121
Rp122
ag1
((lp123
I2
aI4
aI6
atp124
Rp125
ag1
((lp126
I3
aI4
atp127
Rp128
ag38
ag1
((lp129
I2
aI4
aI5
atp130
Rp131
ag1
((lp132
I3
aI5
aI6
atp133
Rp134
atp135
Rp136
I360
sg1
((lp137
g1
((lp138
I2
aI5
aI6
atp139
Rp140
ag26
ag1
((lp141
I3
aI5
atp142
Rp143
ag1
((lp144
I1
aI2
aI5
atp145
Rp146
ag1
((lp147
I4
aI5
aI6
atp148
Rp149
ag1
((lp150
I1
aI4
aI6
atp151
Rp152
atp153
Rp154
I360
sg1
((lp155
g1
((lp156
I2
aI5
aI6
atp157
Rp158
ag1
((lp159
I1
aI2
aI5
atp160
Rp161
ag1
((lp162
I4
aI5
aI6
atp163
Rp164
ag128
ag1
((lp165
I2
aI3
atp166
Rp167
ag1
((lp168
I1
aI4
aI6
atp169
Rp170
atp171
Rp172
I360
sg1
((lp173
g1
((lp174
I2
aI5
aI6
atp175
Rp176
ag1
((lp177
I1
aI3
aI6
atp178
Rp179
ag74
ag1
((lp180
I2
aI3
aI4
atp181
Rp182
ag1
((lp183
I1
aI4
aI6
atp184
Rp185
ag20
atp186
Rp187
I720
sg1
((lp188
g1
((lp189
I2
aI3
aI5
atp190
Rp191
ag1
((lp192
I1
aI2
aI4
atp193
Rp194
ag1
((lp195
I1
aI3
aI4
atp196
Rp197
ag1
((lp198
I4
aI6
atp199
Rp200
ag38
ag1
((lp201
I3
aI5
aI6
atp202
Rp203
atp204
Rp205
I360
sg1
((lp206
g1
((lp207
I3
aI4
aI5
atp208
Rp209
ag1
((lp210
I2
aI3
aI4
atp211
Rp212
ag1
((lp213
I1
aI2
aI4
atp214
Rp215
ag1
((lp216
I1
aI4
aI5
atp217
Rp218
ag38
ag11
atp219
Rp220
I360
sg1
((lp221
g1
((lp222
I3
aI4
aI6
atp223
Rp224
ag1
((lp225
I2
aI3
aI6
atp226
Rp227
ag110
ag143
ag1
((lp228
I1
aI2
aI5
atp229
Rp230
ag1
((lp231
I1
aI2
aI6
atp232
Rp233
atp234
Rp235
I360
sg1
((lp236
g1
((lp237
I1
aI3
aI5
atp238
Rp239
ag26
ag1
((lp240
I2
aI6
atp241
Rp242
ag1
((lp243
I2
aI3
aI4
atp244
Rp245
ag1
((lp246
I1
aI3
aI4
atp247
Rp248
ag1
((lp249
I1
aI4
aI6
atp250
Rp251
atp252
Rp253
I720
sg1
((lp254
g1
((lp255
I1
aI3
aI5
atp256
Rp257
ag1
((lp258
I2
aI3
aI5
atp259
Rp260
ag53
ag1
((lp261
I1
aI3
aI6
atp262
Rp263
ag71
ag1
((lp264
I2
aI4
aI5
atp265
Rp266
atp267
Rp268
I720
sg1
((lp269
g1
((lp270
I2
aI5
aI6
atp271
Rp272
ag26
ag1
((lp273
I1
aI4
aI5
atp274
Rp275
ag11
ag1
((lp276
I1
aI5
aI6
atp277
Rp278
ag1
((lp279
I1
aI4
aI6
atp280
Rp281
atp282
Rp283
I720
sg1
((lp284
g71
ag1
((lp285
I2
aI3
aI4
atp286
Rp287
ag1
((lp288
I4
aI5
aI6
atp289
Rp290
ag1
((lp291
I2
aI4
aI6
atp292
Rp293
ag38
ag1
((lp294
I2
aI4
aI5
atp295
Rp296
atp297
Rp298
I720
sg1
((lp299
g1
((lp300
I2
aI4
aI5
atp301
Rp302
ag71
ag1
((lp303
I4
aI5
aI6
atp304
Rp305
ag1
((lp306
I2
aI4
aI6
atp307
Rp308
ag11
ag1
((lp309
I1
aI4
aI6
atp310
Rp311
atp312
Rp313
I720
sg1
((lp314
g1
((lp315
I2
aI3
aI6
atp316
Rp317
ag1
((lp318
I2
aI3
aI5
atp319
Rp320
ag110
ag128
ag1
((lp321
I1
aI5
aI6
atp322
Rp323
ag1
((lp324
I3
aI5
aI6
atp325
Rp326
atp327
Rp328
I360
sg1
((lp329
g1
((lp330
I2
aI4
atp331
Rp332
ag1
((lp333
I3
aI4
aI6
atp334
Rp335
ag1
((lp336
I2
aI3
aI5
atp337
Rp338
ag71
ag1
((lp339
I4
aI5
aI6
atp340
Rp341
ag1
((lp342
I1
aI5
aI6
atp343
Rp344
atp345
Rp346
I720
sg1
((lp347
g332
ag1
((lp348
I3
aI4
aI6
atp349
Rp350
ag1
((lp351
I1
aI3
aI5
atp352
Rp353
ag53
ag1
((lp354
I1
aI3
aI4
atp355
Rp356
ag1
((lp357
I1
aI4
aI6
atp358
Rp359
atp360
Rp361
I360
sg1
((lp362
g1
((lp363
I3
aI4
aI5
atp364
Rp365
ag74
ag1
((lp366
I2
aI4
aI6
atp367
Rp368
ag167
ag1
((lp369
I1
aI4
aI6
atp370
Rp371
ag1
((lp372
I3
aI5
aI6
atp373
Rp374
atp375
Rp376
I180
sg1
((lp377
g1
((lp378
I3
aI4
aI5
atp379
Rp380
ag1
((lp381
I2
aI3
aI4
atp382
Rp383
ag194
ag197
ag200
ag38
atp384
Rp385
I720
sg1
((lp386
g332
ag1
((lp387
I1
aI3
aI5
atp388
Rp389
ag1
((lp390
I3
aI4
aI5
atp391
Rp392
ag1
((lp393
I1
aI3
aI6
atp394
Rp395
ag95
ag1
((lp396
I1
aI2
aI6
atp397
Rp398
atp399
Rp400
I720
sg1
((lp401
g74
ag1
((lp402
I2
aI3
aI4
atp403
Rp404
ag1
((lp405
I1
aI2
aI4
atp406
Rp407
ag1
((lp408
I1
aI3
aI4
atp409
Rp410
ag38
ag1
((lp411
I4
aI5
aI6
atp412
Rp413
atp414
Rp415
I180
sg1
((lp416
g1
((lp417
I3
aI4
aI5
atp418
Rp419
ag53
ag1
((lp420
I1
aI2
aI5
atp421
Rp422
ag1
((lp423
I1
aI3
aI4
atp424
Rp425
ag200
ag1
((lp426
I1
aI2
aI3
atp427
Rp428
atp429
Rp430
I720
sg1
((lp431
g332
ag1
((lp432
I2
aI5
aI6
atp433
Rp434
ag1
((lp435
I2
aI3
aI5
atp436
Rp437
ag74
ag1
((lp438
I4
aI5
aI6
atp439
Rp440
ag1
((lp441
I1
aI2
aI6
atp442
Rp443
atp444
Rp445
I360
sg1
((lp446
g272
ag1
((lp447
I3
aI4
aI5
atp448
Rp449
ag26
ag275
ag11
ag281
atp450
Rp451
I720
sg1
((lp452
g1
((lp453
I3
aI4
aI6
atp454
Rp455
ag1
((lp456
I3
aI4
aI5
atp457
Rp458
ag1
((lp459
I2
aI3
aI5
atp460
Rp461
ag71
ag11
ag311
atp462
Rp463
I720
sg1
((lp464
g1
((lp465
I3
aI4
aI6
atp466
Rp467
ag1
((lp468
I2
aI3
aI4
atp469
Rp470
ag1
((lp471
I1
aI2
aI4
atp472
Rp473
ag95
ag11
ag1
((lp474
I3
aI5
aI6
atp475
Rp476
atp477
Rp478
I720
sg1
((lp479
g158
ag1
((lp480
I1
aI3
aI6
atp481
Rp482
ag128
ag167
ag170
ag1
((lp483
I3
aI5
aI6
atp484
Rp485
atp486
Rp487
I360
sg1
((lp488
g1
((lp489
I2
aI5
aI6
atp490
Rp491
ag110
ag1
((lp492
I1
aI2
aI5
atp493
Rp494
ag167
ag1
((lp495
I1
aI2
aI6
atp496
Rp497
ag1
((lp498
I2
aI4
aI5
atp499
Rp500
atp501
Rp502
I720
sg1
((lp503
g1
((lp504
I2
aI5
aI6
atp505
Rp506
ag1
((lp507
I1
aI2
aI5
atp508
Rp509
ag167
ag11
ag1
((lp510
I1
aI5
aI6
atp511
Rp512
ag1
((lp513
I3
aI5
aI6
atp514
Rp515
atp516
Rp517
I360
sg1
((lp518
g1
((lp519
I2
aI3
aI6
atp520
Rp521
ag1
((lp522
I2
aI5
aI6
atp523
Rp524
ag1
((lp525
I2
aI3
aI5
atp526
Rp527
ag74
ag1
((lp528
I2
aI4
aI6
atp529
Rp530
ag11
atp531
Rp532
I360
sg1
((lp533
g1
((lp534
I2
aI3
aI6
atp535
Rp536
ag179
ag74
ag182
ag1
((lp537
I1
aI3
aI4
atp538
Rp539
ag20
atp540
Rp541
I360
sg1
((lp542
g110
ag1
((lp543
I4
aI5
aI6
atp544
Rp545
ag1
((lp546
I2
aI4
aI6
atp547
Rp548
ag128
ag323
ag1
((lp549
I1
aI2
aI3
atp550
Rp551
atp552
Rp553
I720
sg1
((lp554
g449
ag26
ag1
((lp555
I2
aI3
aI5
atp556
Rp557
ag1
((lp558
I1
aI2
aI4
atp559
Rp560
ag11
ag278
atp561
Rp562
I360
sg1
((lp563
g332
ag1
((lp564
I1
aI3
aI5
atp565
Rp566
ag1
((lp567
I1
aI3
aI6
atp568
Rp569
ag242
ag1
((lp570
I1
aI3
aI4
atp571
Rp572
ag1
((lp573
I1
aI5
aI6
atp574
Rp575
atp576
Rp577
I720
sg1
((lp578
g74
ag143
ag1
((lp579
I4
aI5
aI6
atp580
Rp581
ag1
((lp582
I2
aI4
aI6
atp583
Rp584
ag1
((lp585
I1
aI3
aI4
atp586
Rp587
ag1
((lp588
I1
aI4
aI6
atp589
Rp590
atp591
Rp592
I720
sg1
((lp593
g1
((lp594
I3
aI4
aI6
atp595
Rp596
ag242
ag1
((lp597
I2
aI3
aI4
atp598
Rp599
ag1
((lp600
I1
aI4
aI5
atp601
Rp602
ag95
ag1
((lp603
I1
aI5
aI6
atp604
Rp605
atp606
Rp607
I720
sg1
((lp608
g1
((lp609
I1
aI3
aI5
atp610
Rp611
ag1
((lp612
I4
aI5
aI6
atp613
Rp614
ag1
((lp615
I1
aI4
aI5
atp616
Rp617
ag128
ag38
ag134
atp618
Rp619
I90
sg1
((lp620
g1
((lp621
I1
aI3
aI6
atp622
Rp623
ag71
ag143
ag1
((lp624
I2
aI3
aI4
atp625
Rp626
ag1
((lp627
I1
aI4
aI5
atp628
Rp629
ag1
((lp630
I1
aI4
aI6
atp631
Rp632
atp633
Rp634
I720
sg1
((lp635
g1
((lp636
I2
aI5
aI6
atp637
Rp638
ag143
ag1
((lp639
I1
aI2
aI5
atp640
Rp641
ag128
ag1
((lp642
I1
aI5
aI6
atp643
Rp644
ag1
((lp645
I1
aI2
aI3
atp646
Rp647
atp648
Rp649
I360
sg1
((lp650
g332
ag350
ag53
ag356
ag359
ag1
((lp651
I1
aI2
aI3
atp652
Rp653
atp654
Rp655
I360
sg1
((lp656
g251
ag26
ag242
ag245
ag1
((lp657
I1
aI5
aI6
atp658
Rp659
ag1
((lp660
I2
aI4
aI5
atp661
Rp662
atp663
Rp664
I720
sg1
((lp665
g1
((lp666
I3
aI5
aI6
atp667
Rp668
ag1
((lp669
I2
aI4
aI6
atp670
Rp671
ag1
((lp672
I1
aI3
aI4
atp673
Rp674
ag38
ag1
((lp675
I1
aI2
aI3
atp676
Rp677
ag95
atp678
Rp679
I720
sg1
((lp680
g1
((lp681
I1
aI3
aI6
atp682
Rp683
ag53
ag74
ag1
((lp684
I1
aI2
aI6
atp685
Rp686
ag1
((lp687
I1
aI4
aI6
atp688
Rp689
ag1
((lp690
I1
aI2
aI3
atp691
Rp692
atp693
Rp694
I360
sg1
((lp695
g1
((lp696
I3
aI4
aI5
atp697
Rp698
ag1
((lp699
I2
aI3
aI5
atp700
Rp701
ag242
ag110
ag1
((lp702
I1
aI2
aI5
atp703
Rp704
ag1
((lp705
I4
aI5
aI6
atp706
Rp707
atp708
Rp709
I360
sg1
((lp710
g1
((lp711
I2
aI5
aI6
atp712
Rp713
ag1
((lp714
I1
aI3
aI6
atp715
Rp716
ag71
ag1
((lp717
I2
aI4
aI6
atp718
Rp719
ag167
ag1
((lp720
I1
aI4
aI6
atp721
Rp722
atp723
Rp724
I720
sg1
((lp725
g1
((lp726
I2
aI3
aI5
atp727
Rp728
ag74
ag404
ag407
ag38
ag1
((lp729
I1
aI2
aI3
atp730
Rp731
atp732
Rp733
I720
sg1
((lp734
g1
((lp735
I2
aI5
aI6
atp736
Rp737
ag71
ag1
((lp738
I4
aI5
aI6
atp739
Rp740
ag128
ag1
((lp741
I1
aI5
aI6
atp742
Rp743
ag1
((lp744
I2
aI4
aI5
atp745
Rp746
atp747
Rp748
I720
sg1
((lp749
g1
((lp750
I3
aI4
aI6
atp751
Rp752
ag1
((lp753
I2
aI3
aI5
atp754
Rp755
ag53
ag1
((lp756
I1
aI2
aI5
atp757
Rp758
ag1
((lp759
I2
aI4
aI6
atp760
Rp761
ag20
atp762
Rp763
I360
sg1
((lp764
g1
((lp765
I3
aI4
aI6
atp766
Rp767
ag1
((lp768
I1
aI3
aI5
atp769
Rp770
ag1
((lp771
I2
aI5
aI6
atp772
Rp773
ag71
ag110
ag1
((lp774
I1
aI5
aI6
atp775
Rp776
atp777
Rp778
I720
sg1
((lp779
g1
((lp780
I1
aI3
aI6
atp781
Rp782
ag1
((lp783
I1
aI2
aI5
atp784
Rp785
ag167
ag200
ag1
((lp786
I2
aI4
aI5
atp787
Rp788
ag1
((lp789
I3
aI5
aI6
atp790
Rp791
atp792
Rp793
I720
sg1
((lp794
g1
((lp795
I2
aI3
aI6
atp796
Rp797
ag1
((lp798
I3
aI4
aI5
atp799
Rp800
ag110
ag1
((lp801
I2
aI3
aI4
atp802
Rp803
ag38
ag1
((lp804
I1
aI2
aI3
atp805
Rp806
atp807
Rp808
I720
sg1
((lp809
g1
((lp810
I1
aI3
aI5
atp811
Rp812
ag191
ag194
ag200
ag38
ag203
atp813
Rp814
I360
sg1
((lp815
g1
((lp816
I3
aI4
aI6
atp817
Rp818
ag1
((lp819
I3
aI4
aI5
atp820
Rp821
ag242
ag1
((lp822
I4
aI5
aI6
atp823
Rp824
ag38
ag1
((lp825
I3
aI5
aI6
atp826
Rp827
atp828
Rp829
I60
sg1
((lp830
g209
ag1
((lp831
I4
aI5
aI6
atp832
Rp833
ag218
ag38
ag11
ag1
((lp834
I2
aI4
aI5
atp835
Rp836
atp837
Rp838
I180
sg1
((lp839
g1
((lp840
I2
aI3
aI4
atp841
Rp842
ag1
((lp843
I2
aI4
aI6
atp844
Rp845
ag95
ag1
((lp846
I1
aI2
aI6
atp847
Rp848
ag1
((lp849
I1
aI5
aI6
atp850
Rp851
ag20
atp852
Rp853
I720
sg1
((lp854
g1
((lp855
I1
aI3
aI5
atp856
Rp857
ag671
ag674
ag38
ag668
ag95
atp858
Rp859
I720
sg1
((lp860
g812
ag191
ag197
ag200
ag38
ag1
((lp861
I1
aI2
aI3
atp862
Rp863
atp864
Rp865
I360
sg1
((lp866
g1
((lp867
I1
aI3
aI5
atp868
Rp869
ag110
ag1
((lp870
I1
aI2
aI5
atp871
Rp872
ag128
ag1
((lp873
I2
aI4
aI5
atp874
Rp875
ag551
atp876
Rp877
I360
sg1
((lp878
g53
ag1
((lp879
I2
aI3
aI4
atp880
Rp881
ag1
((lp882
I1
aI2
aI5
atp883
Rp884
ag1
((lp885
I2
aI4
aI6
atp886
Rp887
ag1
((lp888
I1
aI3
aI4
atp889
Rp890
ag38
atp891
Rp892
I720
sg1
((lp893
g1
((lp894
I1
aI3
aI6
atp895
Rp896
ag71
ag242
ag1
((lp897
I1
aI3
aI4
atp898
Rp899
ag1
((lp900
I2
aI4
aI5
atp901
Rp902
ag1
((lp903
I3
aI5
aI6
atp904
Rp905
atp906
Rp907
I360
sg1
((lp908
g1
((lp909
I3
aI4
aI5
atp910
Rp911
ag1
((lp912
I2
aI3
aI5
atp913
Rp914
ag1
((lp915
I1
aI2
aI5
atp916
Rp917
ag200
ag11
ag1
((lp918
I3
aI5
aI6
atp919
Rp920
atp921
Rp922
I360
sg1
((lp923
g332
ag1
((lp924
I3
aI4
aI5
atp925
Rp926
ag1
((lp927
I1
aI3
aI6
atp928
Rp929
ag1
((lp930
I3
aI5
aI6
atp931
Rp932
ag74
ag1
((lp933
I1
aI2
aI3
atp934
Rp935
atp936
Rp937
I360
sg1
((lp938
g1
((lp939
I3
aI5
aI6
atp940
Rp941
ag1
((lp942
I1
aI2
aI4
atp943
Rp944
ag845
ag95
ag1
((lp945
I1
aI2
aI3
atp946
Rp947
ag20
atp948
Rp949
I720
sg1
((lp950
g869
ag1
((lp951
I1
aI3
aI6
atp952
Rp953
ag110
ag548
ag128
ag875
atp954
Rp955
I180
sg1
((lp956
g755
ag53
ag1
((lp957
I1
aI2
aI4
atp958
Rp959
ag761
ag1
((lp960
I1
aI3
aI4
atp961
Rp962
ag20
atp963
Rp964
I720
sg1
((lp965
g1
((lp966
I2
aI3
aI6
atp967
Rp968
ag1
((lp969
I2
aI3
aI5
atp970
Rp971
ag110
ag1
((lp972
I1
aI2
aI5
atp973
Rp974
ag200
ag1
((lp975
I2
aI4
aI5
atp976
Rp977
atp978
Rp979
I720
sg1
((lp980
g1
((lp981
I3
aI4
aI6
atp982
Rp983
ag143
ag11
ag1
((lp984
I1
aI2
aI6
atp985
Rp986
ag1
((lp987
I1
aI5
aI6
atp988
Rp989
ag1
((lp990
I1
aI4
aI6
atp991
Rp992
atp993
Rp994
I720
sg1
((lp995
g1
((lp996
I2
aI3
aI6
atp997
Rp998
ag1
((lp999
I2
aI5
aI6
atp1000
Rp1001
ag1
((lp1002
I1
aI2
aI5
atp1003
Rp1004
ag200
ag38
ag1
((lp1005
I2
aI4
aI5
atp1006
Rp1007
atp1008
Rp1009
I360
sg1
((lp1010
g65
ag1
((lp1011
I3
aI4
aI5
atp1012
Rp1013
ag68
ag71
ag74
ag1
((lp1014
I4
aI5
aI6
atp1015
Rp1016
atp1017
Rp1018
I720
sg1
((lp1019
g1
((lp1020
I3
aI4
aI6
atp1021
Rp1022
ag632
ag71
ag143
ag1
((lp1023
I1
aI3
aI4
atp1024
Rp1025
ag1
((lp1026
I2
aI4
aI5
atp1027
Rp1028
atp1029
Rp1030
I360
sg1
((lp1031
g26
ag53
ag1
((lp1032
I2
aI3
aI4
atp1033
Rp1034
ag1
((lp1035
I1
aI2
aI4
atp1036
Rp1037
ag1
((lp1038
I1
aI3
aI4
atp1039
Rp1040
ag1
((lp1041
I1
aI2
aI6
atp1042
Rp1043
atp1044
Rp1045
I360
sg1
((lp1046
g1
((lp1047
I3
aI4
aI6
atp1048
Rp1049
ag1
((lp1050
I1
aI3
aI5
atp1051
Rp1052
ag1
((lp1053
I3
aI5
aI6
atp1054
Rp1055
ag38
ag1
((lp1056
I1
aI2
aI3
atp1057
Rp1058
ag20
atp1059
Rp1060
I720
sg1
((lp1061
g1
((lp1062
I3
aI4
aI5
atp1063
Rp1064
ag1
((lp1065
I1
aI3
aI6
atp1066
Rp1067
ag53
ag110
ag1
((lp1068
I1
aI2
aI6
atp1069
Rp1070
ag1
((lp1071
I2
aI4
aI5
atp1072
Rp1073
atp1074
Rp1075
I90
sg1
((lp1076
g1
((lp1077
I3
aI4
aI6
atp1078
Rp1079
ag1
((lp1080
I1
aI3
aI6
atp1081
Rp1082
ag74
ag1
((lp1083
I2
aI4
aI5
atp1084
Rp1085
ag1
((lp1086
I3
aI5
aI6
atp1087
Rp1088
ag242
atp1089
Rp1090
I720
sg1
((lp1091
g1
((lp1092
I3
aI4
aI5
atp1093
Rp1094
ag26
ag86
ag89
ag95
ag1
((lp1095
I1
aI2
aI6
atp1096
Rp1097
atp1098
Rp1099
I360
sg1
((lp1100
g1
((lp1101
I1
aI4
aI5
atp1102
Rp1103
ag143
ag1
((lp1104
I2
aI3
aI4
atp1105
Rp1106
ag1
((lp1107
I2
aI4
aI6
atp1108
Rp1109
ag95
ag1
((lp1110
I1
aI2
aI3
atp1111
Rp1112
atp1113
Rp1114
I720
sg1
((lp1115
g332
ag1
((lp1116
I4
aI5
aI6
atp1117
Rp1118
ag1
((lp1119
I1
aI4
aI5
atp1120
Rp1121
ag128
ag1
((lp1122
I1
aI2
aI6
atp1123
Rp1124
ag1
((lp1125
I1
aI5
aI6
atp1126
Rp1127
atp1128
Rp1129
I360
sg1
((lp1130
g1
((lp1131
I1
aI3
aI5
atp1132
Rp1133
ag1
((lp1134
I3
aI5
aI6
atp1135
Rp1136
ag110
ag1
((lp1137
I1
aI2
aI5
atp1138
Rp1139
ag38
ag806
atp1140
Rp1141
I360
sg1
((lp1142
g467
ag1
((lp1143
I2
aI4
aI6
atp1144
Rp1145
ag95
ag11
ag1
((lp1146
I1
aI5
aI6
atp1147
Rp1148
ag1
((lp1149
I1
aI4
aI6
atp1150
Rp1151
atp1152
Rp1153
I720
sg1
((lp1154
g242
ag1
((lp1155
I2
aI3
aI4
atp1156
Rp1157
ag1
((lp1158
I1
aI2
aI4
atp1159
Rp1160
ag11
ag1
((lp1161
I1
aI5
aI6
atp1162
Rp1163
ag1
((lp1164
I4
aI5
aI6
atp1165
Rp1166
atp1167
Rp1168
I720
sg1
((lp1169
g1
((lp1170
I2
aI5
aI6
atp1171
Rp1172
ag1
((lp1173
I4
aI5
aI6
atp1174
Rp1175
ag1
((lp1176
I1
aI4
aI5
atp1177
Rp1178
ag1
((lp1179
I1
aI3
aI4
atp1180
Rp1181
ag167
ag38
atp1182
Rp1183
I360
sg1
((lp1184
g140
ag26
ag143
ag1
((lp1185
I1
aI2
aI4
atp1186
Rp1187
ag1
((lp1188
I1
aI2
aI6
atp1189
Rp1190
ag149
atp1191
Rp1192
I720
sg1
((lp1193
g1
((lp1194
I2
aI5
aI6
atp1195
Rp1196
ag1
((lp1197
I2
aI3
aI5
atp1198
Rp1199
ag218
ag38
ag11
ag1
((lp1200
I3
aI5
aI6
atp1201
Rp1202
atp1203
Rp1204
I360
sg1
((lp1205
g1
((lp1206
I2
aI3
aI6
atp1207
Rp1208
ag1
((lp1209
I1
aI3
aI6
atp1210
Rp1211
ag1
((lp1212
I1
aI2
aI5
atp1213
Rp1214
ag200
ag1
((lp1215
I3
aI5
aI6
atp1216
Rp1217
ag20
atp1218
Rp1219
I360
sg1
((lp1220
g1
((lp1221
I3
aI4
aI6
atp1222
Rp1223
ag53
ag881
ag1
((lp1224
I1
aI4
aI5
atp1225
Rp1226
ag38
ag1
((lp1227
I2
aI4
aI5
atp1228
Rp1229
atp1230
Rp1231
I720
sg1
((lp1232
g53
ag1
((lp1233
I2
aI3
aI4
atp1234
Rp1235
ag1
((lp1236
I1
aI2
aI4
atp1237
Rp1238
ag1
((lp1239
I2
aI4
aI6
atp1240
Rp1241
ag11
ag59
atp1242
Rp1243
I45
sg1
((lp1244
g1
((lp1245
I3
aI4
aI6
atp1246
Rp1247
ag1
((lp1248
I2
aI3
aI6
atp1249
Rp1250
ag215
ag38
ag11
ag836
atp1251
Rp1252
I180
sg1
((lp1253
g332
ag1
((lp1254
I2
aI3
aI6
atp1255
Rp1256
ag1
((lp1257
I2
aI5
aI6
atp1258
Rp1259
ag143
ag1
((lp1260
I1
aI2
aI5
atp1261
Rp1262
ag1
((lp1263
I1
aI3
aI4
atp1264
Rp1265
atp1266
Rp1267
I720
sg1
((lp1268
g1
((lp1269
I1
aI3
aI5
atp1270
Rp1271
ag53
ag242
ag1
((lp1272
I1
aI4
aI5
atp1273
Rp1274
ag1
((lp1275
I1
aI4
aI6
atp1276
Rp1277
ag1
((lp1278
I1
aI2
aI3
atp1279
Rp1280
atp1281
Rp1282
I720
sg1
((lp1283
g1
((lp1284
I1
aI3
aI5
atp1285
Rp1286
ag1064
ag53
ag110
ag1
((lp1287
I2
aI4
aI6
atp1288
Rp1289
ag1070
atp1290
Rp1291
I180
sg1
((lp1292
g1
((lp1293
I3
aI4
aI5
atp1294
Rp1295
ag1181
ag167
ag38
ag1
((lp1296
I2
aI4
aI5
atp1297
Rp1298
ag1
((lp1299
I3
aI5
aI6
atp1300
Rp1301
atp1302
Rp1303
I360
sg1
((lp1304
g821
ag242
ag1
((lp1305
I2
aI3
aI4
atp1306
Rp1307
ag1
((lp1308
I1
aI2
aI5
atp1309
Rp1310
ag1
((lp1311
I1
aI3
aI4
atp1312
Rp1313
ag38
atp1314
Rp1315
I180
sg1
((lp1316
g317
ag110
ag128
ag1
((lp1317
I1
aI2
aI6
atp1318
Rp1319
ag323
ag326
atp1320
Rp1321
I180
sg1
((lp1322
g1
((lp1323
I1
aI3
aI5
atp1324
Rp1325
ag1
((lp1326
I3
aI4
aI5
atp1327
Rp1328
ag167
ag95
ag1
((lp1329
I1
aI4
aI6
atp1330
Rp1331
ag1
((lp1332
I3
aI5
aI6
atp1333
Rp1334
atp1335
Rp1336
I60
sg1
((lp1337
g1
((lp1338
I2
aI5
aI6
atp1339
Rp1340
ag953
ag110
ag872
ag128
ag323
atp1341
Rp1342
I720
sg1
((lp1343
g143
ag1
((lp1344
I4
aI5
aI6
atp1345
Rp1346
ag1
((lp1347
I2
aI4
aI6
atp1348
Rp1349
ag167
ag1
((lp1350
I1
aI5
aI6
atp1351
Rp1352
ag1
((lp1353
I2
aI4
aI5
atp1354
Rp1355
atp1356
Rp1357
I720
sg1
((lp1358
g1
((lp1359
I3
aI4
aI6
atp1360
Rp1361
ag1
((lp1362
I2
aI5
aI6
atp1363
Rp1364
ag1
((lp1365
I1
aI3
aI6
atp1366
Rp1367
ag110
ag1
((lp1368
I1
aI5
aI6
atp1369
Rp1370
ag20
atp1371
Rp1372
I720
sg1
((lp1373
g1
((lp1374
I3
aI4
aI6
atp1375
Rp1376
ag1
((lp1377
I3
aI4
aI5
atp1378
Rp1379
ag74
ag110
ag1
((lp1380
I2
aI3
aI4
atp1381
Rp1382
ag1
((lp1383
I2
aI4
aI6
atp1384
Rp1385
atp1386
Rp1387
I360
sg1
((lp1388
g752
ag1
((lp1389
I1
aI3
aI5
atp1390
Rp1391
ag53
ag959
ag1
((lp1392
I1
aI2
aI6
atp1393
Rp1394
ag20
atp1395
Rp1396
I360
sg1
((lp1397
g1
((lp1398
I2
aI5
aI6
atp1399
Rp1400
ag143
ag1
((lp1401
I1
aI2
aI5
atp1402
Rp1403
ag1
((lp1404
I1
aI3
aI4
atp1405
Rp1406
ag167
ag1
((lp1407
I1
aI2
aI6
atp1408
Rp1409
atp1410
Rp1411
I720
sg1
((lp1412
g1
((lp1413
I2
aI3
aI6
atp1414
Rp1415
ag263
ag53
ag1
((lp1416
I2
aI4
aI6
atp1417
Rp1418
ag1
((lp1419
I1
aI3
aI4
atp1420
Rp1421
ag71
atp1422
Rp1423
I720
sg1
((lp1424
g26
ag1
((lp1425
I2
aI3
aI5
atp1426
Rp1427
ag1
((lp1428
I1
aI2
aI4
atp1429
Rp1430
ag1
((lp1431
I1
aI3
aI4
atp1432
Rp1433
ag200
ag1
((lp1434
I2
aI4
aI5
atp1435
Rp1436
atp1437
Rp1438
I720
sg1
((lp1439
g332
ag335
ag338
ag71
ag344
ag1
((lp1440
I3
aI5
aI6
atp1441
Rp1442
atp1443
Rp1444
I360
sg1
((lp1445
g917
ag1
((lp1446
I1
aI2
aI4
atp1447
Rp1448
ag200
ag11
ag1
((lp1449
I2
aI4
aI5
atp1450
Rp1451
ag920
atp1452
Rp1453
I360
sg1
((lp1454
g1
((lp1455
I1
aI4
aI5
atp1456
Rp1457
ag1
((lp1458
I1
aI3
aI6
atp1459
Rp1460
ag53
ag1
((lp1461
I1
aI2
aI4
atp1462
Rp1463
ag1
((lp1464
I2
aI4
aI6
atp1465
Rp1466
ag167
atp1467
Rp1468
I720
sg1
((lp1469
g1
((lp1470
I1
aI3
aI6
atp1471
Rp1472
ag71
ag1
((lp1473
I2
aI3
aI4
atp1474
Rp1475
ag1
((lp1476
I2
aI4
aI6
atp1477
Rp1478
ag95
ag1
((lp1479
I3
aI5
aI6
atp1480
Rp1481
atp1482
Rp1483
I180
sg1
((lp1484
g902
ag1
((lp1485
I2
aI3
aI5
atp1486
Rp1487
ag71
ag242
ag1
((lp1488
I1
aI4
aI5
atp1489
Rp1490
ag1
((lp1491
I1
aI4
aI6
atp1492
Rp1493
atp1494
Rp1495
I720
sg1
((lp1496
g1
((lp1497
I1
aI3
aI5
atp1498
Rp1499
ag1
((lp1500
I2
aI3
aI5
atp1501
Rp1502
ag242
ag1
((lp1503
I1
aI2
aI4
atp1504
Rp1505
ag38
ag827
atp1506
Rp1507
I180
sg1
((lp1508
g1
((lp1509
I2
aI4
aI5
atp1510
Rp1511
ag242
ag1160
ag1
((lp1512
I1
aI4
aI5
atp1513
Rp1514
ag11
ag1
((lp1515
I1
aI4
aI6
atp1516
Rp1517
atp1518
Rp1519
I720
sg1
((lp1520
g215
ag218
ag38
ag11
ag836
ag1202
atp1521
Rp1522
I360
sg1
((lp1523
g143
ag1
((lp1524
I1
aI2
aI5
atp1525
Rp1526
ag1
((lp1527
I1
aI2
aI4
atp1528
Rp1529
ag38
ag1
((lp1530
I2
aI4
aI5
atp1531
Rp1532
ag1
((lp1533
I4
aI5
aI6
atp1534
Rp1535
atp1536
Rp1537
I720
sg1
((lp1538
g26
ag1
((lp1539
I2
aI3
aI5
atp1540
Rp1541
ag242
ag1
((lp1542
I1
aI2
aI4
atp1543
Rp1544
ag248
ag1
((lp1545
I1
aI2
aI3
atp1546
Rp1547
atp1548
Rp1549
I360
sg1
((lp1550
g1
((lp1551
I1
aI3
aI5
atp1552
Rp1553
ag1
((lp1554
I3
aI4
aI5
atp1555
Rp1556
ag71
ag1
((lp1557
I1
aI4
aI5
atp1558
Rp1559
ag1
((lp1560
I1
aI3
aI4
atp1561
Rp1562
ag95
atp1563
Rp1564
I180
sg1
((lp1565
g1
((lp1566
I2
aI3
aI5
atp1567
Rp1568
ag74
ag1
((lp1569
I1
aI2
aI4
atp1570
Rp1571
ag1085
ag1088
ag242
atp1572
Rp1573
I360
sg1
((lp1574
g1064
ag1
((lp1575
I2
aI3
aI5
atp1576
Rp1577
ag53
ag110
ag1289
ag1073
atp1578
Rp1579
I720
sg1
((lp1580
g74
ag1
((lp1581
I1
aI2
aI4
atp1582
Rp1583
ag368
ag167
ag1
((lp1584
I1
aI2
aI6
atp1585
Rp1586
ag371
atp1587
Rp1588
I180
sg1
((lp1589
g1
((lp1590
I2
aI3
aI6
atp1591
Rp1592
ag1
((lp1593
I2
aI3
aI5
atp1594
Rp1595
ag53
ag1
((lp1596
I1
aI2
aI4
atp1597
Rp1598
ag128
ag1
((lp1599
I1
aI2
aI6
atp1600
Rp1601
atp1602
Rp1603
I720
sg1
((lp1604
g1
((lp1605
I3
aI4
aI5
atp1606
Rp1607
ag1
((lp1608
I1
aI3
aI6
atp1609
Rp1610
ag53
ag1
((lp1611
I2
aI3
aI4
atp1612
Rp1613
ag1
((lp1614
I1
aI2
aI4
atp1615
Rp1616
ag95
atp1617
Rp1618
I720
sg1
((lp1619
g1
((lp1620
I3
aI4
aI6
atp1621
Rp1622
ag71
ag1
((lp1623
I4
aI5
aI6
atp1624
Rp1625
ag1562
ag95
ag1481
atp1626
Rp1627
I360
sg1
((lp1628
g983
ag1
((lp1629
I2
aI3
aI6
atp1630
Rp1631
ag143
ag1
((lp1632
I1
aI2
aI4
atp1633
Rp1634
ag11
ag992
atp1635
Rp1636
I720
sg1
((lp1637
g224
ag110
ag143
ag1
((lp1638
I2
aI3
aI4
atp1639
Rp1640
ag1
((lp1641
I4
aI5
aI6
atp1642
Rp1643
ag1
((lp1644
I2
aI4
aI5
atp1645
Rp1646
atp1647
Rp1648
I180
sg1
((lp1649
g1325
ag167
ag95
ag1
((lp1650
I1
aI5
aI6
atp1651
Rp1652
ag1331
ag1334
atp1653
Rp1654
I360
sg1
((lp1655
g506
ag1
((lp1656
I1
aI2
aI4
atp1657
Rp1658
ag167
ag11
ag1
((lp1659
I1
aI2
aI6
atp1660
Rp1661
ag1
((lp1662
I2
aI4
aI5
atp1663
Rp1664
atp1665
Rp1666
I360
sg1
((lp1667
g983
ag1
((lp1668
I2
aI4
aI5
atp1669
Rp1670
ag1
((lp1671
I2
aI5
aI6
atp1672
Rp1673
ag143
ag11
ag992
atp1674
Rp1675
I360
sg1
((lp1676
g1
((lp1677
I3
aI4
aI6
atp1678
Rp1679
ag683
ag53
ag74
ag1
((lp1680
I1
aI3
aI4
atp1681
Rp1682
ag1
((lp1683
I2
aI4
aI5
atp1684
Rp1685
atp1686
Rp1687
I360
sg1
((lp1688
g332
ag1
((lp1689
I2
aI3
aI6
atp1690
Rp1691
ag1
((lp1692
I2
aI5
aI6
atp1693
Rp1694
ag1
((lp1695
I2
aI3
aI5
atp1696
Rp1697
ag110
ag1
((lp1698
I3
aI5
aI6
atp1699
Rp1700
atp1701
Rp1702
I120
sg1
((lp1703
g332
ag1
((lp1704
I3
aI4
aI6
atp1705
Rp1706
ag1
((lp1707
I2
aI5
aI6
atp1708
Rp1709
ag1
((lp1710
I3
aI4
aI5
atp1711
Rp1712
ag1
((lp1713
I1
aI3
aI4
atp1714
Rp1715
ag167
atp1716
Rp1717
I180
sg1
((lp1718
g470
ag1
((lp1719
I1
aI4
aI5
atp1720
Rp1721
ag95
ag11
ag1
((lp1722
I1
aI2
aI6
atp1723
Rp1724
ag476
atp1725
Rp1726
I90
sg1
((lp1727
g1
((lp1728
I2
aI5
aI6
atp1729
Rp1730
ag1
((lp1731
I1
aI3
aI6
atp1732
Rp1733
ag74
ag143
ag581
ag1
((lp1734
I2
aI4
aI5
atp1735
Rp1736
atp1737
Rp1738
I180
s.