(dp0
c__builtin__
frozenset
p1
((lp2
g1
((lp3
I3
aI4
aI6
atp4
Rp5
ag1
((lp6
I2
aI4
aI5
atp7
Rp8
ag1
((lp9
I1
aI3
aI6
atp10
Rp11
ag1
((lp12
I5
aI6
atp13
Rp14
ag1
((lp15
I2
aI6
atp16
Rp17
ag1
((lp18
I2
aI3
aI4
atp19
Rp20
ag1
((lp21
I1
aI2
aI5
atp22
Rp23
ag1
((lp24
I1
aI2
aI4
atp25
Rp26
ag1
((lp27
I2
aI3
aI5
atp28
Rp29
ag1
((lp30
I1
aI3
aI4
aI5
atp31
Rp32
ag1
((lp33
I1
aI4
aI6
atp34
Rp35
ag1
((lp36
I1
aI2
aI3
atp37
Rp38
atp39
Rp40
I120
sg1
((lp41
g1
((lp42
I3
aI4
aI6
atp43
Rp44
ag1
((lp45
I2
aI3
aI6
atp46
Rp47
ag1
((lp48
I2
aI5
aI6
atp49
Rp50
ag1
((lp51
I1
aI2
atp52
Rp53
ag1
((lp54
I4
aI5
aI6
atp55
Rp56
ag1
((lp57
I2
aI4
aI6
atp58
Rp59
ag1
((lp60
I3
aI5
aI6
atp61
Rp62
ag1
((lp63
I1
aI4
aI5
atp64
Rp65
ag1
((lp66
I1
aI3
atp67
Rp68
ag1
((lp69
I1
aI5
aI6
atp70
Rp71
ag1
((lp72
I1
aI4
aI6
atp73
Rp74
ag1
((lp75
I2
aI3
aI4
aI5
atp76
Rp77
atp78
Rp79
I180
sg1
((lp80
g1
((lp81
I3
aI4
aI6
atp82
Rp83
ag1
((lp84
I2
aI3
aI6
atp85
Rp86
ag1
((lp87
I2
aI5
aI6
atp88
Rp89
ag1
((lp90
I2
aI3
aI5
atp91
Rp92
ag53
ag1
((lp93
I2
aI3
aI4
atp94
Rp95
ag1
((lp96
I4
aI5
aI6
atp97
Rp98
ag1
((lp99
I2
aI4
aI6
atp100
Rp101
ag1
((lp102
I1
aI6
atp103
Rp104
ag1
((lp105
I1
aI3
aI4
aI5
atp106
Rp107
ag1
((lp108
I2
aI4
aI5
atp109
Rp110
ag1
((lp111
I3
aI5
aI6
atp112
Rp113
atp114
Rp115
I60
s.