(dp0
c__builtin__
frozenset
p1
((lp2
g1
((lp3
I2
aI5
aI6
atp4
Rp5
ag1
((lp6
I2
aI3
aI5
atp7
Rp8
ag1
((lp9
I1
aI5
atp10
Rp11
ag1
((lp12
I2
aI3
aI4
aI6
atp13
Rp14
ag1
((lp15
I1
aI3
atp16
Rp17
ag1
((lp18
I1
aI2
aI6
atp19
Rp20
ag1
((lp21
I2
aI4
aI5
atp22
Rp23
ag1
((lp24
I3
aI5
aI6
atp25
Rp26
atp27
Rp28
I720
sg1
((lp29
g1
((lp30
I1
aI3
aI5
atp31
Rp32
ag1
((lp33
I3
aI6
atp34
Rp35
ag1
((lp36
I5
aI6
atp37
Rp38
ag1
((lp39
I1
aI2
aI4
atp40
Rp41
ag1
((lp42
I2
aI4
aI6
atp43
Rp44
ag1
((lp45
I1
aI3
aI4
atp46
Rp47
ag1
((lp48
I1
aI4
aI6
atp49
Rp50
ag1
((lp51
I2
aI3
aI4
aI5
atp52
Rp53
atp54
Rp55
I720
sg1
((lp56
g1
((lp57
I3
aI4
aI6
atp58
Rp59
ag1
((lp60
I3
aI4
aI5
atp61
Rp62
ag38
ag1
((lp63
I2
aI4
aI6
atp64
Rp65
ag1
((lp66
I2
aI3
atp67
Rp68
ag1
((lp69
I1
aI2
aI6
atp70
Rp71
ag1
((lp72
I1
aI2
aI4
aI5
atp73
Rp74
ag1
((lp75
I1
aI4
aI6
atp76
Rp77
atp78
Rp79
I720
sg1
((lp80
g1
((lp81
I2
aI5
aI6
atp82
Rp83
ag1
((lp84
I1
aI3
aI6
atp85
Rp86
ag1
((lp87
I3
aI5
aI6
atp88
Rp89
ag11
ag1
((lp90
I1
aI2
aI4
atp91
Rp92
ag1
((lp93
I1
aI3
aI4
atp94
Rp95
ag1
((lp96
I4
aI6
atp97
Rp98
ag1
((lp99
I2
aI3
aI4
aI5
atp100
Rp101
atp102
Rp103
I360
sg1
((lp104
g1
((lp105
I2
aI4
atp106
Rp107
ag1
((lp108
I3
aI4
aI6
atp109
Rp110
ag1
((lp111
I2
aI3
aI5
atp112
Rp113
ag1
((lp114
I3
aI5
aI6
atp115
Rp116
ag1
((lp117
I1
aI2
aI5
atp118
Rp119
ag1
((lp120
I1
aI6
atp121
Rp122
ag1
((lp123
I1
aI3
aI4
aI5
atp124
Rp125
ag1
((lp126
I1
aI2
aI3
atp127
Rp128
atp129
Rp130
I720
sg1
((lp131
g1
((lp132
I3
aI4
aI6
atp133
Rp134
ag1
((lp135
I1
aI2
aI5
atp136
Rp137
ag1
((lp138
I1
aI2
aI4
atp139
Rp140
ag1
((lp141
I2
aI4
aI6
atp142
Rp143
ag68
ag122
ag1
((lp144
I1
aI3
aI4
aI5
atp145
Rp146
ag1
((lp147
I4
aI5
aI6
atp148
Rp149
atp150
Rp151
I720
sg1
((lp152
g1
((lp153
I3
aI4
aI6
atp154
Rp155
ag1
((lp156
I2
aI3
aI6
atp157
Rp158
ag1
((lp159
I1
aI2
aI3
aI4
atp160
Rp161
ag1
((lp162
I1
aI3
aI6
atp163
Rp164
ag1
((lp165
I2
aI5
atp166
Rp167
ag1
((lp168
I1
aI2
aI6
atp169
Rp170
ag1
((lp171
I1
aI4
aI6
atp172
Rp173
ag1
((lp174
I4
aI5
atp175
Rp176
atp177
Rp178
I180
sg1
((lp179
g1
((lp180
I1
aI3
aI5
atp181
Rp182
ag1
((lp183
I3
aI4
aI5
atp184
Rp185
ag1
((lp186
I1
aI3
aI6
atp187
Rp188
ag38
ag1
((lp189
I1
aI4
atp190
Rp191
ag1
((lp192
I1
aI2
aI5
atp193
Rp194
ag1
((lp195
I2
aI3
aI4
aI6
atp196
Rp197
ag1
((lp198
I1
aI2
aI3
atp199
Rp200
atp201
Rp202
I720
sg1
((lp203
g1
((lp204
I3
aI4
aI5
aI6
atp205
Rp206
ag1
((lp207
I2
aI3
aI4
atp208
Rp209
ag1
((lp210
I1
aI2
aI5
atp211
Rp212
ag1
((lp213
I1
aI2
aI4
atp214
Rp215
ag1
((lp216
I1
aI4
aI5
atp217
Rp218
ag122
ag17
ag1
((lp219
I2
aI4
aI5
atp220
Rp221
atp222
Rp223
I720
sg1
((lp224
g107
ag1
((lp225
I2
aI5
aI6
atp226
Rp227
ag1
((lp228
I1
aI2
aI5
atp229
Rp230
ag68
ag1
((lp231
I1
aI3
aI4
aI5
atp232
Rp233
ag1
((lp234
I1
aI5
aI6
atp235
Rp236
ag1
((lp237
I1
aI4
aI6
atp238
Rp239
ag1
((lp240
I3
aI5
aI6
atp241
Rp242
atp243
Rp244
I720
sg1
((lp245
g1
((lp246
I3
aI4
aI6
atp247
Rp248
ag1
((lp249
I2
aI3
aI6
atp250
Rp251
ag1
((lp252
I2
aI3
aI4
atp253
Rp254
ag1
((lp255
I1
aI4
aI5
aI6
atp256
Rp257
ag1
((lp258
I1
aI2
aI4
atp259
Rp260
ag167
ag17
ag1
((lp261
I3
aI5
aI6
atp262
Rp263
atp264
Rp265
I720
sg1
((lp266
g1
((lp267
I1
aI3
aI5
atp268
Rp269
ag1
((lp270
I1
aI2
aI4
aI6
atp271
Rp272
ag1
((lp273
I3
aI4
aI5
atp274
Rp275
ag35
ag1
((lp276
I1
aI4
aI5
atp277
Rp278
ag1
((lp279
I1
aI3
aI4
atp280
Rp281
ag167
ag1
((lp282
I1
aI5
aI6
atp283
Rp284
atp285
Rp286
I720
sg1
((lp287
g1
((lp288
I2
aI3
aI6
atp289
Rp290
ag1
((lp291
I1
aI3
aI6
atp292
Rp293
ag38
ag1
((lp294
I2
aI4
aI6
atp295
Rp296
ag167
ag1
((lp297
I1
aI3
aI4
aI5
atp298
Rp299
ag1
((lp300
I1
aI4
aI6
atp301
Rp302
ag1
((lp303
I1
aI2
aI3
atp304
Rp305
atp306
Rp307
I720
sg1
((lp308
g1
((lp309
I2
aI3
aI6
atp310
Rp311
ag1
((lp312
I1
aI3
aI6
atp313
Rp314
ag1
((lp315
I1
aI2
atp316
Rp317
ag1
((lp318
I3
aI5
atp319
Rp320
ag1
((lp321
I2
aI3
aI4
atp322
Rp323
ag1
((lp324
I1
aI3
aI4
atp325
Rp326
ag1
((lp327
I2
aI4
aI5
aI6
atp328
Rp329
ag1
((lp330
I1
aI5
aI6
atp331
Rp332
atp333
Rp334
I720
sg1
((lp335
g1
((lp336
I3
aI4
aI6
atp337
Rp338
ag1
((lp339
I2
aI5
aI6
atp340
Rp341
ag1
((lp342
I3
aI4
aI5
atp343
Rp344
ag1
((lp345
I2
aI3
aI5
atp346
Rp347
ag317
ag1
((lp348
I1
aI4
aI5
aI6
atp349
Rp350
ag1
((lp351
I2
aI4
aI6
atp352
Rp353
ag17
atp354
Rp355
I360
sg1
((lp356
g1
((lp357
I1
aI2
aI4
aI6
atp358
Rp359
ag62
ag1
((lp360
I1
aI3
aI6
atp361
Rp362
ag38
ag1
((lp363
I1
aI2
aI5
atp364
Rp365
ag1
((lp366
I1
aI4
aI5
atp367
Rp368
ag1
((lp369
I1
aI3
aI4
atp370
Rp371
ag68
atp372
Rp373
I360
sg1
((lp374
g1
((lp375
I1
aI4
aI5
atp376
Rp377
ag1
((lp378
I1
aI3
aI5
atp379
Rp380
ag1
((lp381
I1
aI3
aI6
atp382
Rp383
ag1
((lp384
I2
aI4
aI6
atp385
Rp386
ag1
((lp387
I3
aI4
atp388
Rp389
ag68
ag1
((lp390
I3
aI5
aI6
atp391
Rp392
ag1
((lp393
I1
aI2
aI5
aI6
atp394
Rp395
atp396
Rp397
I360
sg1
((lp398
g1
((lp399
I1
aI4
aI5
atp400
Rp401
ag341
ag1
((lp402
I3
aI4
aI5
aI6
atp403
Rp404
ag317
ag353
ag17
ag1
((lp405
I1
aI5
aI6
atp406
Rp407
ag1
((lp408
I2
aI4
aI5
atp409
Rp410
atp411
Rp412
I360
sg1
((lp413
g1
((lp414
I3
aI4
aI5
atp415
Rp416
ag1
((lp417
I2
aI3
aI5
atp418
Rp419
ag317
ag11
ag1
((lp420
I1
aI3
aI4
atp421
Rp422
ag1
((lp423
I2
aI4
aI5
aI6
atp424
Rp425
ag1
((lp426
I1
aI4
aI6
atp427
Rp428
ag1
((lp429
I3
aI5
aI6
atp430
Rp431
atp432
Rp433
I720
sg1
((lp434
g1
((lp435
I3
aI4
aI6
atp436
Rp437
ag1
((lp438
I2
aI3
aI5
atp439
Rp440
ag11
ag1
((lp441
I1
aI2
aI3
aI6
atp442
Rp443
ag1
((lp444
I1
aI2
aI4
atp445
Rp446
ag1
((lp447
I1
aI3
aI4
atp448
Rp449
ag1
((lp450
I1
aI4
aI6
atp451
Rp452
ag176
atp453
Rp454
I720
sg1
((lp455
g1
((lp456
I2
aI3
aI6
atp457
Rp458
ag389
ag1
((lp459
I1
aI3
aI5
atp460
Rp461
ag98
ag1
((lp462
I1
aI2
aI6
atp463
Rp464
ag1
((lp465
I1
aI5
aI6
atp466
Rp467
ag1
((lp468
I1
aI2
aI3
atp469
Rp470
ag1
((lp471
I1
aI2
aI4
aI5
atp472
Rp473
atp474
Rp475
I360
sg1
((lp476
g1
((lp477
I1
aI3
aI5
atp478
Rp479
ag1
((lp480
I3
aI4
aI5
atp481
Rp482
ag1
((lp483
I1
aI2
aI3
aI4
atp484
Rp485
ag1
((lp486
I2
aI6
atp487
Rp488
ag1
((lp489
I4
aI5
aI6
atp490
Rp491
ag122
ag1
((lp492
I2
aI4
aI5
atp493
Rp494
ag1
((lp495
I3
aI5
aI6
atp496
Rp497
atp498
Rp499
I360
sg1
((lp500
g1
((lp501
I2
aI4
aI5
atp502
Rp503
ag1
((lp504
I2
aI5
aI6
atp505
Rp506
ag1
((lp507
I3
aI4
aI5
aI6
atp508
Rp509
ag1
((lp510
I2
aI4
aI6
atp511
Rp512
ag68
ag17
ag1
((lp513
I1
aI2
aI6
atp514
Rp515
ag1
((lp516
I1
aI4
aI6
atp517
Rp518
atp519
Rp520
I720
sg1
((lp521
g1
((lp522
I3
aI4
aI6
atp523
Rp524
ag320
ag1
((lp525
I1
aI2
aI5
atp526
Rp527
ag1
((lp528
I1
aI3
aI4
atp529
Rp530
ag68
ag1
((lp531
I2
aI4
aI5
aI6
atp532
Rp533
ag1
((lp534
I1
aI2
aI6
atp535
Rp536
ag1
((lp537
I1
aI5
aI6
atp538
Rp539
atp540
Rp541
I360
sg1
((lp542
g1
((lp543
I1
aI3
aI5
atp544
Rp545
ag1
((lp546
I2
aI3
aI5
atp547
Rp548
ag1
((lp549
I2
aI3
aI4
atp550
Rp551
ag1
((lp552
I1
aI2
aI3
aI6
atp553
Rp554
ag1
((lp555
I1
aI2
aI4
atp556
Rp557
ag1
((lp558
I1
aI3
aI4
atp559
Rp560
ag98
ag176
atp561
Rp562
I360
sg1
((lp563
g1
((lp564
I2
aI3
aI5
aI6
atp565
Rp566
ag344
ag317
ag1
((lp567
I2
aI3
aI4
atp568
Rp569
ag1
((lp570
I4
aI5
aI6
atp571
Rp572
ag401
ag17
ag1
((lp573
I1
aI4
aI6
atp574
Rp575
atp576
Rp577
I720
sg1
((lp578
g1
((lp579
I1
aI3
aI5
aI6
atp580
Rp581
ag1
((lp582
I2
aI5
aI6
atp583
Rp584
ag1
((lp585
I1
aI2
aI5
atp586
Rp587
ag1
((lp588
I1
aI2
aI4
atp589
Rp590
ag1
((lp591
I2
aI4
aI6
atp592
Rp593
ag389
ag1
((lp594
I1
aI4
aI6
atp595
Rp596
ag176
atp597
Rp598
I360
sg1
((lp599
g107
ag227
ag1
((lp600
I4
aI5
aI6
atp601
Rp602
ag68
ag1
((lp603
I1
aI3
aI4
aI5
atp604
Rp605
ag1
((lp606
I1
aI2
aI6
atp607
Rp608
ag236
ag239
atp609
Rp610
I360
sg1
((lp611
g38
ag320
ag1
((lp612
I1
aI2
aI5
atp613
Rp614
ag1
((lp615
I1
aI3
aI4
atp616
Rp617
ag1
((lp618
I2
aI3
aI4
aI6
atp619
Rp620
ag1
((lp621
I1
aI2
aI6
atp622
Rp623
ag1
((lp624
I1
aI4
aI6
atp625
Rp626
ag1
((lp627
I1
aI2
aI3
atp628
Rp629
atp630
Rp631
I360
sg1
((lp632
g1
((lp633
I3
aI4
aI5
aI6
atp634
Rp635
ag11
ag1
((lp636
I2
aI3
aI4
atp637
Rp638
ag1
((lp639
I1
aI3
aI6
atp640
Rp641
ag1
((lp642
I1
aI3
aI4
atp643
Rp644
ag1
((lp645
I1
aI4
aI6
atp646
Rp647
ag1
((lp648
I1
aI2
aI3
atp649
Rp650
ag488
atp651
Rp652
I720
sg1
((lp653
g1
((lp654
I3
aI4
aI6
atp655
Rp656
ag38
ag320
ag1
((lp657
I1
aI2
aI3
aI6
atp658
Rp659
ag1
((lp660
I2
aI3
aI4
atp661
Rp662
ag1
((lp663
I1
aI4
aI5
atp664
Rp665
ag617
ag1
((lp666
I2
aI4
aI5
atp667
Rp668
atp669
Rp670
I360
sg1
((lp671
g248
ag251
ag1
((lp672
I1
aI2
aI4
aI6
atp673
Rp674
ag1
((lp675
I3
aI4
aI5
atp676
Rp677
ag1
((lp678
I4
aI5
aI6
atp679
Rp680
ag1
((lp681
I1
aI4
aI5
atp682
Rp683
ag167
ag17
atp684
Rp685
I720
sg1
((lp686
g1
((lp687
I3
aI4
aI6
atp688
Rp689
ag1
((lp690
I1
aI3
aI5
atp691
Rp692
ag1
((lp693
I1
aI3
aI6
atp694
Rp695
ag38
ag488
ag1
((lp696
I1
aI3
aI4
atp697
Rp698
ag1
((lp699
I1
aI2
aI4
aI5
atp700
Rp701
ag1
((lp702
I1
aI2
aI3
atp703
Rp704
atp705
Rp706
I360
sg1
((lp707
g35
ag1
((lp708
I2
aI3
aI4
atp709
Rp710
ag1
((lp711
I1
aI2
aI3
aI5
atp712
Rp713
ag1
((lp714
I1
aI4
aI5
atp715
Rp716
ag1
((lp717
I1
aI3
aI4
atp718
Rp719
ag98
ag1
((lp720
I1
aI2
aI6
atp721
Rp722
ag1
((lp723
I2
aI4
aI5
atp724
Rp725
atp726
Rp727
I360
sg1
((lp728
g1
((lp729
I1
aI2
aI4
aI6
atp730
Rp731
ag1
((lp732
I1
aI3
aI6
atp733
Rp734
ag320
ag1
((lp735
I1
aI2
aI5
atp736
Rp737
ag1
((lp738
I1
aI4
aI5
atp739
Rp740
ag389
ag1
((lp741
I1
aI5
aI6
atp742
Rp743
ag1
((lp744
I1
aI2
aI3
atp745
Rp746
atp747
Rp748
I360
sg1
((lp749
g1
((lp750
I3
aI4
aI5
atp751
Rp752
ag35
ag38
ag1
((lp753
I1
aI2
aI3
aI5
atp754
Rp755
ag41
ag44
ag1
((lp756
I1
aI2
aI6
atp757
Rp758
ag50
atp759
Rp760
I180
sg1
((lp761
g320
ag1
((lp762
I1
aI2
aI3
aI6
atp763
Rp764
ag1
((lp765
I1
aI2
aI4
atp766
Rp767
ag1
((lp768
I2
aI4
aI6
atp769
Rp770
ag1
((lp771
I1
aI3
aI4
atp772
Rp773
ag167
ag1
((lp774
I1
aI4
aI6
atp775
Rp776
ag1
((lp777
I4
aI5
aI6
atp778
Rp779
atp780
Rp781
I720
sg1
((lp782
g1
((lp783
I1
aI3
aI5
atp784
Rp785
ag1
((lp786
I2
aI5
aI6
atp787
Rp788
ag1
((lp789
I3
aI4
aI5
atp790
Rp791
ag35
ag1
((lp792
I1
aI4
aI5
aI6
atp793
Rp794
ag1
((lp795
I1
aI3
aI4
atp796
Rp797
ag68
ag1
((lp798
I1
aI2
aI6
atp799
Rp800
atp801
Rp802
I360
sg1
((lp803
g1
((lp804
I1
aI4
aI5
atp805
Rp806
ag1
((lp807
I2
aI3
aI6
atp808
Rp809
ag1
((lp810
I1
aI2
aI3
aI4
atp811
Rp812
ag38
ag1
((lp813
I1
aI2
aI5
atp814
Rp815
ag1
((lp816
I2
aI4
aI6
atp817
Rp818
ag1
((lp819
I2
aI3
aI5
atp820
Rp821
ag122
atp822
Rp823
I720
sg1
((lp824
g1
((lp825
I1
aI3
aI5
atp826
Rp827
ag1
((lp828
I3
aI4
aI5
atp829
Rp830
ag35
ag1
((lp831
I2
aI3
aI5
atp832
Rp833
ag710
ag719
ag98
ag1
((lp834
I1
aI2
aI4
aI5
atp835
Rp836
atp837
Rp838
I360
sg1
((lp839
g1
((lp840
I2
aI3
aI5
atp841
Rp842
ag1
((lp843
I1
aI3
aI4
aI6
atp844
Rp845
ag11
ag638
ag1
((lp846
I4
aI5
aI6
atp847
Rp848
ag1
((lp849
I2
aI4
aI5
atp850
Rp851
ag1
((lp852
I3
aI5
aI6
atp853
Rp854
ag488
atp855
Rp856
I360
sg1
((lp857
g35
ag1
((lp858
I1
aI2
aI3
aI4
atp859
Rp860
ag1
((lp861
I2
aI4
aI6
atp862
Rp863
ag1
((lp864
I2
aI3
aI5
atp865
Rp866
ag1
((lp867
I1
aI2
aI6
atp868
Rp869
ag1
((lp870
I1
aI5
aI6
atp871
Rp872
ag1
((lp873
I1
aI4
aI6
atp874
Rp875
ag176
atp876
Rp877
I720
sg1
((lp878
g1
((lp879
I2
aI3
aI6
atp880
Rp881
ag1
((lp882
I3
aI4
aI5
atp883
Rp884
ag191
ag1
((lp885
I1
aI2
aI3
aI5
atp886
Rp887
ag98
ag1
((lp888
I1
aI2
aI6
atp889
Rp890
ag1
((lp891
I1
aI5
aI6
atp892
Rp893
ag1
((lp894
I3
aI5
aI6
atp895
Rp896
atp897
Rp898
I720
sg1
((lp899
g182
ag185
ag38
ag191
ag1
((lp900
I2
aI3
aI4
aI6
atp901
Rp902
ag1
((lp903
I1
aI2
aI6
atp904
Rp905
ag1
((lp906
I2
aI4
aI5
atp907
Rp908
ag200
atp909
Rp910
I720
sg1
((lp911
g437
ag1
((lp912
I1
aI2
aI3
aI4
atp913
Rp914
ag11
ag1
((lp915
I1
aI3
aI6
atp916
Rp917
ag1
((lp918
I1
aI2
aI6
atp919
Rp920
ag452
ag1
((lp921
I3
aI5
aI6
atp922
Rp923
ag176
atp924
Rp925
I720
sg1
((lp926
g1
((lp927
I1
aI4
aI6
atp928
Rp929
ag1
((lp930
I3
aI4
aI5
atp931
Rp932
ag1
((lp933
I2
aI3
aI5
atp934
Rp935
ag38
ag11
ag1
((lp936
I1
aI2
aI4
atp937
Rp938
ag1
((lp939
I2
aI3
aI4
aI6
atp940
Rp941
ag1
((lp942
I2
aI4
aI5
atp943
Rp944
atp945
Rp946
I720
sg1
((lp947
g107
ag1
((lp948
I2
aI3
aI6
atp949
Rp950
ag1
((lp951
I3
aI4
aI5
atp952
Rp953
ag1
((lp954
I1
aI3
aI6
atp955
Rp956
ag1
((lp957
I1
aI4
aI5
aI6
atp958
Rp959
ag1
((lp960
I1
aI3
aI4
atp961
Rp962
ag167
ag1
((lp963
I1
aI2
aI6
atp964
Rp965
atp966
Rp967
I720
sg1
((lp968
g1
((lp969
I1
aI3
aI5
atp970
Rp971
ag1
((lp972
I2
aI3
aI5
aI6
atp973
Rp974
ag1
((lp975
I1
aI3
aI6
atp976
Rp977
ag593
ag389
ag1
((lp978
I1
aI5
aI6
atp979
Rp980
ag596
ag176
atp981
Rp982
I360
sg1
((lp983
g107
ag1
((lp984
I3
aI4
aI6
atp985
Rp986
ag1
((lp987
I2
aI3
aI5
atp988
Rp989
ag317
ag1
((lp990
I4
aI5
aI6
atp991
Rp992
ag1
((lp993
I1
aI3
aI6
atp994
Rp995
ag1
((lp996
I1
aI3
aI4
aI5
atp997
Rp998
ag1
((lp999
I1
aI4
aI6
atp1000
Rp1001
atp1002
Rp1003
I720
sg1
((lp1004
g1
((lp1005
I3
aI4
aI6
atp1006
Rp1007
ag1
((lp1008
I2
aI3
aI6
atp1009
Rp1010
ag1
((lp1011
I2
aI3
aI5
atp1012
Rp1013
ag1
((lp1014
I3
aI5
aI6
atp1015
Rp1016
ag191
ag122
ag1
((lp1017
I2
aI4
aI5
aI6
atp1018
Rp1019
ag1
((lp1020
I1
aI2
aI3
atp1021
Rp1022
atp1023
Rp1024
I720
sg1
((lp1025
g1
((lp1026
I3
aI4
aI6
atp1027
Rp1028
ag488
ag1
((lp1029
I1
aI2
aI4
atp1030
Rp1031
ag1
((lp1032
I1
aI4
aI5
atp1033
Rp1034
ag17
ag1
((lp1035
I4
aI5
aI6
atp1036
Rp1037
ag1
((lp1038
I1
aI4
aI6
atp1039
Rp1040
ag1
((lp1041
I2
aI3
aI4
aI5
atp1042
Rp1043
atp1044
Rp1045
I360
sg1
((lp1046
g35
ag1
((lp1047
I4
aI5
aI6
atp1048
Rp1049
ag1
((lp1050
I2
aI4
aI6
atp1051
Rp1052
ag68
ag1
((lp1053
I1
aI3
aI4
aI5
atp1054
Rp1055
ag800
ag1
((lp1056
I1
aI5
aI6
atp1057
Rp1058
ag1
((lp1059
I1
aI4
aI6
atp1060
Rp1061
atp1062
Rp1063
I360
sg1
((lp1064
g1
((lp1065
I2
aI5
aI6
atp1066
Rp1067
ag830
ag35
ag1
((lp1068
I1
aI2
aI3
aI5
atp1069
Rp1070
ag719
ag98
ag722
ag725
atp1071
Rp1072
I720
sg1
((lp1073
g1
((lp1074
I1
aI2
aI5
aI6
atp1075
Rp1076
ag1
((lp1077
I1
aI3
aI5
atp1078
Rp1079
ag1
((lp1080
I2
aI3
aI5
atp1081
Rp1082
ag191
ag1
((lp1083
I4
aI5
aI6
atp1084
Rp1085
ag1
((lp1086
I2
aI4
aI6
atp1087
Rp1088
ag389
ag1
((lp1089
I1
aI2
aI3
atp1090
Rp1091
atp1092
Rp1093
I360
sg1
((lp1094
g1
((lp1095
I2
aI5
aI6
atp1096
Rp1097
ag35
ag1
((lp1098
I1
aI2
aI5
atp1099
Rp1100
ag389
ag1
((lp1101
I1
aI5
aI6
atp1102
Rp1103
ag1
((lp1104
I2
aI4
aI5
atp1105
Rp1106
ag1
((lp1107
I1
aI2
aI3
atp1108
Rp1109
ag1
((lp1110
I1
aI2
aI4
aI6
atp1111
Rp1112
atp1113
Rp1114
I720
sg1
((lp1115
g1
((lp1116
I3
aI4
aI5
aI6
atp1117
Rp1118
ag1
((lp1119
I1
aI2
aI5
atp1120
Rp1121
ag512
ag68
ag17
ag515
ag1
((lp1122
I1
aI5
aI6
atp1123
Rp1124
ag518
atp1125
Rp1126
I720
sg1
((lp1127
g1
((lp1128
I2
aI5
aI6
atp1129
Rp1130
ag35
ag1
((lp1131
I2
aI3
aI5
atp1132
Rp1133
ag1
((lp1134
I2
aI3
aI4
atp1135
Rp1136
ag1
((lp1137
I1
aI2
aI5
atp1138
Rp1139
ag1
((lp1140
I2
aI4
aI6
atp1141
Rp1142
ag122
ag1
((lp1143
I1
aI3
aI4
aI5
atp1144
Rp1145
atp1146
Rp1147
I720
sg1
((lp1148
g437
ag1
((lp1149
I2
aI3
aI6
atp1150
Rp1151
ag1
((lp1152
I2
aI5
aI6
atp1153
Rp1154
ag1
((lp1155
I1
aI2
aI3
aI4
atp1156
Rp1157
ag11
ag917
ag452
ag176
atp1158
Rp1159
I360
sg1
((lp1160
g785
ag35
ag1
((lp1161
I1
aI2
aI4
atp1162
Rp1163
ag68
ag1
((lp1164
I2
aI4
aI5
aI6
atp1165
Rp1166
ag800
ag1058
ag1061
atp1167
Rp1168
I720
sg1
((lp1169
g1151
ag923
ag11
ag446
ag1
((lp1170
I2
aI4
aI6
atp1171
Rp1172
ag920
ag1
((lp1173
I1
aI3
aI4
aI6
atp1174
Rp1175
ag176
atp1176
Rp1177
I360
sg1
((lp1178
g1
((lp1179
I2
aI5
aI6
atp1180
Rp1181
ag1
((lp1182
I2
aI3
aI5
atp1183
Rp1184
ag191
ag1
((lp1185
I1
aI2
aI5
atp1186
Rp1187
ag1
((lp1188
I4
aI5
aI6
atp1189
Rp1190
ag1
((lp1191
I2
aI3
aI4
aI6
atp1192
Rp1193
ag17
ag1
((lp1194
I2
aI4
aI5
atp1195
Rp1196
atp1197
Rp1198
I720
sg1
((lp1199
g1
((lp1200
I3
aI4
aI6
atp1201
Rp1202
ag1
((lp1203
I2
aI3
aI6
atp1204
Rp1205
ag1
((lp1206
I1
aI2
aI4
aI6
atp1207
Rp1208
ag1
((lp1209
I1
aI3
aI6
atp1210
Rp1211
ag11
ag320
ag1
((lp1212
I2
aI3
aI4
atp1213
Rp1214
ag1
((lp1215
I1
aI2
aI3
atp1216
Rp1217
atp1218
Rp1219
I360
sg1
((lp1220
g1079
ag1082
ag191
ag1
((lp1221
I1
aI2
aI5
atp1222
Rp1223
ag389
ag1
((lp1224
I2
aI4
aI5
aI6
atp1225
Rp1226
ag1
((lp1227
I1
aI5
aI6
atp1228
Rp1229
ag1
((lp1230
I3
aI5
aI6
atp1231
Rp1232
atp1233
Rp1234
I180
sg1
((lp1235
g791
ag35
ag1
((lp1236
I1
aI2
aI5
atp1237
Rp1238
ag1163
ag68
ag1
((lp1239
I2
aI4
aI5
aI6
atp1240
Rp1241
ag1058
ag1061
atp1242
Rp1243
I180
sg1
((lp1244
g440
ag11
ag1
((lp1245
I1
aI2
aI3
aI6
atp1246
Rp1247
ag1172
ag449
ag452
ag923
ag176
atp1248
Rp1249
I720
sg1
((lp1250
g1
((lp1251
I3
aI4
aI6
atp1252
Rp1253
ag1
((lp1254
I1
aI3
aI6
atp1255
Rp1256
ag11
ag191
ag1
((lp1257
I2
aI3
aI4
atp1258
Rp1259
ag1
((lp1260
I2
aI4
aI5
aI6
atp1261
Rp1262
ag1
((lp1263
I1
aI2
aI6
atp1264
Rp1265
ag1
((lp1266
I3
aI5
aI6
atp1267
Rp1268
atp1269
Rp1270
I720
sg1
((lp1271
g1
((lp1272
I3
aI4
aI5
atp1273
Rp1274
ag38
ag488
ag1
((lp1275
I1
aI2
aI5
atp1276
Rp1277
ag1
((lp1278
I1
aI2
aI4
atp1279
Rp1280
ag1
((lp1281
I1
aI4
aI5
atp1282
Rp1283
ag1
((lp1284
I2
aI4
aI5
atp1285
Rp1286
ag1
((lp1287
I1
aI3
aI4
aI6
atp1288
Rp1289
atp1290
Rp1291
I720
sg1
((lp1292
g1
((lp1293
I2
aI3
aI6
atp1294
Rp1295
ag1
((lp1296
I3
aI4
aI5
atp1297
Rp1298
ag1
((lp1299
I1
aI3
aI6
atp1300
Rp1301
ag317
ag191
ag1
((lp1302
I1
aI3
aI5
atp1303
Rp1304
ag1
((lp1305
I2
aI4
aI5
aI6
atp1306
Rp1307
ag1
((lp1308
I1
aI5
aI6
atp1309
Rp1310
atp1311
Rp1312
I360
sg1
((lp1313
g35
ag1238
ag1163
ag68
ag1
((lp1314
I1
aI3
aI4
aI5
atp1315
Rp1316
ag800
ag1
((lp1317
I2
aI4
aI5
atp1318
Rp1319
ag1049
atp1320
Rp1321
I360
sg1
((lp1322
g1
((lp1323
I4
aI5
aI6
atp1324
Rp1325
ag1
((lp1326
I1
aI2
aI4
atp1327
Rp1328
ag68
ag167
ag1
((lp1329
I1
aI3
aI4
aI5
atp1330
Rp1331
ag1
((lp1332
I1
aI5
aI6
atp1333
Rp1334
ag1
((lp1335
I1
aI4
aI6
atp1336
Rp1337
ag1
((lp1338
I3
aI5
aI6
atp1339
Rp1340
atp1341
Rp1342
I360
sg1
((lp1343
g1
((lp1344
I2
aI5
aI6
atp1345
Rp1346
ag1
((lp1347
I3
aI4
aI5
atp1348
Rp1349
ag11
ag191
ag1
((lp1350
I4
aI5
aI6
atp1351
Rp1352
ag1
((lp1353
I2
aI4
aI6
atp1354
Rp1355
ag1
((lp1356
I1
aI2
aI3
aI6
atp1357
Rp1358
ag1
((lp1359
I2
aI4
aI5
atp1360
Rp1361
atp1362
Rp1363
I180
sg1
((lp1364
g1
((lp1365
I1
aI2
aI4
atp1366
Rp1367
ag1
((lp1368
I1
aI3
aI6
atp1369
Rp1370
ag38
ag1
((lp1371
I1
aI2
aI3
aI5
atp1372
Rp1373
ag1
((lp1374
I2
aI3
aI4
atp1375
Rp1376
ag1
((lp1377
I1
aI3
aI4
atp1378
Rp1379
ag98
ag1
((lp1380
I2
aI4
aI5
atp1381
Rp1382
atp1383
Rp1384
I360
sg1
((lp1385
g1
((lp1386
I3
aI4
aI6
atp1387
Rp1388
ag479
ag1
((lp1389
I1
aI2
aI3
atp1390
Rp1391
ag488
ag1
((lp1392
I2
aI3
aI4
atp1393
Rp1394
ag122
ag1
((lp1395
I1
aI2
aI4
aI5
atp1396
Rp1397
ag497
atp1398
Rp1399
I360
sg1
((lp1400
g1
((lp1401
I2
aI5
aI6
atp1402
Rp1403
ag320
ag1
((lp1404
I2
aI3
aI4
atp1405
Rp1406
ag1
((lp1407
I4
aI5
aI6
atp1408
Rp1409
ag1
((lp1410
I1
aI4
aI5
atp1411
Rp1412
ag17
ag1
((lp1413
I1
aI5
aI6
atp1414
Rp1415
ag1
((lp1416
I1
aI2
aI4
aI6
atp1417
Rp1418
atp1419
Rp1420
I720
sg1
((lp1421
g1
((lp1422
I1
aI2
aI5
aI6
atp1423
Rp1424
ag734
ag320
ag1
((lp1425
I1
aI2
aI4
atp1426
Rp1427
ag1
((lp1428
I2
aI4
aI6
atp1429
Rp1430
ag389
ag1
((lp1431
I1
aI4
aI6
atp1432
Rp1433
ag1
((lp1434
I4
aI5
aI6
atp1435
Rp1436
atp1437
Rp1438
I720
sg1
((lp1439
g692
ag1274
ag38
ag488
ag1277
ag1280
ag1286
ag1
((lp1440
I1
aI3
aI4
aI6
atp1441
Rp1442
atp1443
Rp1444
I360
sg1
((lp1445
g35
ag320
ag1
((lp1446
I2
aI3
aI4
atp1447
Rp1448
ag1
((lp1449
I2
aI4
aI6
atp1450
Rp1451
ag1
((lp1452
I1
aI3
aI4
atp1453
Rp1454
ag1
((lp1455
I1
aI2
aI6
atp1456
Rp1457
ag1
((lp1458
I1
aI5
aI6
atp1459
Rp1460
ag1
((lp1461
I1
aI2
aI4
aI5
atp1462
Rp1463
atp1464
Rp1465
I720
sg1
((lp1466
g1
((lp1467
I1
aI3
aI5
atp1468
Rp1469
ag1
((lp1470
I2
aI5
aI6
atp1471
Rp1472
ag1
((lp1473
I3
aI4
aI5
aI6
atp1474
Rp1475
ag191
ag1
((lp1476
I1
aI2
aI5
atp1477
Rp1478
ag1
((lp1479
I2
aI4
aI6
atp1480
Rp1481
ag122
ag1022
atp1482
Rp1483
I720
sg1
((lp1484
g1007
ag1469
ag1
((lp1485
I2
aI3
aI5
aI6
atp1486
Rp1487
ag1
((lp1488
I3
aI4
aI5
atp1489
Rp1490
ag191
ag1478
ag1
((lp1491
I4
aI5
aI6
atp1492
Rp1493
ag122
atp1494
Rp1495
I720
sg1
((lp1496
g1
((lp1497
I3
aI4
aI6
atp1498
Rp1499
ag1295
ag1
((lp1500
I2
aI5
aI6
atp1501
Rp1502
ag1298
ag1
((lp1503
I1
aI3
aI5
aI6
atp1504
Rp1505
ag317
ag191
ag1
((lp1506
I2
aI4
aI6
atp1507
Rp1508
atp1509
Rp1510
I720
sg1
((lp1511
g50
ag35
ag38
ag1
((lp1512
I1
aI2
aI5
atp1513
Rp1514
ag44
ag1
((lp1515
I1
aI3
aI4
aI5
atp1516
Rp1517
ag1
((lp1518
I2
aI4
aI5
atp1519
Rp1520
ag1
((lp1521
I1
aI2
aI3
atp1522
Rp1523
atp1524
Rp1525
I720
sg1
((lp1526
g788
ag35
ag1049
ag1052
ag68
ag1
((lp1527
I1
aI3
aI4
aI5
atp1528
Rp1529
ag800
ag1058
atp1530
Rp1531
I360
sg1
((lp1532
g107
ag1
((lp1533
I1
aI3
aI5
atp1534
Rp1535
ag1
((lp1536
I2
aI5
aI6
atp1537
Rp1538
ag1
((lp1539
I2
aI3
aI5
atp1540
Rp1541
ag1
((lp1542
I1
aI2
aI5
atp1543
Rp1544
ag389
ag1
((lp1545
I1
aI2
aI3
aI6
atp1546
Rp1547
ag1
((lp1548
I3
aI5
aI6
atp1549
Rp1550
atp1551
Rp1552
I180
sg1
((lp1553
g1
((lp1554
I1
aI3
aI6
atp1555
Rp1556
ag1328
ag68
ag167
ag1
((lp1557
I1
aI3
aI4
aI5
atp1558
Rp1559
ag1
((lp1560
I1
aI2
aI6
atp1561
Rp1562
ag1334
ag1337
atp1563
Rp1564
I360
sg1
((lp1565
g1
((lp1566
I3
aI4
aI6
atp1567
Rp1568
ag512
ag68
ag17
ag515
ag1
((lp1569
I1
aI2
aI4
aI5
atp1570
Rp1571
ag518
ag1
((lp1572
I3
aI5
aI6
atp1573
Rp1574
atp1575
Rp1576
I360
sg1
((lp1577
g1403
ag320
ag1
((lp1578
I1
aI2
aI4
atp1579
Rp1580
ag1412
ag1
((lp1581
I2
aI3
aI4
aI6
atp1582
Rp1583
ag17
ag1415
ag1409
atp1584
Rp1585
I720
sg1
((lp1586
g1
((lp1587
I2
aI5
aI6
atp1588
Rp1589
ag35
ag320
ag1
((lp1590
I1
aI4
aI5
aI6
atp1591
Rp1592
ag1451
ag1454
ag1
((lp1593
I1
aI2
aI5
atp1594
Rp1595
ag1
((lp1596
I1
aI2
aI3
atp1597
Rp1598
atp1599
Rp1600
I720
sg1
((lp1601
g1
((lp1602
I1
aI3
aI5
atp1603
Rp1604
ag1
((lp1605
I1
aI4
aI5
aI6
atp1606
Rp1607
ag1
((lp1608
I1
aI2
aI4
atp1609
Rp1610
ag1
((lp1611
I2
aI4
aI6
atp1612
Rp1613
ag389
ag167
ag1
((lp1614
I1
aI2
aI6
atp1615
Rp1616
ag1
((lp1617
I3
aI5
aI6
atp1618
Rp1619
atp1620
Rp1621
I360
sg1
((lp1622
g1
((lp1623
I2
aI3
aI6
atp1624
Rp1625
ag1
((lp1626
I1
aI2
aI3
aI4
atp1627
Rp1628
ag38
ag11
ag944
ag1
((lp1629
I2
aI4
aI6
atp1630
Rp1631
ag935
ag929
atp1632
Rp1633
I720
sg1
((lp1634
g107
ag1
((lp1635
I3
aI4
aI6
atp1636
Rp1637
ag1
((lp1638
I1
aI3
aI5
atp1639
Rp1640
ag1
((lp1641
I3
aI4
aI5
atp1642
Rp1643
ag1
((lp1644
I1
aI3
aI6
atp1645
Rp1646
ag488
ag1
((lp1647
I1
aI4
aI5
aI6
atp1648
Rp1649
ag1
((lp1650
I1
aI2
aI3
atp1651
Rp1652
atp1653
Rp1654
I720
sg1
((lp1655
g1067
ag35
ag833
ag710
ag1
((lp1656
I1
aI2
aI5
atp1657
Rp1658
ag98
ag1
((lp1659
I1
aI3
aI4
aI5
atp1660
Rp1661
ag725
atp1662
Rp1663
I360
sg1
((lp1664
g1
((lp1665
I2
aI3
aI5
aI6
atp1666
Rp1667
ag1
((lp1668
I1
aI3
aI6
atp1669
Rp1670
ag191
ag1223
ag1085
ag1088
ag389
ag1
((lp1671
I1
aI2
aI6
atp1672
Rp1673
atp1674
Rp1675
I720
sg1
((lp1676
g107
ag1
((lp1677
I1
aI3
aI5
atp1678
Rp1679
ag1
((lp1680
I2
aI5
aI6
atp1681
Rp1682
ag1
((lp1683
I2
aI3
aI5
atp1684
Rp1685
ag1
((lp1686
I1
aI2
aI3
aI6
atp1687
Rp1688
ag1
((lp1689
I1
aI3
aI4
atp1690
Rp1691
ag98
ag1
((lp1692
I1
aI5
aI6
atp1693
Rp1694
atp1695
Rp1696
I360
sg1
((lp1697
g1
((lp1698
I1
aI3
aI5
aI6
atp1699
Rp1700
ag1
((lp1701
I2
aI3
aI6
atp1702
Rp1703
ag584
ag590
ag593
ag389
ag596
ag176
atp1704
Rp1705
I360
sg1
((lp1706
g932
ag935
ag38
ag11
ag938
ag1
((lp1707
I1
aI3
aI4
atp1708
Rp1709
ag1
((lp1710
I2
aI3
aI4
aI6
atp1711
Rp1712
ag929
atp1713
Rp1714
I720
sg1
((lp1715
g1
((lp1716
I1
aI4
aI6
atp1717
Rp1718
ag1
((lp1719
I3
aI4
aI5
aI6
atp1720
Rp1721
ag488
ag1
((lp1722
I1
aI2
aI5
atp1723
Rp1724
ag1
((lp1725
I1
aI4
aI5
atp1726
Rp1727
ag1
((lp1728
I1
aI3
aI4
atp1729
Rp1730
ag68
ag1
((lp1731
I2
aI4
aI5
atp1732
Rp1733
atp1734
Rp1735
I360
sg1
((lp1736
g1
((lp1737
I2
aI3
aI6
atp1738
Rp1739
ag1
((lp1740
I2
aI5
aI6
atp1741
Rp1742
ag320
ag389
ag1
((lp1743
I1
aI2
aI6
atp1744
Rp1745
ag743
ag746
ag1
((lp1746
I1
aI2
aI4
aI5
atp1747
Rp1748
atp1749
Rp1750
I720
sg1
((lp1751
g1403
ag320
ag1
((lp1752
I1
aI4
aI5
aI6
atp1753
Rp1754
ag1580
ag1
((lp1755
I2
aI4
aI6
atp1756
Rp1757
ag1
((lp1758
I1
aI2
aI5
atp1759
Rp1760
ag17
ag1
((lp1761
I1
aI2
aI6
atp1762
Rp1763
atp1764
Rp1765
I720
sg1
((lp1766
g1
((lp1767
I2
aI5
aI6
atp1768
Rp1769
ag1
((lp1770
I1
aI3
aI6
atp1771
Rp1772
ag320
ag1
((lp1773
I1
aI4
aI5
aI6
atp1774
Rp1775
ag530
ag68
ag527
ag1
((lp1776
I2
aI4
aI5
atp1777
Rp1778
atp1779
Rp1780
I360
sg1
((lp1781
g1
((lp1782
I3
aI4
aI6
atp1783
Rp1784
ag1
((lp1785
I2
aI3
aI6
atp1786
Rp1787
ag1
((lp1788
I2
aI5
aI6
atp1789
Rp1790
ag1
((lp1791
I1
aI2
aI3
aI4
atp1792
Rp1793
ag320
ag1
((lp1794
I4
aI5
aI6
atp1795
Rp1796
ag1
((lp1797
I2
aI4
aI6
atp1798
Rp1799
ag122
atp1800
Rp1801
I360
sg1
((lp1802
g1
((lp1803
I2
aI5
aI6
atp1804
Rp1805
ag419
ag317
ag11
ag1
((lp1806
I2
aI3
aI4
atp1807
Rp1808
ag1
((lp1809
I4
aI5
aI6
atp1810
Rp1811
ag1
((lp1812
I2
aI4
aI5
atp1813
Rp1814
ag1
((lp1815
I1
aI3
aI4
aI6
atp1816
Rp1817
atp1818
Rp1819
I360
sg1
((lp1820
g1
((lp1821
I1
aI3
aI6
atp1822
Rp1823
ag1
((lp1824
I3
aI5
aI6
atp1825
Rp1826
ag11
ag1
((lp1827
I1
aI2
aI4
atp1828
Rp1829
ag1
((lp1830
I1
aI3
aI4
atp1831
Rp1832
ag167
ag1
((lp1833
I2
aI3
aI4
aI6
atp1834
Rp1835
ag1
((lp1836
I1
aI2
aI3
atp1837
Rp1838
atp1839
Rp1840
I720
sg1
((lp1841
g1
((lp1842
I3
aI4
aI6
atp1843
Rp1844
ag1
((lp1845
I2
aI3
aI5
aI6
atp1846
Rp1847
ag1
((lp1848
I3
aI4
aI5
atp1849
Rp1850
ag191
ag1
((lp1851
I2
aI3
aI4
atp1852
Rp1853
ag1187
ag17
ag1196
atp1854
Rp1855
I360
sg1
((lp1856
g1742
ag320
ag1427
ag1430
ag389
ag1
((lp1857
I1
aI2
aI3
aI6
atp1858
Rp1859
ag743
ag1433
atp1860
Rp1861
I360
s.