(dp0
c__builtin__
frozenset
p1
((lp2
g1
((lp3
I1
aI3
aI5
atp4
Rp5
ag1
((lp6
I3
aI4
aI5
atp7
Rp8
ag1
((lp9
I3
aI6
atp10
Rp11
ag1
((lp12
I5
aI6
atp13
Rp14
ag1
((lp15
I1
aI3
aI4
atp16
Rp17
ag1
((lp18
I1
aI4
aI6
atp19
Rp20
ag1
((lp21
I2
aI4
aI5
atp22
Rp23
atp24
Rp25
I720
sg1
((lp26
g1
((lp27
I1
aI5
atp28
Rp29
ag1
((lp30
I2
aI3
aI4
atp31
Rp32
ag1
((lp33
I1
aI2
aI4
atp34
Rp35
ag1
((lp36
I2
aI4
aI6
atp37
Rp38
ag1
((lp39
I1
aI3
aI4
atp40
Rp41
ag1
((lp42
I1
aI6
atp43
Rp44
ag1
((lp45
I3
aI5
aI6
atp46
Rp47
atp48
Rp49
I720
sg1
((lp50
g1
((lp51
I3
aI4
aI6
atp52
Rp53
ag1
((lp54
I3
aI4
aI5
atp55
Rp56
ag14
ag1
((lp57
I1
aI3
aI4
atp58
Rp59
ag1
((lp60
I2
aI3
atp61
Rp62
ag1
((lp63
I1
aI2
aI6
atp64
Rp65
ag1
((lp66
I1
aI4
aI6
atp67
Rp68
atp69
Rp70
I720
sg1
((lp71
g1
((lp72
I2
aI3
aI6
atp73
Rp74
ag1
((lp75
I2
aI5
aI6
atp76
Rp77
ag1
((lp78
I3
aI4
aI5
atp79
Rp80
ag1
((lp81
I1
aI2
atp82
Rp83
ag29
ag1
((lp84
I2
aI3
aI4
atp85
Rp86
ag1
((lp87
I4
aI5
aI6
atp88
Rp89
atp90
Rp91
I360
sg1
((lp92
g1
((lp93
I2
aI5
aI6
atp94
Rp95
ag1
((lp96
I1
aI3
aI6
atp97
Rp98
ag29
ag1
((lp99
I1
aI2
aI4
atp100
Rp101
ag1
((lp102
I3
aI4
atp103
Rp104
ag1
((lp105
I1
aI2
aI6
atp106
Rp107
ag1
((lp108
I2
aI4
aI5
atp109
Rp110
atp111
Rp112
I720
sg1
((lp113
g1
((lp114
I2
aI3
aI6
atp115
Rp116
ag1
((lp117
I2
aI5
aI6
atp118
Rp119
ag1
((lp120
I1
aI2
aI5
atp121
Rp122
ag1
((lp123
I1
aI4
aI5
atp124
Rp125
ag1
((lp126
I4
aI6
atp127
Rp128
ag1
((lp129
I1
aI3
atp130
Rp131
ag1
((lp132
I3
aI5
aI6
atp133
Rp134
atp135
Rp136
I720
sg1
((lp137
g1
((lp138
I1
aI2
aI5
atp139
Rp140
ag1
((lp141
I1
aI2
aI4
atp142
Rp143
ag1
((lp144
I2
aI4
aI6
atp145
Rp146
ag104
ag1
((lp147
I1
aI5
aI6
atp148
Rp149
ag1
((lp150
I1
aI2
aI3
atp151
Rp152
ag1
((lp153
I4
aI5
atp154
Rp155
atp156
Rp157
I720
sg1
((lp158
g1
((lp159
I2
aI5
aI6
atp160
Rp161
ag11
ag1
((lp162
I1
aI4
atp163
Rp164
ag1
((lp165
I1
aI2
aI5
atp166
Rp167
ag1
((lp168
I4
aI5
aI6
atp169
Rp170
ag1
((lp171
I2
aI4
aI5
atp172
Rp173
ag1
((lp174
I1
aI2
aI3
atp175
Rp176
atp177
Rp178
I720
sg1
((lp179
g1
((lp180
I1
aI2
aI5
atp181
Rp182
ag1
((lp183
I1
aI2
aI4
atp184
Rp185
ag1
((lp186
I2
aI4
aI6
atp187
Rp188
ag131
ag1
((lp189
I1
aI5
aI6
atp190
Rp191
ag1
((lp192
I3
aI5
aI6
atp193
Rp194
ag155
atp195
Rp196
I720
sg1
((lp197
g1
((lp198
I1
aI3
aI5
atp199
Rp200
ag1
((lp201
I2
aI5
aI6
atp202
Rp203
ag11
ag1
((lp204
I1
aI3
aI4
atp205
Rp206
ag44
ag1
((lp207
I2
aI4
aI5
atp208
Rp209
ag1
((lp210
I1
aI2
aI3
atp211
Rp212
atp213
Rp214
I180
sg1
((lp215
g1
((lp216
I3
aI4
aI6
atp217
Rp218
ag1
((lp219
I2
aI5
aI6
atp220
Rp221
ag29
ag1
((lp222
I2
aI4
aI6
atp223
Rp224
ag1
((lp225
I1
aI2
aI6
atp226
Rp227
ag1
((lp228
I1
aI4
aI6
atp229
Rp230
ag155
atp231
Rp232
I720
sg1
((lp233
g1
((lp234
I1
aI3
aI5
atp235
Rp236
ag1
((lp237
I2
aI5
aI6
atp238
Rp239
ag164
ag1
((lp240
I1
aI2
aI5
atp241
Rp242
ag1
((lp243
I4
aI5
aI6
atp244
Rp245
ag44
ag1
((lp246
I1
aI2
aI3
atp247
Rp248
atp249
Rp250
I720
sg1
((lp251
g1
((lp252
I1
aI3
aI5
atp253
Rp254
ag1
((lp255
I2
aI5
aI6
atp256
Rp257
ag1
((lp258
I1
aI2
aI4
atp259
Rp260
ag1
((lp261
I1
aI3
aI4
atp262
Rp263
ag128
ag1
((lp264
I1
aI5
aI6
atp265
Rp266
ag155
atp267
Rp268
I720
sg1
((lp269
g1
((lp270
I2
aI3
aI6
atp271
Rp272
ag1
((lp273
I2
aI3
aI5
atp274
Rp275
ag14
ag1
((lp276
I1
aI3
aI6
atp277
Rp278
ag1
((lp279
I1
aI3
aI4
atp280
Rp281
ag1
((lp282
I1
aI4
aI6
atp283
Rp284
ag155
atp285
Rp286
I720
sg1
((lp287
g1
((lp288
I2
aI6
atp289
Rp290
ag1
((lp291
I2
aI3
aI4
atp292
Rp293
ag1
((lp294
I1
aI2
aI4
atp295
Rp296
ag1
((lp297
I1
aI4
aI5
atp298
Rp299
ag128
ag1
((lp300
I1
aI5
aI6
atp301
Rp302
ag1
((lp303
I1
aI2
aI3
atp304
Rp305
atp306
Rp307
I720
sg1
((lp308
g1
((lp309
I2
aI5
aI6
atp310
Rp311
ag1
((lp312
I2
aI3
aI5
atp313
Rp314
ag1
((lp315
I1
aI2
aI5
atp316
Rp317
ag104
ag128
ag1
((lp318
I1
aI5
aI6
atp319
Rp320
ag1
((lp321
I3
aI5
aI6
atp322
Rp323
atp324
Rp325
I720
sg1
((lp326
g1
((lp327
I1
aI3
aI6
atp328
Rp329
ag1
((lp330
I3
aI5
atp331
Rp332
ag1
((lp333
I2
aI3
aI4
atp334
Rp335
ag1
((lp336
I4
aI5
aI6
atp337
Rp338
ag1
((lp339
I1
aI4
aI5
atp340
Rp341
ag1
((lp342
I2
aI5
atp343
Rp344
ag1
((lp345
I1
aI2
aI6
atp346
Rp347
atp348
Rp349
I180
sg1
((lp350
g332
ag1
((lp351
I1
aI2
aI4
atp352
Rp353
ag1
((lp354
I2
aI4
aI6
atp355
Rp356
ag1
((lp357
I1
aI3
aI4
atp358
Rp359
ag62
ag1
((lp360
I1
aI5
aI6
atp361
Rp362
ag1
((lp363
I2
aI4
aI5
atp364
Rp365
atp366
Rp367
I720
sg1
((lp368
g1
((lp369
I1
aI3
aI5
atp370
Rp371
ag1
((lp372
I2
aI5
aI6
atp373
Rp374
ag1
((lp375
I3
aI4
aI5
atp376
Rp377
ag1
((lp378
I2
aI3
aI5
atp379
Rp380
ag164
ag128
ag1
((lp381
I1
aI5
aI6
atp382
Rp383
atp384
Rp385
I720
sg1
((lp386
g1
((lp387
I1
aI3
aI5
atp388
Rp389
ag1
((lp390
I1
aI3
aI6
atp391
Rp392
ag1
((lp393
I3
aI5
aI6
atp394
Rp395
ag290
ag344
ag1
((lp396
I1
aI5
aI6
atp397
Rp398
ag1
((lp399
I1
aI2
aI3
atp400
Rp401
atp402
Rp403
I180
sg1
((lp404
g1
((lp405
I2
aI5
aI6
atp406
Rp407
ag1
((lp408
I1
aI3
aI6
atp409
Rp410
ag164
ag1
((lp411
I1
aI2
aI5
atp412
Rp413
ag104
ag1
((lp414
I1
aI5
aI6
atp415
Rp416
ag1
((lp417
I3
aI5
aI6
atp418
Rp419
atp420
Rp421
I720
sg1
((lp422
g1
((lp423
I2
aI5
aI6
atp424
Rp425
ag164
ag332
ag1
((lp426
I1
aI2
aI5
atp427
Rp428
ag1
((lp429
I1
aI2
aI6
atp430
Rp431
ag1
((lp432
I1
aI5
aI6
atp433
Rp434
ag1
((lp435
I2
aI4
aI5
atp436
Rp437
atp438
Rp439
I720
sg1
((lp440
g1
((lp441
I1
aI3
aI5
atp442
Rp443
ag14
ag1
((lp444
I1
aI2
aI4
atp445
Rp446
ag59
ag62
ag65
ag68
atp447
Rp448
I720
sg1
((lp449
g1
((lp450
I3
aI4
aI5
atp451
Rp452
ag11
ag1
((lp453
I2
aI3
aI4
atp454
Rp455
ag1
((lp456
I4
aI5
aI6
atp457
Rp458
ag1
((lp459
I1
aI3
aI4
atp460
Rp461
ag344
ag1
((lp462
I1
aI2
aI4
atp463
Rp464
atp465
Rp466
I720
sg1
((lp467
g1
((lp468
I2
aI4
atp469
Rp470
ag1
((lp471
I2
aI5
aI6
atp472
Rp473
ag1
((lp474
I1
aI3
aI6
atp475
Rp476
ag332
ag1
((lp477
I1
aI2
aI5
atp478
Rp479
ag1
((lp480
I1
aI2
aI6
atp481
Rp482
ag1
((lp483
I1
aI4
aI6
atp484
Rp485
atp486
Rp487
I360
sg1
((lp488
g1
((lp489
I2
aI3
aI6
atp490
Rp491
ag182
ag185
ag188
ag131
ag191
ag155
atp492
Rp493
I720
sg1
((lp494
g1
((lp495
I1
aI3
aI5
atp496
Rp497
ag314
ag1
((lp498
I1
aI4
aI5
atp499
Rp500
ag104
ag128
ag320
ag1
((lp501
I1
aI2
aI3
atp502
Rp503
atp504
Rp505
I360
sg1
((lp506
g1
((lp507
I2
aI3
aI6
atp508
Rp509
ag1
((lp510
I1
aI3
aI6
atp511
Rp512
ag14
ag332
ag1
((lp513
I1
aI2
aI4
atp514
Rp515
ag1
((lp516
I1
aI4
aI6
atp517
Rp518
ag1
((lp519
I2
aI4
aI5
atp520
Rp521
atp522
Rp523
I720
sg1
((lp524
g1
((lp525
I1
aI3
aI5
atp526
Rp527
ag1
((lp528
I3
aI4
aI5
atp529
Rp530
ag83
ag290
ag1
((lp531
I2
aI3
aI4
atp532
Rp533
ag1
((lp534
I4
aI5
aI6
atp535
Rp536
ag1
((lp537
I1
aI3
aI4
atp538
Rp539
atp540
Rp541
I720
sg1
((lp542
g470
ag1
((lp543
I2
aI3
aI6
atp544
Rp545
ag1
((lp546
I2
aI5
aI6
atp547
Rp548
ag1
((lp549
I1
aI2
aI5
atp550
Rp551
ag1
((lp552
I4
aI5
aI6
atp553
Rp554
ag131
ag1
((lp555
I3
aI5
aI6
atp556
Rp557
atp558
Rp559
I720
sg1
((lp560
g1
((lp561
I3
aI4
aI6
atp562
Rp563
ag1
((lp564
I1
aI3
aI6
atp565
Rp566
ag83
ag332
ag1
((lp567
I4
aI5
aI6
atp568
Rp569
ag1
((lp570
I1
aI4
aI5
atp571
Rp572
ag1
((lp573
I2
aI4
aI5
atp574
Rp575
atp576
Rp577
I720
sg1
((lp578
g1
((lp579
I1
aI3
aI5
atp580
Rp581
ag11
ag1
((lp582
I2
aI3
aI5
atp583
Rp584
ag164
ag170
ag1
((lp585
I1
aI5
aI6
atp586
Rp587
ag173
atp588
Rp589
I360
sg1
((lp590
g371
ag164
ag1
((lp591
I2
aI3
aI4
atp592
Rp593
ag1
((lp594
I1
aI2
aI5
atp595
Rp596
ag128
ag1
((lp597
I1
aI2
aI6
atp598
Rp599
ag1
((lp600
I1
aI2
aI3
atp601
Rp602
atp603
Rp604
I720
sg1
((lp605
g1
((lp606
I3
aI4
aI5
atp607
Rp608
ag14
ag290
ag1
((lp609
I1
aI4
aI5
atp610
Rp611
ag1
((lp612
I1
aI3
aI4
atp613
Rp614
ag1
((lp615
I2
aI4
aI5
atp616
Rp617
ag1
((lp618
I1
aI2
aI3
atp619
Rp620
atp621
Rp622
I360
sg1
((lp623
g119
ag1
((lp624
I3
aI4
aI5
atp625
Rp626
ag1
((lp627
I1
aI2
aI4
atp628
Rp629
ag128
ag131
ag1
((lp630
I1
aI2
aI6
atp631
Rp632
ag134
atp633
Rp634
I360
sg1
((lp635
g1
((lp636
I2
aI3
aI6
atp637
Rp638
ag407
ag164
ag1
((lp639
I4
aI5
aI6
atp640
Rp641
ag104
ag1
((lp642
I1
aI3
aI5
atp643
Rp644
ag1
((lp645
I2
aI4
aI5
atp646
Rp647
atp648
Rp649
I360
sg1
((lp650
g1
((lp651
I1
aI3
aI5
atp652
Rp653
ag11
ag1
((lp654
I2
aI3
aI5
atp655
Rp656
ag1
((lp657
I1
aI2
aI4
atp658
Rp659
ag128
ag1
((lp660
I1
aI5
aI6
atp661
Rp662
ag1
((lp663
I1
aI2
aI3
atp664
Rp665
atp666
Rp667
I720
sg1
((lp668
g1
((lp669
I3
aI4
aI6
atp670
Rp671
ag1
((lp672
I2
aI3
aI5
atp673
Rp674
ag1
((lp675
I1
aI2
aI3
atp676
Rp677
ag290
ag1
((lp678
I1
aI3
aI4
atp679
Rp680
ag44
ag1
((lp681
I3
aI5
aI6
atp682
Rp683
atp684
Rp685
I360
sg1
((lp686
g470
ag1
((lp687
I2
aI5
aI6
atp688
Rp689
ag1
((lp690
I3
aI4
aI5
atp691
Rp692
ag1
((lp693
I1
aI3
aI6
atp694
Rp695
ag164
ag1
((lp696
I4
aI5
aI6
atp697
Rp698
ag1
((lp699
I1
aI2
aI6
atp700
Rp701
atp702
Rp703
I720
sg1
((lp704
g1
((lp705
I3
aI4
aI5
atp706
Rp707
ag1
((lp708
I3
aI5
aI6
atp709
Rp710
ag29
ag1
((lp711
I4
aI5
aI6
atp712
Rp713
ag1
((lp714
I1
aI4
aI6
atp715
Rp716
ag1
((lp717
I1
aI2
aI3
atp718
Rp719
ag290
atp720
Rp721
I720
sg1
((lp722
g470
ag1
((lp723
I2
aI5
aI6
atp724
Rp725
ag1
((lp726
I1
aI2
aI5
atp727
Rp728
ag104
ag1
((lp729
I1
aI5
aI6
atp730
Rp731
ag1
((lp732
I1
aI4
aI6
atp733
Rp734
ag1
((lp735
I1
aI2
aI3
atp736
Rp737
atp738
Rp739
I720
sg1
((lp740
g1
((lp741
I2
aI3
aI6
atp742
Rp743
ag140
ag143
ag146
ag104
ag152
ag155
atp744
Rp745
I720
sg1
((lp746
g1
((lp747
I2
aI3
aI6
atp748
Rp749
ag1
((lp750
I3
aI4
aI5
atp751
Rp752
ag14
ag1
((lp753
I1
aI2
aI5
atp754
Rp755
ag1
((lp756
I1
aI3
aI4
atp757
Rp758
ag128
ag1
((lp759
I1
aI2
aI6
atp760
Rp761
atp762
Rp763
I720
sg1
((lp764
g1
((lp765
I3
aI4
aI6
atp766
Rp767
ag1
((lp768
I2
aI5
aI6
atp769
Rp770
ag1
((lp771
I1
aI4
aI5
atp772
Rp773
ag62
ag131
ag1
((lp774
I1
aI4
aI6
atp775
Rp776
ag1
((lp777
I3
aI5
aI6
atp778
Rp779
atp780
Rp781
I720
sg1
((lp782
g470
ag1
((lp783
I3
aI4
aI5
atp784
Rp785
ag1
((lp786
I2
aI3
aI5
atp787
Rp788
ag131
ag1
((lp789
I1
aI2
aI6
atp790
Rp791
ag1
((lp792
I1
aI4
aI6
atp793
Rp794
ag557
atp795
Rp796
I360
sg1
((lp797
g470
ag1
((lp798
I3
aI4
aI6
atp799
Rp800
ag1
((lp801
I1
aI3
aI6
atp802
Rp803
ag1
((lp804
I1
aI2
aI5
atp805
Rp806
ag1
((lp807
I1
aI3
aI4
atp808
Rp809
ag1
((lp810
I1
aI4
aI6
atp811
Rp812
ag155
atp813
Rp814
I180
sg1
((lp815
g1
((lp816
I3
aI4
aI6
atp817
Rp818
ag1
((lp819
I2
aI3
aI4
atp820
Rp821
ag1
((lp822
I2
aI4
aI6
atp823
Rp824
ag1
((lp825
I1
aI3
aI4
atp826
Rp827
ag44
ag1
((lp828
I3
aI5
aI6
atp829
Rp830
ag155
atp831
Rp832
I720
sg1
((lp833
g470
ag1
((lp834
I3
aI4
aI6
atp835
Rp836
ag1
((lp837
I2
aI3
aI6
atp838
Rp839
ag695
ag1
((lp840
I1
aI2
aI3
atp841
Rp842
ag164
ag1
((lp843
I3
aI5
aI6
atp844
Rp845
atp846
Rp847
I360
sg1
((lp848
g1
((lp849
I3
aI4
aI6
atp850
Rp851
ag1
((lp852
I2
aI3
aI6
atp853
Rp854
ag1
((lp855
I2
aI5
aI6
atp856
Rp857
ag1
((lp858
I3
aI4
aI5
atp859
Rp860
ag29
ag1
((lp861
I2
aI3
aI4
atp862
Rp863
ag131
atp864
Rp865
I360
sg1
((lp866
g470
ag1
((lp867
I2
aI3
aI5
atp868
Rp869
ag290
ag1
((lp870
I1
aI3
aI6
atp871
Rp872
ag1
((lp873
I1
aI3
aI4
atp874
Rp875
ag1
((lp876
I1
aI4
aI6
atp877
Rp878
ag1
((lp879
I1
aI2
aI3
atp880
Rp881
atp882
Rp883
I360
sg1
((lp884
g14
ag332
ag1
((lp885
I2
aI3
aI4
atp886
Rp887
ag1
((lp888
I1
aI2
aI5
atp889
Rp890
ag515
ag1
((lp891
I2
aI4
aI6
atp892
Rp893
ag1
((lp894
I1
aI2
aI6
atp895
Rp896
atp897
Rp898
I720
sg1
((lp899
g1
((lp900
I2
aI3
aI6
atp901
Rp902
ag1
((lp903
I3
aI4
aI5
atp904
Rp905
ag1
((lp906
I2
aI3
aI5
atp907
Rp908
ag14
ag29
ag1
((lp909
I1
aI4
aI6
atp910
Rp911
ag1
((lp912
I1
aI2
aI3
atp913
Rp914
atp915
Rp916
I360
sg1
((lp917
g1
((lp918
I3
aI4
aI6
atp919
Rp920
ag332
ag1
((lp921
I2
aI3
aI4
atp922
Rp923
ag1
((lp924
I1
aI2
aI5
atp925
Rp926
ag1
((lp927
I2
aI4
aI6
atp928
Rp929
ag131
ag1
((lp930
I1
aI2
aI6
atp931
Rp932
atp933
Rp934
I720
sg1
((lp935
g1
((lp936
I2
aI5
aI6
atp937
Rp938
ag29
ag332
ag1
((lp939
I2
aI3
aI4
atp940
Rp941
ag1
((lp942
I2
aI4
aI6
atp943
Rp944
ag1
((lp945
I1
aI4
aI6
atp946
Rp947
ag1
((lp948
I1
aI2
aI3
atp949
Rp950
atp951
Rp952
I720
sg1
((lp953
g1
((lp954
I3
aI4
aI6
atp955
Rp956
ag182
ag185
ag131
ag191
ag1
((lp957
I1
aI4
aI6
atp958
Rp959
ag155
atp960
Rp961
I720
sg1
((lp962
g1
((lp963
I3
aI4
aI6
atp964
Rp965
ag512
ag14
ag332
ag890
ag896
ag521
atp966
Rp967
I720
sg1
((lp968
g11
ag1
((lp969
I2
aI3
aI5
atp970
Rp971
ag83
ag1
((lp972
I2
aI3
aI4
atp973
Rp974
ag1
((lp975
I4
aI5
aI6
atp976
Rp977
ag1
((lp978
I1
aI3
aI4
atp979
Rp980
ag1
((lp981
I1
aI4
aI6
atp982
Rp983
atp984
Rp985
I720
sg1
((lp986
g470
ag1
((lp987
I3
aI4
aI6
atp988
Rp989
ag548
ag785
ag554
ag131
ag557
atp990
Rp991
I360
sg1
((lp992
g1
((lp993
I1
aI3
aI5
atp994
Rp995
ag1
((lp996
I1
aI3
aI6
atp997
Rp998
ag164
ag1
((lp999
I2
aI3
aI4
atp1000
Rp1001
ag1
((lp1002
I2
aI3
aI6
atp1003
Rp1004
ag1
((lp1005
I1
aI5
aI6
atp1006
Rp1007
ag155
atp1008
Rp1009
I720
sg1
((lp1010
g1
((lp1011
I2
aI3
aI6
atp1012
Rp1013
ag98
ag1
((lp1014
I2
aI3
aI5
atp1015
Rp1016
ag29
ag1
((lp1017
I4
aI5
aI6
atp1018
Rp1019
ag104
ag1
((lp1020
I1
aI4
aI6
atp1021
Rp1022
atp1023
Rp1024
I720
sg1
((lp1025
g470
ag545
ag788
ag551
ag1
((lp1026
I1
aI4
aI5
atp1027
Rp1028
ag131
ag1
((lp1029
I1
aI5
aI6
atp1030
Rp1031
atp1032
Rp1033
I720
sg1
((lp1034
g1
((lp1035
I3
aI4
aI6
atp1036
Rp1037
ag1
((lp1038
I2
aI5
aI6
atp1039
Rp1040
ag332
ag1
((lp1041
I1
aI2
aI4
atp1042
Rp1043
ag1
((lp1044
I1
aI5
aI6
atp1045
Rp1046
ag1
((lp1047
I1
aI4
aI6
atp1048
Rp1049
ag155
atp1050
Rp1051
I720
sg1
((lp1052
g1
((lp1053
I2
aI3
aI5
atp1054
Rp1055
ag29
ag164
ag1
((lp1056
I4
aI5
aI6
atp1057
Rp1058
ag1
((lp1059
I1
aI2
aI6
atp1060
Rp1061
ag1
((lp1062
I2
aI4
aI5
atp1063
Rp1064
ag1
((lp1065
I3
aI5
aI6
atp1066
Rp1067
atp1068
Rp1069
I360
sg1
((lp1070
g470
ag290
ag1
((lp1071
I1
aI2
aI5
atp1072
Rp1073
ag1
((lp1074
I1
aI4
aI5
atp1075
Rp1076
ag875
ag878
ag881
atp1077
Rp1078
I360
sg1
((lp1079
g470
ag1
((lp1080
I2
aI3
aI6
atp1081
Rp1082
ag1
((lp1083
I3
aI4
aI5
atp1084
Rp1085
ag1
((lp1086
I1
aI2
aI5
atp1087
Rp1088
ag1
((lp1089
I1
aI4
aI5
atp1090
Rp1091
ag128
ag1
((lp1092
I3
aI5
aI6
atp1093
Rp1094
atp1095
Rp1096
I720
sg1
((lp1097
g1
((lp1098
I3
aI4
aI6
atp1099
Rp1100
ag1
((lp1101
I2
aI3
aI4
atp1102
Rp1103
ag1
((lp1104
I1
aI2
aI4
atp1105
Rp1106
ag1
((lp1107
I2
aI4
aI6
atp1108
Rp1109
ag1
((lp1110
I1
aI4
aI5
atp1111
Rp1112
ag131
ag44
atp1113
Rp1114
I360
sg1
((lp1115
g1
((lp1116
I2
aI3
aI6
atp1117
Rp1118
ag164
ag1
((lp1119
I1
aI2
aI5
atp1120
Rp1121
ag131
ag1
((lp1122
I1
aI2
aI6
atp1123
Rp1124
ag1
((lp1125
I1
aI5
aI6
atp1126
Rp1127
ag1
((lp1128
I3
aI5
aI6
atp1129
Rp1130
atp1131
Rp1132
I360
sg1
((lp1133
g1
((lp1134
I1
aI3
aI5
atp1135
Rp1136
ag1
((lp1137
I2
aI3
aI5
atp1138
Rp1139
ag1
((lp1140
I3
aI5
aI6
atp1141
Rp1142
ag290
ag164
ag1
((lp1143
I2
aI3
aI4
atp1144
Rp1145
ag1
((lp1146
I1
aI2
aI3
atp1147
Rp1148
atp1149
Rp1150
I720
sg1
((lp1151
g1
((lp1152
I3
aI4
aI6
atp1153
Rp1154
ag332
ag1
((lp1155
I1
aI2
aI5
atp1156
Rp1157
ag62
ag1
((lp1158
I1
aI2
aI6
atp1159
Rp1160
ag362
ag365
atp1161
Rp1162
I360
sg1
((lp1163
g1
((lp1164
I3
aI4
aI6
atp1165
Rp1166
ag1
((lp1167
I1
aI3
aI5
atp1168
Rp1169
ag1
((lp1170
I3
aI4
aI5
atp1171
Rp1172
ag1
((lp1173
I1
aI3
aI6
atp1174
Rp1175
ag83
ag1
((lp1176
I4
aI5
aI6
atp1177
Rp1178
ag62
atp1179
Rp1180
I360
sg1
((lp1181
g902
ag14
ag29
ag1
((lp1182
I2
aI4
aI5
atp1183
Rp1184
ag1
((lp1185
I2
aI3
aI4
atp1186
Rp1187
ag1
((lp1188
I1
aI2
aI6
atp1189
Rp1190
ag911
atp1191
Rp1192
I720
sg1
((lp1193
g1
((lp1194
I2
aI5
aI6
atp1195
Rp1196
ag332
ag923
ag1
((lp1197
I1
aI2
aI4
atp1198
Rp1199
ag1
((lp1200
I1
aI4
aI5
atp1201
Rp1202
ag131
ag932
atp1203
Rp1204
I720
sg1
((lp1205
g1
((lp1206
I4
aI5
aI6
atp1207
Rp1208
ag1
((lp1209
I2
aI4
aI6
atp1210
Rp1211
ag1
((lp1212
I1
aI3
aI4
atp1213
Rp1214
ag62
ag344
ag1
((lp1215
I1
aI2
aI6
atp1216
Rp1217
ag1
((lp1218
I1
aI5
aI6
atp1219
Rp1220
atp1221
Rp1222
I360
sg1
((lp1223
g572
ag1
((lp1224
I2
aI5
aI6
atp1225
Rp1226
ag83
ag332
ag569
ag1
((lp1227
I2
aI4
aI6
atp1228
Rp1229
ag1
((lp1230
I1
aI4
aI6
atp1231
Rp1232
atp1233
Rp1234
I360
sg1
((lp1235
g1
((lp1236
I3
aI4
aI6
atp1237
Rp1238
ag1
((lp1239
I1
aI3
aI5
atp1240
Rp1241
ag83
ag164
ag1
((lp1242
I2
aI3
aI4
atp1243
Rp1244
ag1
((lp1245
I4
aI5
aI6
atp1246
Rp1247
ag1
((lp1248
I2
aI3
aI6
atp1249
Rp1250
atp1251
Rp1252
I720
sg1
((lp1253
g1
((lp1254
I1
aI4
aI5
atp1255
Rp1256
ag1
((lp1257
I2
aI5
aI6
atp1258
Rp1259
ag83
ag1
((lp1260
I2
aI4
aI6
atp1261
Rp1262
ag104
ag1
((lp1263
I1
aI5
aI6
atp1264
Rp1265
ag1
((lp1266
I3
aI5
aI6
atp1267
Rp1268
atp1269
Rp1270
I360
sg1
((lp1271
g1
((lp1272
I2
aI3
aI6
atp1273
Rp1274
ag329
ag332
ag335
ag1
((lp1275
I1
aI2
aI4
atp1276
Rp1277
ag344
ag347
atp1278
Rp1279
I720
sg1
((lp1280
g1
((lp1281
I2
aI4
aI5
atp1282
Rp1283
ag29
ag863
ag1
((lp1284
I4
aI5
aI6
atp1285
Rp1286
ag131
ag1
((lp1287
I1
aI2
aI6
atp1288
Rp1289
ag1
((lp1290
I1
aI4
aI6
atp1291
Rp1292
atp1293
Rp1294
I720
sg1
((lp1295
g11
ag332
ag1
((lp1296
I1
aI2
aI5
atp1297
Rp1298
ag1
((lp1299
I1
aI2
aI4
atp1300
Rp1301
ag1
((lp1302
I1
aI3
aI4
atp1303
Rp1304
ag1
((lp1305
I2
aI4
aI5
atp1306
Rp1307
ag1
((lp1308
I1
aI2
aI3
atp1309
Rp1310
atp1311
Rp1312
I720
sg1
((lp1313
g392
ag290
ag1
((lp1314
I1
aI3
aI4
atp1315
Rp1316
ag344
ag398
ag1
((lp1317
I1
aI4
aI6
atp1318
Rp1319
ag395
atp1320
Rp1321
I720
sg1
((lp1322
g1
((lp1323
I1
aI3
aI5
atp1324
Rp1325
ag11
ag1
((lp1326
I1
aI2
aI5
atp1327
Rp1328
ag1
((lp1329
I4
aI5
aI6
atp1330
Rp1331
ag1
((lp1332
I1
aI4
aI5
atp1333
Rp1334
ag104
ag1
((lp1335
I1
aI4
aI6
atp1336
Rp1337
atp1338
Rp1339
I360
sg1
((lp1340
g1
((lp1341
I2
aI4
aI5
atp1342
Rp1343
ag1259
ag1
((lp1344
I1
aI3
aI6
atp1345
Rp1346
ag83
ag1262
ag104
ag1
((lp1347
I1
aI4
aI6
atp1348
Rp1349
atp1350
Rp1351
I720
sg1
((lp1352
g1
((lp1353
I1
aI3
aI5
atp1354
Rp1355
ag1
((lp1356
I2
aI3
aI5
atp1357
Rp1358
ag1
((lp1359
I3
aI5
aI6
atp1360
Rp1361
ag290
ag1
((lp1362
I2
aI3
aI4
atp1363
Rp1364
ag1
((lp1365
I1
aI2
aI3
atp1366
Rp1367
ag155
atp1368
Rp1369
I360
sg1
((lp1370
g1
((lp1371
I3
aI4
aI6
atp1372
Rp1373
ag1
((lp1374
I2
aI3
aI6
atp1375
Rp1376
ag1
((lp1377
I3
aI4
aI5
atp1378
Rp1379
ag1
((lp1380
I4
aI5
aI6
atp1381
Rp1382
ag1
((lp1383
I1
aI3
aI5
atp1384
Rp1385
ag44
ag344
atp1386
Rp1387
I360
sg1
((lp1388
g1013
ag29
ag104
ag1022
ag107
ag110
ag1
((lp1389
I3
aI5
aI6
atp1390
Rp1391
atp1392
Rp1393
I360
sg1
((lp1394
g1
((lp1395
I2
aI3
aI6
atp1396
Rp1397
ag29
ag1
((lp1398
I2
aI3
aI4
atp1399
Rp1400
ag1
((lp1401
I2
aI4
aI6
atp1402
Rp1403
ag344
ag1
((lp1404
I1
aI2
aI6
atp1405
Rp1406
ag1
((lp1407
I1
aI2
aI3
atp1408
Rp1409
atp1410
Rp1411
I360
sg1
((lp1412
g1
((lp1413
I3
aI4
aI6
atp1414
Rp1415
ag1
((lp1416
I2
aI3
aI6
atp1417
Rp1418
ag332
ag1
((lp1419
I2
aI3
aI4
atp1420
Rp1421
ag1
((lp1422
I4
aI5
aI6
atp1423
Rp1424
ag44
ag1
((lp1425
I1
aI2
aI3
atp1426
Rp1427
atp1428
Rp1429
I720
sg1
((lp1430
g1
((lp1431
I1
aI4
aI6
atp1432
Rp1433
ag290
ag1
((lp1434
I4
aI5
aI6
atp1435
Rp1436
ag1
((lp1437
I1
aI4
aI5
atp1438
Rp1439
ag62
ag1
((lp1440
I2
aI4
aI5
atp1441
Rp1442
ag1
((lp1443
I3
aI5
aI6
atp1444
Rp1445
atp1446
Rp1447
I720
sg1
((lp1448
g1
((lp1449
I2
aI3
aI6
atp1450
Rp1451
ag1
((lp1452
I4
aI5
aI6
atp1453
Rp1454
ag1
((lp1455
I1
aI4
aI5
atp1456
Rp1457
ag104
ag131
ag1
((lp1458
I1
aI2
aI6
atp1459
Rp1460
ag1
((lp1461
I2
aI4
aI5
atp1462
Rp1463
atp1464
Rp1465
I360
sg1
((lp1466
g116
ag626
ag629
ag125
ag128
ag131
ag1
((lp1467
I1
aI5
aI6
atp1468
Rp1469
atp1470
Rp1471
I360
sg1
((lp1472
g1
((lp1473
I3
aI4
aI6
atp1474
Rp1475
ag1
((lp1476
I1
aI3
aI5
atp1477
Rp1478
ag1
((lp1479
I3
aI4
aI5
atp1480
Rp1481
ag1
((lp1482
I1
aI4
aI5
atp1483
Rp1484
ag62
ag344
ag1
((lp1485
I1
aI4
aI6
atp1486
Rp1487
atp1488
Rp1489
I720
sg1
((lp1490
g743
ag143
ag146
ag104
ag1
((lp1491
I1
aI2
aI6
atp1492
Rp1493
ag152
ag155
atp1494
Rp1495
I360
sg1
((lp1496
g1
((lp1497
I3
aI4
aI6
atp1498
Rp1499
ag1
((lp1500
I2
aI5
aI6
atp1501
Rp1502
ag1
((lp1503
I3
aI4
aI5
atp1504
Rp1505
ag83
ag1
((lp1506
I2
aI4
aI6
atp1507
Rp1508
ag1
((lp1509
I1
aI3
aI4
atp1510
Rp1511
ag44
atp1512
Rp1513
I720
sg1
((lp1514
g1
((lp1515
I1
aI3
aI5
atp1516
Rp1517
ag1
((lp1518
I3
aI4
aI5
atp1519
Rp1520
ag83
ag1
((lp1521
I4
aI5
aI6
atp1522
Rp1523
ag1
((lp1524
I1
aI4
aI5
atp1525
Rp1526
ag344
ag1
((lp1527
I1
aI5
aI6
atp1528
Rp1529
atp1530
Rp1531
I360
sg1
((lp1532
g29
ag1400
ag1
((lp1533
I4
aI5
aI6
atp1534
Rp1535
ag1403
ag344
ag1
((lp1536
I1
aI4
aI6
atp1537
Rp1538
ag1409
atp1539
Rp1540
I720
sg1
((lp1541
g161
ag1
((lp1542
I3
aI4
aI5
atp1543
Rp1544
ag11
ag164
ag1
((lp1545
I2
aI3
aI4
atp1546
Rp1547
ag167
ag1
((lp1548
I1
aI2
aI6
atp1549
Rp1550
atp1551
Rp1552
I360
sg1
((lp1553
g1
((lp1554
I1
aI3
aI6
atp1555
Rp1556
ag14
ag755
ag1
((lp1557
I1
aI2
aI4
atp1558
Rp1559
ag1
((lp1560
I1
aI4
aI5
atp1561
Rp1562
ag758
ag128
atp1563
Rp1564
I720
sg1
((lp1565
g11
ag1
((lp1566
I1
aI2
aI5
atp1567
Rp1568
ag1
((lp1569
I1
aI4
aI5
atp1570
Rp1571
ag1
((lp1572
I1
aI3
aI4
atp1573
Rp1574
ag62
ag1
((lp1575
I1
aI2
aI6
atp1576
Rp1577
ag1
((lp1578
I1
aI5
aI6
atp1579
Rp1580
atp1581
Rp1582
I360
sg1
((lp1583
g1
((lp1584
I3
aI4
aI6
atp1585
Rp1586
ag239
ag164
ag242
ag245
ag44
ag1
((lp1587
I2
aI4
aI5
atp1588
Rp1589
atp1590
Rp1591
I360
sg1
((lp1592
g1
((lp1593
I1
aI3
aI5
atp1594
Rp1595
ag1
((lp1596
I2
aI5
aI6
atp1597
Rp1598
ag1
((lp1599
I1
aI2
aI5
atp1600
Rp1601
ag1
((lp1602
I1
aI2
aI4
atp1603
Rp1604
ag128
ag44
ag1
((lp1605
I2
aI4
aI5
atp1606
Rp1607
atp1608
Rp1609
I720
sg1
((lp1610
g470
ag1
((lp1611
I2
aI3
aI6
atp1612
Rp1613
ag725
ag728
ag104
ag1
((lp1614
I1
aI2
aI6
atp1615
Rp1616
ag1
((lp1617
I3
aI5
aI6
atp1618
Rp1619
atp1620
Rp1621
I720
sg1
((lp1622
g470
ag842
ag164
ag1
((lp1623
I1
aI2
aI5
atp1624
Rp1625
ag701
ag1
((lp1626
I1
aI5
aI6
atp1627
Rp1628
ag845
atp1629
Rp1630
I360
sg1
((lp1631
g1397
ag29
ag1535
ag1403
ag344
ag1
((lp1632
I1
aI2
aI4
atp1633
Rp1634
ag1
((lp1635
I3
aI5
aI6
atp1636
Rp1637
atp1638
Rp1639
I720
sg1
((lp1640
g470
ag1613
ag1
((lp1641
I1
aI4
aI5
atp1642
Rp1643
ag104
ag1616
ag731
ag1619
atp1644
Rp1645
I360
sg1
((lp1646
g5
ag11
ag14
ag1
((lp1647
I1
aI2
aI4
atp1648
Rp1649
ag17
ag1
((lp1650
I1
aI2
aI6
atp1651
Rp1652
ag20
atp1653
Rp1654
I720
sg1
((lp1655
g1154
ag332
ag1157
ag353
ag356
ag62
ag1160
atp1656
Rp1657
I360
sg1
((lp1658
g470
ag1
((lp1659
I2
aI3
aI6
atp1660
Rp1661
ag1
((lp1662
I1
aI3
aI6
atp1663
Rp1664
ag1
((lp1665
I4
aI5
aI6
atp1666
Rp1667
ag1
((lp1668
I1
aI4
aI5
atp1669
Rp1670
ag344
ag1
((lp1671
I1
aI2
aI6
atp1672
Rp1673
atp1674
Rp1675
I360
sg1
((lp1676
g1
((lp1677
I2
aI5
aI6
atp1678
Rp1679
ag1
((lp1680
I1
aI3
aI6
atp1681
Rp1682
ag1
((lp1683
I1
aI2
aI5
atp1684
Rp1685
ag1
((lp1686
I1
aI2
aI4
atp1687
Rp1688
ag104
ag62
ag1
((lp1689
I3
aI5
aI6
atp1690
Rp1691
atp1692
Rp1693
I720
sg1
((lp1694
g470
ag1
((lp1695
I3
aI4
aI5
atp1696
Rp1697
ag1670
ag344
ag1673
ag1
((lp1698
I1
aI5
aI6
atp1699
Rp1700
ag1
((lp1701
I3
aI5
aI6
atp1702
Rp1703
atp1704
Rp1705
I720
sg1
((lp1706
g470
ag1
((lp1707
I2
aI3
aI5
atp1708
Rp1709
ag1
((lp1710
I3
aI5
aI6
atp1711
Rp1712
ag806
ag1
((lp1713
I1
aI2
aI6
atp1714
Rp1715
ag1
((lp1716
I1
aI2
aI3
atp1717
Rp1718
ag155
atp1719
Rp1720
I720
sg1
((lp1721
g1
((lp1722
I2
aI3
aI6
atp1723
Rp1724
ag1
((lp1725
I1
aI2
aI4
atp1726
Rp1727
ag1
((lp1728
I2
aI4
aI6
atp1729
Rp1730
ag1
((lp1731
I1
aI3
aI4
atp1732
Rp1733
ag344
ag1
((lp1734
I3
aI5
aI6
atp1735
Rp1736
ag155
atp1737
Rp1738
I720
sg1
((lp1739
g1
((lp1740
I1
aI4
aI5
atp1741
Rp1742
ag1
((lp1743
I2
aI4
aI5
atp1744
Rp1745
ag1
((lp1746
I2
aI5
aI6
atp1747
Rp1748
ag11
ag1
((lp1749
I2
aI4
aI6
atp1750
Rp1751
ag131
ag1
((lp1752
I1
aI4
aI6
atp1753
Rp1754
atp1755
Rp1756
I720
sg1
((lp1757
g1
((lp1758
I2
aI3
aI6
atp1759
Rp1760
ag1
((lp1761
I2
aI5
aI6
atp1762
Rp1763
ag1
((lp1764
I1
aI3
aI6
atp1765
Rp1766
ag29
ag164
ag1061
ag1
((lp1767
I1
aI2
aI3
atp1768
Rp1769
atp1770
Rp1771
I360
sg1
((lp1772
g1595
ag1598
ag1
((lp1773
I2
aI3
aI4
atp1774
Rp1775
ag1604
ag1
((lp1776
I1
aI4
aI5
atp1777
Rp1778
ag128
ag44
atp1779
Rp1780
I360
sg1
((lp1781
g1
((lp1782
I3
aI4
aI6
atp1783
Rp1784
ag995
ag164
ag1001
ag1
((lp1785
I1
aI2
aI5
atp1786
Rp1787
ag1
((lp1788
I2
aI4
aI6
atp1789
Rp1790
ag155
atp1791
Rp1792
I180
sg1
((lp1793
g1
((lp1794
I2
aI3
aI6
atp1795
Rp1796
ag314
ag104
ag128
ag1
((lp1797
I1
aI2
aI6
atp1798
Rp1799
ag320
ag323
atp1800
Rp1801
I360
sg1
((lp1802
g1
((lp1803
I3
aI4
aI6
atp1804
Rp1805
ag74
ag77
ag1
((lp1806
I1
aI3
aI6
atp1807
Rp1808
ag83
ag29
ag1
((lp1809
I1
aI3
aI4
atp1810
Rp1811
atp1812
Rp1813
I720
sg1
((lp1814
g470
ag1
((lp1815
I1
aI3
aI5
atp1816
Rp1817
ag1
((lp1818
I3
aI4
aI5
atp1819
Rp1820
ag1
((lp1821
I1
aI2
aI3
atp1822
Rp1823
ag1
((lp1824
I2
aI3
aI6
atp1825
Rp1826
ag44
ag1
((lp1827
I3
aI5
aI6
atp1828
Rp1829
atp1830
Rp1831
I360
sg1
((lp1832
g1
((lp1833
I3
aI4
aI6
atp1834
Rp1835
ag938
ag29
ag332
ag1
((lp1836
I4
aI5
aI6
atp1837
Rp1838
ag944
ag947
atp1839
Rp1840
I360
sg1
((lp1841
g1
((lp1842
I1
aI3
aI5
atp1843
Rp1844
ag1
((lp1845
I1
aI3
aI6
atp1846
Rp1847
ag146
ag104
ag149
ag152
ag155
atp1848
Rp1849
I720
sg1
((lp1850
g1
((lp1851
I2
aI4
aI5
atp1852
Rp1853
ag332
ag1
((lp1854
I1
aI2
aI4
atp1855
Rp1856
ag1
((lp1857
I1
aI4
aI5
atp1858
Rp1859
ag104
ag1
((lp1860
I1
aI5
aI6
atp1861
Rp1862
ag1
((lp1863
I1
aI4
aI6
atp1864
Rp1865
atp1866
Rp1867
I720
sg1
((lp1868
g1
((lp1869
I4
aI5
aI6
atp1870
Rp1871
ag773
ag62
ag131
ag1
((lp1872
I1
aI5
aI6
atp1873
Rp1874
ag1
((lp1875
I1
aI2
aI4
atp1876
Rp1877
ag779
atp1878
Rp1879
I720
sg1
((lp1880
g470
ag1
((lp1881
I1
aI3
aI5
atp1882
Rp1883
ag869
ag290
ag872
ag1
((lp1884
I1
aI5
aI6
atp1885
Rp1886
ag1
((lp1887
I3
aI5
aI6
atp1888
Rp1889
atp1890
Rp1891
I360
sg1
((lp1892
g1
((lp1893
I2
aI3
aI6
atp1894
Rp1895
ag1604
ag1778
ag128
ag44
ag1607
ag1
((lp1896
I3
aI5
aI6
atp1897
Rp1898
atp1899
Rp1900
I360
sg1
((lp1901
g1
((lp1902
I2
aI3
aI6
atp1903
Rp1904
ag29
ag332
ag941
ag1
((lp1905
I1
aI2
aI4
atp1906
Rp1907
ag947
ag1
((lp1908
I2
aI4
aI5
atp1909
Rp1910
atp1911
Rp1912
I360
sg1
((lp1913
g1
((lp1914
I2
aI3
aI6
atp1915
Rp1916
ag1
((lp1917
I2
aI3
aI5
atp1918
Rp1919
ag29
ag35
ag41
ag44
ag1
((lp1920
I1
aI2
aI3
atp1921
Rp1922
atp1923
Rp1924
I180
sg1
((lp1925
g1
((lp1926
I1
aI3
aI5
atp1927
Rp1928
ag1
((lp1929
I2
aI5
aI6
atp1930
Rp1931
ag1
((lp1932
I1
aI2
aI4
atp1933
Rp1934
ag827
ag44
ag830
ag155
atp1935
Rp1936
I360
sg1
((lp1937
g1
((lp1938
I1
aI3
aI5
atp1939
Rp1940
ag14
ag1
((lp1941
I1
aI2
aI5
atp1942
Rp1943
ag1
((lp1944
I1
aI2
aI4
atp1945
Rp1946
ag1
((lp1947
I2
aI4
aI6
atp1948
Rp1949
ag284
ag155
atp1950
Rp1951
I720
sg1
((lp1952
g1
((lp1953
I1
aI3
aI5
atp1954
Rp1955
ag1259
ag1346
ag83
ag1256
ag104
ag1349
atp1956
Rp1957
I180
sg1
((lp1958
g1
((lp1959
I1
aI2
aI4
atp1960
Rp1961
ag29
ag863
ag1286
ag131
ag1289
ag1292
atp1962
Rp1963
I360
sg1
((lp1964
g1
((lp1965
I3
aI4
aI6
atp1966
Rp1967
ag1
((lp1968
I2
aI5
aI6
atp1969
Rp1970
ag1
((lp1971
I3
aI4
aI5
atp1972
Rp1973
ag1
((lp1974
I1
aI2
aI4
atp1975
Rp1976
ag62
ag44
ag1
((lp1977
I2
aI4
aI5
atp1978
Rp1979
atp1980
Rp1981
I720
sg1
((lp1982
g470
ag1082
ag1
((lp1983
I2
aI5
aI6
atp1984
Rp1985
ag1
((lp1986
I1
aI3
aI4
atp1987
Rp1988
ag128
ag1
((lp1989
I1
aI5
aI6
atp1990
Rp1991
ag1094
atp1992
Rp1993
I720
sg1
((lp1994
g1
((lp1995
I3
aI4
aI6
atp1996
Rp1997
ag1760
ag1763
ag29
ag164
ag1
((lp1998
I2
aI3
aI4
atp1999
Rp2000
ag1
((lp2001
I2
aI4
aI6
atp2002
Rp2003
atp2004
Rp2005
I360
sg1
((lp2006
g1
((lp2007
I2
aI3
aI6
atp2008
Rp2009
ag1
((lp2010
I2
aI5
aI6
atp2011
Rp2012
ag1
((lp2013
I1
aI3
aI6
atp2014
Rp2015
ag29
ag128
ag1
((lp2016
I2
aI4
aI5
atp2017
Rp2018
ag1
((lp2019
I1
aI2
aI3
atp2020
Rp2021
atp2022
Rp2023
I720
sg1
((lp2024
g956
ag491
ag185
ag131
ag1
((lp2025
I1
aI2
aI6
atp2026
Rp2027
ag959
ag155
atp2028
Rp2029
I720
sg1
((lp2030
g116
ag1
((lp2031
I2
aI3
aI5
atp2032
Rp2033
ag122
ag125
ag128
ag131
ag134
atp2034
Rp2035
I720
sg1
((lp2036
g1847
ag1
((lp2037
I2
aI3
aI5
atp2038
Rp2039
ag104
ag1493
ag149
ag1
((lp2040
I3
aI5
aI6
atp2041
Rp2042
ag155
atp2043
Rp2044
I360
sg1
((lp2045
g1
((lp2046
I3
aI4
aI5
atp2047
Rp2048
ag11
ag1
((lp2049
I2
aI3
aI5
atp2050
Rp2051
ag1
((lp2052
I1
aI2
aI5
atp2053
Rp2054
ag1751
ag131
ag1745
atp2055
Rp2056
I720
sg1
((lp2057
g1
((lp2058
I3
aI4
aI6
atp2059
Rp2060
ag272
ag275
ag14
ag1949
ag284
ag155
atp2061
Rp2062
I360
sg1
((lp2063
g743
ag146
ag104
ag1844
ag1493
ag149
ag155
atp2064
Rp2065
I720
sg1
((lp2066
g1136
ag1139
ag290
ag164
ag1
((lp2067
I4
aI5
aI6
atp2068
Rp2069
ag1
((lp2070
I1
aI3
aI6
atp2071
Rp2072
ag1
((lp2073
I1
aI5
aI6
atp2074
Rp2075
atp2076
Rp2077
I720
sg1
((lp2078
g1
((lp2079
I1
aI3
aI5
atp2080
Rp2081
ag674
ag290
ag1
((lp2082
I2
aI3
aI4
atp2083
Rp2084
ag1
((lp2085
I4
aI5
aI6
atp2086
Rp2087
ag44
ag1
((lp2088
I1
aI2
aI4
atp2089
Rp2090
atp2091
Rp2092
I720
sg1
((lp2093
g1
((lp2094
I3
aI4
aI6
atp2095
Rp2096
ag1148
ag290
ag164
ag1145
ag1
((lp2097
I2
aI4
aI5
atp2098
Rp2099
ag1142
atp2100
Rp2101
I720
sg1
((lp2102
g1
((lp2103
I3
aI4
aI6
atp2104
Rp2105
ag290
ag1
((lp2106
I1
aI2
aI5
atp2107
Rp2108
ag1
((lp2109
I1
aI2
aI4
atp2110
Rp2111
ag1
((lp2112
I1
aI5
aI6
atp2113
Rp2114
ag1
((lp2115
I1
aI4
aI6
atp2116
Rp2117
ag155
atp2118
Rp2119
I360
sg1
((lp2120
g1
((lp2121
I2
aI3
aI6
atp2122
Rp2123
ag1
((lp2124
I3
aI4
aI5
atp2125
Rp2126
ag14
ag1
((lp2127
I2
aI3
aI4
atp2128
Rp2129
ag1
((lp2130
I1
aI4
aI6
atp2131
Rp2132
ag83
ag1
((lp2133
I2
aI4
aI5
atp2134
Rp2135
atp2136
Rp2137
I720
sg1
((lp2138
g1775
ag1601
ag1604
ag1778
ag128
ag44
ag1607
atp2139
Rp2140
I720
sg1
((lp2141
g581
ag11
ag584
ag164
ag1547
ag173
ag176
atp2142
Rp2143
I720
sg1
((lp2144
g1
((lp2145
I3
aI4
aI6
atp2146
Rp2147
ag2126
ag1
((lp2148
I1
aI3
aI6
atp2149
Rp2150
ag83
ag2129
ag1
((lp2151
I1
aI3
aI4
atp2152
Rp2153
ag14
atp2154
Rp2155
I360
sg1
((lp2156
g1004
ag1
((lp2157
I2
aI5
aI6
atp2158
Rp2159
ag1
((lp2160
I3
aI5
aI6
atp2161
Rp2162
ag164
ag1001
ag1
((lp2163
I1
aI2
aI3
atp2164
Rp2165
ag155
atp2166
Rp2167
I360
sg1
((lp2168
g1451
ag1
((lp2169
I2
aI5
aI6
atp2170
Rp2171
ag1454
ag1
((lp2172
I2
aI4
aI6
atp2173
Rp2174
ag104
ag131
ag1460
atp2175
Rp2176
I720
sg1
((lp2177
g1
((lp2178
I2
aI3
aI6
atp2179
Rp2180
ag374
ag164
ag596
ag128
ag599
ag602
atp2181
Rp2182
I180
sg1
((lp2183
g374
ag1
((lp2184
I1
aI3
aI6
atp2185
Rp2186
ag164
ag128
ag599
ag383
ag602
atp2187
Rp2188
I360
sg1
((lp2189
g1
((lp2190
I1
aI3
aI5
atp2191
Rp2192
ag608
ag14
ag290
ag1
((lp2193
I2
aI3
aI4
atp2194
Rp2195
ag1
((lp2196
I1
aI2
aI4
atp2197
Rp2198
ag1
((lp2199
I1
aI4
aI6
atp2200
Rp2201
atp2202
Rp2203
I720
sg1
((lp2204
g1
((lp2205
I1
aI3
aI5
atp2206
Rp2207
ag1
((lp2208
I2
aI5
aI6
atp2209
Rp2210
ag1
((lp2211
I3
aI4
aI5
atp2212
Rp2213
ag62
ag128
ag1
((lp2214
I2
aI4
aI5
atp2215
Rp2216
ag1
((lp2217
I3
aI5
aI6
atp2218
Rp2219
atp2220
Rp2221
I360
sg1
((lp2222
g1
((lp2223
I2
aI3
aI6
atp2224
Rp2225
ag1
((lp2226
I2
aI5
aI6
atp2227
Rp2228
ag332
ag1
((lp2229
I1
aI3
aI4
atp2230
Rp2231
ag128
ag1
((lp2232
I1
aI5
aI6
atp2233
Rp2234
ag1
((lp2235
I1
aI2
aI3
atp2236
Rp2237
atp2238
Rp2239
I720
sg1
((lp2240
g1274
ag332
ag338
ag1
((lp2241
I2
aI4
aI6
atp2242
Rp2243
ag1
((lp2244
I1
aI3
aI4
atp2245
Rp2246
ag344
ag1
((lp2247
I1
aI4
aI6
atp2248
Rp2249
atp2250
Rp2251
I720
sg1
((lp2252
g1
((lp2253
I2
aI3
aI6
atp2254
Rp2255
ag1
((lp2256
I3
aI4
aI5
atp2257
Rp2258
ag14
ag1
((lp2259
I2
aI3
aI4
atp2260
Rp2261
ag1
((lp2262
I1
aI2
aI4
atp2263
Rp2264
ag44
ag1
((lp2265
I2
aI4
aI5
atp2266
Rp2267
atp2268
Rp2269
I720
sg1
((lp2270
g1
((lp2271
I1
aI3
aI5
atp2272
Rp2273
ag1502
ag1
((lp2274
I2
aI3
aI5
atp2275
Rp2276
ag83
ag1508
ag44
ag1
((lp2277
I2
aI4
aI5
atp2278
Rp2279
atp2280
Rp2281
I720
sg1
((lp2282
g743
ag1
((lp2283
I2
aI5
aI6
atp2284
Rp2285
ag140
ag104
ag149
ag152
ag155
atp2286
Rp2287
I360
sg1
((lp2288
g1
((lp2289
I1
aI3
aI5
atp2290
Rp2291
ag1
((lp2292
I3
aI4
aI5
atp2293
Rp2294
ag1
((lp2295
I1
aI3
aI6
atp2296
Rp2297
ag164
ag1
((lp2298
I2
aI4
aI6
atp2299
Rp2300
ag62
ag1
((lp2301
I1
aI2
aI6
atp2302
Rp2303
atp2304
Rp2305
I720
sg1
((lp2306
g1
((lp2307
I3
aI4
aI6
atp2308
Rp2309
ag1
((lp2310
I3
aI4
aI5
atp2311
Rp2312
ag290
ag1
((lp2313
I2
aI3
aI4
atp2314
Rp2315
ag1
((lp2316
I1
aI2
aI5
atp2317
Rp2318
ag131
ag1
((lp2319
I3
aI5
aI6
atp2320
Rp2321
atp2322
Rp2323
I720
sg1
((lp2324
g1748
ag2048
ag11
ag2054
ag131
ag1
((lp2325
I1
aI5
aI6
atp2326
Rp2327
ag1754
atp2328
Rp2329
I360
sg1
((lp2330
g1
((lp2331
I3
aI4
aI6
atp2332
Rp2333
ag389
ag290
ag1
((lp2334
I2
aI3
aI4
atp2335
Rp2336
ag344
ag1319
ag395
atp2337
Rp2338
I720
sg1
((lp2339
g11
ag455
ag458
ag1
((lp2340
I1
aI4
aI5
atp2341
Rp2342
ag344
ag1
((lp2343
I1
aI5
aI6
atp2344
Rp2345
ag1
((lp2346
I1
aI4
aI6
atp2347
Rp2348
atp2349
Rp2350
I360
sg1
((lp2351
g1
((lp2352
I2
aI5
aI6
atp2353
Rp2354
ag1
((lp2355
I2
aI3
aI5
atp2356
Rp2357
ag83
ag164
ag1
((lp2358
I1
aI5
aI6
atp2359
Rp2360
ag1
((lp2361
I2
aI4
aI5
atp2362
Rp2363
ag1
((lp2364
I3
aI5
aI6
atp2365
Rp2366
atp2367
Rp2368
I720
sg1
((lp2369
g1
((lp2370
I3
aI4
aI6
atp2371
Rp2372
ag329
ag332
ag2243
ag344
ag347
ag2249
atp2373
Rp2374
I180
sg1
((lp2375
g752
ag14
ag1
((lp2376
I2
aI3
aI4
atp2377
Rp2378
ag755
ag1559
ag128
ag1
((lp2379
I1
aI2
aI3
atp2380
Rp2381
atp2382
Rp2383
I720
sg1
((lp2384
g1907
ag1
((lp2385
I1
aI3
aI6
atp2386
Rp2387
ag29
ag332
ag1838
ag1
((lp2388
I1
aI3
aI4
atp2389
Rp2390
ag947
atp2391
Rp2392
I720
sg1
((lp2393
g1760
ag1
((lp2394
I3
aI4
aI5
atp2395
Rp2396
ag1055
ag29
ag164
ag2000
ag1064
atp2397
Rp2398
I180
sg1
((lp2399
g1
((lp2400
I2
aI3
aI5
atp2401
Rp2402
ag14
ag164
ag1
((lp2403
I1
aI2
aI5
atp2404
Rp2405
ag1
((lp2406
I2
aI4
aI6
atp2407
Rp2408
ag1
((lp2409
I1
aI3
aI6
atp2410
Rp2411
ag1
((lp2412
I2
aI4
aI5
atp2413
Rp2414
atp2415
Rp2416
I720
sg1
((lp2417
g2060
ag1940
ag14
ag1
((lp2418
I2
aI3
aI4
atp2419
Rp2420
ag1949
ag1
((lp2421
I1
aI2
aI6
atp2422
Rp2423
ag155
atp2424
Rp2425
I720
sg1
((lp2426
g1
((lp2427
I2
aI3
aI6
atp2428
Rp2429
ag1
((lp2430
I3
aI4
aI5
atp2431
Rp2432
ag14
ag1
((lp2433
I1
aI4
aI5
atp2434
Rp2435
ag1
((lp2436
I1
aI3
aI5
atp2437
Rp2438
ag344
ag1
((lp2439
I1
aI4
aI6
atp2440
Rp2441
atp2442
Rp2443
I360
sg1
((lp2444
g1
((lp2445
I2
aI3
aI6
atp2446
Rp2447
ag1196
ag332
ag926
ag1199
ag131
ag1
((lp2448
I1
aI4
aI6
atp2449
Rp2450
atp2451
Rp2452
I720
sg1
((lp2453
g470
ag1
((lp2454
I3
aI4
aI6
atp2455
Rp2456
ag344
ag1673
ag1700
ag1
((lp2457
I1
aI4
aI6
atp2458
Rp2459
ag1703
atp2460
Rp2461
I360
sg1
((lp2462
g1
((lp2463
I1
aI3
aI6
atp2464
Rp2465
ag332
ag1
((lp2466
I4
aI5
aI6
atp2467
Rp2468
ag356
ag359
ag62
ag1
((lp2469
I1
aI4
aI6
atp2470
Rp2471
atp2472
Rp2473
I180
sg1
((lp2474
g1451
ag1
((lp2475
I2
aI3
aI5
atp2476
Rp2477
ag1
((lp2478
I1
aI2
aI5
atp2479
Rp2480
ag104
ag131
ag1460
ag1
((lp2481
I1
aI5
aI6
atp2482
Rp2483
atp2484
Rp2485
I360
sg1
((lp2486
g1
((lp2487
I2
aI3
aI6
atp2488
Rp2489
ag1931
ag1
((lp2490
I2
aI3
aI5
atp2491
Rp2492
ag1
((lp2493
I1
aI2
aI5
atp2494
Rp2495
ag827
ag44
ag155
atp2496
Rp2497
I720
sg1
((lp2498
g470
ag1
((lp2499
I2
aI5
aI6
atp2500
Rp2501
ag1
((lp2502
I3
aI4
aI5
atp2503
Rp2504
ag1
((lp2505
I1
aI2
aI3
atp2506
Rp2507
ag29
ag1
((lp2508
I1
aI4
aI6
atp2509
Rp2510
ag1
((lp2511
I3
aI5
aI6
atp2512
Rp2513
atp2514
Rp2515
I360
sg1
((lp2516
g1
((lp2517
I1
aI3
aI5
atp2518
Rp2519
ag1
((lp2520
I2
aI3
aI5
atp2521
Rp2522
ag1
((lp2523
I4
aI5
aI6
atp2524
Rp2525
ag1
((lp2526
I1
aI4
aI5
atp2527
Rp2528
ag104
ag44
ag1
((lp2529
I2
aI4
aI5
atp2530
Rp2531
atp2532
Rp2533
I720
sg1
((lp2534
g1
((lp2535
I1
aI3
aI5
atp2536
Rp2537
ag1
((lp2538
I2
aI3
aI4
atp2539
Rp2540
ag1724
ag344
ag1
((lp2541
I1
aI5
aI6
atp2542
Rp2543
ag1
((lp2544
I1
aI2
aI3
atp2545
Rp2546
ag155
atp2547
Rp2548
I720
sg1
((lp2549
g218
ag1
((lp2550
I2
aI3
aI6
atp2551
Rp2552
ag1
((lp2553
I1
aI3
aI6
atp2554
Rp2555
ag29
ag224
ag1
((lp2556
I1
aI2
aI3
atp2557
Rp2558
ag155
atp2559
Rp2560
I360
sg1
((lp2561
g1
((lp2562
I2
aI5
aI6
atp2563
Rp2564
ag332
ag1
((lp2565
I1
aI2
aI5
atp2566
Rp2567
ag1
((lp2568
I4
aI5
aI6
atp2569
Rp2570
ag1
((lp2571
I2
aI4
aI6
atp2572
Rp2573
ag104
ag1856
atp2574
Rp2575
I360
sg1
((lp2576
g1
((lp2577
I3
aI4
aI6
atp2578
Rp2579
ag2291
ag2294
ag2297
ag164
ag1
((lp2580
I4
aI5
aI6
atp2581
Rp2582
ag62
atp2583
Rp2584
I360
sg1
((lp2585
g1
((lp2586
I1
aI3
aI6
atp2587
Rp2588
ag332
ag1
((lp2589
I1
aI2
aI5
atp2590
Rp2591
ag128
ag1
((lp2592
I1
aI2
aI6
atp2593
Rp2594
ag2234
ag2237
atp2595
Rp2596
I360
sg1
((lp2597
g1784
ag995
ag1
((lp2598
I2
aI3
aI5
atp2599
Rp2600
ag164
ag1790
ag1007
ag155
atp2601
Rp2602
I720
sg1
((lp2603
g11
ag1
((lp2604
I2
aI3
aI5
atp2605
Rp2606
ag290
ag1
((lp2607
I4
aI5
aI6
atp2608
Rp2609
ag1
((lp2610
I1
aI4
aI5
atp2611
Rp2612
ag1
((lp2613
I1
aI4
aI6
atp2614
Rp2615
ag1
((lp2616
I1
aI2
aI3
atp2617
Rp2618
atp2619
Rp2620
I180
sg1
((lp2621
g1
((lp2622
I2
aI3
aI6
atp2623
Rp2624
ag164
ag332
ag1
((lp2625
I2
aI3
aI4
atp2626
Rp2627
ag428
ag1
((lp2628
I4
aI5
aI6
atp2629
Rp2630
ag434
atp2631
Rp2632
I720
sg1
((lp2633
g1478
ag1481
ag1
((lp2634
I1
aI2
aI4
atp2635
Rp2636
ag62
ag344
ag1217
ag1
((lp2637
I3
aI5
aI6
atp2638
Rp2639
atp2640
Rp2641
I180
sg1
((lp2642
g1
((lp2643
I3
aI4
aI6
atp2644
Rp2645
ag1433
ag290
ag1
((lp2646
I1
aI2
aI5
atp2647
Rp2648
ag1
((lp2649
I1
aI3
aI4
atp2650
Rp2651
ag62
ag1442
atp2652
Rp2653
I360
sg1
((lp2654
g530
ag1
((lp2655
I1
aI3
aI6
atp2656
Rp2657
ag83
ag290
ag536
ag1
((lp2658
I1
aI4
aI5
atp2659
Rp2660
ag1
((lp2661
I2
aI4
aI5
atp2662
Rp2663
atp2664
Rp2665
I180
sg1
((lp2666
g470
ag1
((lp2667
I1
aI3
aI5
atp2668
Rp2669
ag1
((lp2670
I3
aI4
aI5
atp2671
Rp2672
ag11
ag1
((lp2673
I2
aI3
aI5
atp2674
Rp2675
ag1
((lp2676
I1
aI5
aI6
atp2677
Rp2678
ag1
((lp2679
I1
aI2
aI3
atp2680
Rp2681
atp2682
Rp2683
I720
sg1
((lp2684
g1
((lp2685
I1
aI2
aI3
atp2686
Rp2687
ag1775
ag1601
ag128
ag44
ag1607
ag1898
atp2688
Rp2689
I180
sg1
((lp2690
g1
((lp2691
I1
aI4
aI5
atp2692
Rp2693
ag1
((lp2694
I2
aI5
aI6
atp2695
Rp2696
ag11
ag332
ag1
((lp2697
I2
aI3
aI4
atp2698
Rp2699
ag1
((lp2700
I2
aI4
aI6
atp2701
Rp2702
ag1310
atp2703
Rp2704
I720
sg1
((lp2705
g671
ag290
ag1
((lp2706
I1
aI2
aI5
atp2707
Rp2708
ag2090
ag1
((lp2709
I1
aI4
aI5
atp2710
Rp2711
ag44
ag1
((lp2712
I2
aI4
aI5
atp2713
Rp2714
atp2715
Rp2716
I360
sg1
((lp2717
g1
((lp2718
I2
aI3
aI6
atp2719
Rp2720
ag1
((lp2721
I1
aI3
aI6
atp2722
Rp2723
ag1
((lp2724
I3
aI5
aI6
atp2725
Rp2726
ag128
ag1
((lp2727
I1
aI2
aI6
atp2728
Rp2729
ag1
((lp2730
I1
aI2
aI3
atp2731
Rp2732
ag155
atp2733
Rp2734
I360
sg1
((lp2735
g1
((lp2736
I3
aI4
aI6
atp2737
Rp2738
ag290
ag332
ag1
((lp2739
I2
aI3
aI4
atp2740
Rp2741
ag1
((lp2742
I1
aI2
aI5
atp2743
Rp2744
ag1
((lp2745
I1
aI2
aI4
atp2746
Rp2747
ag1
((lp2748
I2
aI4
aI5
atp2749
Rp2750
atp2751
Rp2752
I720
sg1
((lp2753
g1
((lp2754
I2
aI5
aI6
atp2755
Rp2756
ag1
((lp2757
I3
aI4
aI5
atp2758
Rp2759
ag11
ag1
((lp2760
I2
aI3
aI4
atp2761
Rp2762
ag1
((lp2763
I1
aI4
aI5
atp2764
Rp2765
ag1
((lp2766
I1
aI3
aI4
atp2767
Rp2768
ag128
atp2769
Rp2770
I720
sg1
((lp2771
g2372
ag332
ag338
ag344
ag347
ag1
((lp2772
I1
aI5
aI6
atp2773
Rp2774
ag2249
atp2775
Rp2776
I360
sg1
((lp2777
g1
((lp2778
I2
aI5
aI6
atp2779
Rp2780
ag11
ag1568
ag1571
ag1574
ag62
ag1
((lp2781
I2
aI4
aI5
atp2782
Rp2783
atp2784
Rp2785
I360
sg1
((lp2786
g2192
ag14
ag290
ag2195
ag1
((lp2787
I1
aI2
aI5
atp2788
Rp2789
ag2198
ag611
atp2790
Rp2791
I720
sg1
((lp2792
g767
ag1
((lp2793
I1
aI2
aI5
atp2794
Rp2795
ag1871
ag773
ag62
ag131
ag1
((lp2796
I2
aI4
aI5
atp2797
Rp2798
atp2799
Rp2800
I360
sg1
((lp2801
g470
ag2456
ag1697
ag1664
ag1670
ag344
ag1700
atp2802
Rp2803
I360
sg1
((lp2804
g1463
ag2477
ag2174
ag104
ag131
ag2483
ag1
((lp2805
I1
aI4
aI6
atp2806
Rp2807
atp2808
Rp2809
I720
sg1
((lp2810
g1
((lp2811
I2
aI3
aI6
atp2812
Rp2813
ag1
((lp2814
I3
aI4
aI5
atp2815
Rp2816
ag1
((lp2817
I2
aI3
aI5
atp2818
Rp2819
ag83
ag1
((lp2820
I2
aI3
aI4
atp2821
Rp2822
ag131
ag1
((lp2823
I2
aI4
aI5
atp2824
Rp2825
atp2826
Rp2827
I180
sg1
((lp2828
g563
ag1226
ag83
ag332
ag1229
ag1
((lp2829
I1
aI3
aI4
atp2830
Rp2831
ag572
atp2832
Rp2833
I720
sg1
((lp2834
g470
ag2669
ag11
ag2675
ag1
((lp2835
I4
aI5
aI6
atp2836
Rp2837
ag1
((lp2838
I1
aI4
aI6
atp2839
Rp2840
ag2681
atp2841
Rp2842
I360
sg1
((lp2843
g470
ag1
((lp2844
I1
aI3
aI5
atp2845
Rp2846
ag1
((lp2847
I2
aI5
aI6
atp2848
Rp2849
ag1
((lp2850
I3
aI4
aI5
atp2851
Rp2852
ag83
ag1
((lp2853
I1
aI4
aI6
atp2854
Rp2855
ag1
((lp2856
I3
aI5
aI6
atp2857
Rp2858
atp2859
Rp2860
I360
sg1
((lp2861
g122
ag629
ag125
ag128
ag131
ag632
ag1469
atp2862
Rp2863
I180
s.