(dp0
c__builtin__
frozenset
p1
((lp2
g1
((lp3
I3
aI6
atp4
Rp5
ag1
((lp6
I5
aI6
atp7
Rp8
ag1
((lp9
I1
aI2
aI3
atp10
Rp11
ag1
((lp12
I1
aI2
aI4
aI5
atp13
Rp14
ag1
((lp15
I1
aI4
aI6
atp16
Rp17
ag1
((lp18
I2
aI3
aI4
aI5
atp19
Rp20
atp21
Rp22
I720
sg1
((lp23
g1
((lp24
I1
aI4
atp25
Rp26
ag1
((lp27
I4
aI5
aI6
atp28
Rp29
ag1
((lp30
I2
aI3
aI4
aI6
atp31
Rp32
ag1
((lp33
I1
aI3
atp34
Rp35
ag1
((lp36
I1
aI5
aI6
atp37
Rp38
ag1
((lp39
I2
aI3
aI4
aI5
atp40
Rp41
atp42
Rp43
I360
sg1
((lp44
g1
((lp45
I1
aI3
aI5
atp46
Rp47
ag1
((lp48
I1
aI3
aI4
aI6
atp49
Rp50
ag1
((lp51
I2
aI6
atp52
Rp53
ag1
((lp54
I1
aI4
aI5
aI6
atp55
Rp56
ag1
((lp57
I2
aI5
atp58
Rp59
ag1
((lp60
I3
aI5
aI6
atp61
Rp62
atp63
Rp64
I720
sg1
((lp65
g1
((lp66
I3
aI4
aI5
aI6
atp67
Rp68
ag53
ag1
((lp69
I2
aI3
aI5
atp70
Rp71
ag1
((lp72
I1
aI6
atp73
Rp74
ag1
((lp75
I1
aI3
aI4
aI5
atp76
Rp77
ag1
((lp78
I2
aI4
aI5
atp79
Rp80
atp81
Rp82
I360
sg1
((lp83
g1
((lp84
I3
aI4
aI6
atp85
Rp86
ag1
((lp87
I3
aI5
atp88
Rp89
ag1
((lp90
I1
aI4
aI5
aI6
atp91
Rp92
ag1
((lp93
I1
aI3
aI4
atp94
Rp95
ag1
((lp96
I2
aI3
atp97
Rp98
ag1
((lp99
I1
aI2
aI4
aI5
atp100
Rp101
atp102
Rp103
I720
sg1
((lp104
g1
((lp105
I1
aI3
aI5
aI6
atp106
Rp107
ag1
((lp108
I3
aI4
aI5
atp109
Rp110
ag1
((lp111
I1
aI2
atp112
Rp113
ag1
((lp114
I1
aI4
aI5
aI6
atp115
Rp116
ag1
((lp117
I1
aI3
aI4
atp118
Rp119
ag59
atp120
Rp121
I180
sg1
((lp122
g1
((lp123
I1
aI3
aI5
aI6
atp124
Rp125
ag59
ag1
((lp126
I2
aI3
aI4
aI6
atp127
Rp128
ag1
((lp129
I1
aI2
aI6
atp130
Rp131
ag1
((lp132
I1
aI4
aI6
atp133
Rp134
ag1
((lp135
I4
aI5
atp136
Rp137
atp138
Rp139
I360
sg1
((lp140
g1
((lp141
I1
aI2
aI3
aI4
atp142
Rp143
ag8
ag1
((lp144
I1
aI5
atp145
Rp146
ag1
((lp147
I2
aI3
aI5
atp148
Rp149
ag1
((lp150
I2
aI3
aI4
aI6
atp151
Rp152
ag1
((lp153
I1
aI2
aI6
atp154
Rp155
atp156
Rp157
I360
sg1
((lp158
g1
((lp159
I3
aI4
aI5
atp160
Rp161
ag5
ag1
((lp162
I1
aI4
aI5
aI6
atp163
Rp164
ag1
((lp165
I1
aI2
aI4
atp166
Rp167
ag98
ag1
((lp168
I2
aI4
aI5
aI6
atp169
Rp170
atp171
Rp172
I720
sg1
((lp173
g1
((lp174
I2
aI3
aI5
aI6
atp175
Rp176
ag1
((lp177
I1
aI3
aI6
atp178
Rp179
ag113
ag1
((lp180
I4
aI6
atp181
Rp182
ag1
((lp183
I1
aI3
aI4
aI5
atp184
Rp185
ag1
((lp186
I2
aI4
aI5
atp187
Rp188
atp189
Rp190
I180
sg1
((lp191
g53
ag1
((lp192
I1
aI2
aI5
atp193
Rp194
ag98
ag1
((lp195
I1
aI4
aI5
aI6
atp196
Rp197
ag1
((lp198
I1
aI3
aI4
aI5
atp199
Rp200
ag1
((lp201
I2
aI4
aI5
atp202
Rp203
atp204
Rp205
I180
sg1
((lp206
g1
((lp207
I1
aI3
aI5
aI6
atp208
Rp209
ag1
((lp210
I3
aI4
aI5
atp211
Rp212
ag1
((lp213
I1
aI2
aI5
aI6
atp214
Rp215
ag98
ag182
ag1
((lp216
I2
aI4
aI5
atp217
Rp218
atp219
Rp220
I360
sg1
((lp221
g1
((lp222
I1
aI2
aI4
aI6
atp223
Rp224
ag1
((lp225
I1
aI3
aI6
atp226
Rp227
ag1
((lp228
I1
aI4
aI5
aI6
atp229
Rp230
ag98
ag59
ag1
((lp231
I3
aI5
aI6
atp232
Rp233
atp234
Rp235
I720
sg1
((lp236
g1
((lp237
I1
aI3
aI5
aI6
atp238
Rp239
ag1
((lp240
I1
aI2
aI4
aI6
atp241
Rp242
ag1
((lp243
I3
aI4
aI5
atp244
Rp245
ag1
((lp246
I1
aI4
aI5
atp247
Rp248
ag98
ag59
atp249
Rp250
I720
sg1
((lp251
g1
((lp252
I2
aI4
atp253
Rp254
ag1
((lp255
I2
aI3
aI5
aI6
atp256
Rp257
ag1
((lp258
I1
aI2
aI5
atp259
Rp260
ag1
((lp261
I1
aI4
aI5
aI6
atp262
Rp263
ag35
ag1
((lp264
I1
aI2
aI6
atp265
Rp266
atp267
Rp268
I180
sg1
((lp269
g254
ag1
((lp270
I1
aI3
aI5
atp271
Rp272
ag1
((lp273
I1
aI2
aI5
aI6
atp274
Rp275
ag1
((lp276
I3
aI4
atp277
Rp278
ag1
((lp279
I1
aI2
aI3
aI6
atp280
Rp281
ag1
((lp282
I3
aI5
aI6
atp283
Rp284
atp285
Rp286
I360
sg1
((lp287
g1
((lp288
I1
aI3
aI5
atp289
Rp290
ag1
((lp291
I1
aI2
aI4
aI6
atp292
Rp293
ag278
ag1
((lp294
I1
aI2
aI3
aI6
atp295
Rp296
ag1
((lp297
I3
aI5
aI6
atp298
Rp299
ag137
atp300
Rp301
I360
sg1
((lp302
g1
((lp303
I1
aI3
aI5
aI6
atp304
Rp305
ag1
((lp306
I3
aI4
aI5
aI6
atp307
Rp308
ag113
ag1
((lp309
I2
aI3
aI4
atp310
Rp311
ag1
((lp312
I1
aI4
aI5
atp313
Rp314
ag59
atp315
Rp316
I720
sg1
((lp317
g1
((lp318
I1
aI3
aI5
aI6
atp319
Rp320
ag53
ag1
((lp321
I1
aI4
aI5
aI6
atp322
Rp323
ag1
((lp324
I1
aI2
aI4
atp325
Rp326
ag1
((lp327
I1
aI3
aI4
atp328
Rp329
ag98
atp330
Rp331
I720
sg1
((lp332
g1
((lp333
I3
aI4
aI5
atp334
Rp335
ag8
ag1
((lp336
I1
aI2
aI4
atp337
Rp338
ag1
((lp339
I1
aI2
aI3
aI6
atp340
Rp341
ag59
ag1
((lp342
I2
aI3
aI4
aI6
atp343
Rp344
atp345
Rp346
I720
sg1
((lp347
g254
ag1
((lp348
I3
aI4
aI6
atp349
Rp350
ag1
((lp351
I1
aI3
aI5
atp352
Rp353
ag1
((lp354
I2
aI3
aI5
aI6
atp355
Rp356
ag113
ag1
((lp357
I1
aI4
aI5
aI6
atp358
Rp359
atp360
Rp361
I360
sg1
((lp362
g1
((lp363
I2
aI3
aI6
atp364
Rp365
ag1
((lp366
I1
aI2
aI3
aI4
atp367
Rp368
ag89
ag1
((lp369
I1
aI2
aI5
aI6
atp370
Rp371
ag182
ag1
((lp372
I2
aI4
aI5
atp373
Rp374
atp375
Rp376
I180
sg1
((lp377
g1
((lp378
I1
aI2
aI4
aI6
atp379
Rp380
ag5
ag1
((lp381
I2
aI3
aI5
atp382
Rp383
ag278
ag1
((lp384
I2
aI4
aI5
aI6
atp385
Rp386
ag1
((lp387
I1
aI2
aI3
atp388
Rp389
atp390
Rp391
I180
sg1
((lp392
g1
((lp393
I1
aI2
aI3
aI5
atp394
Rp395
ag1
((lp396
I1
aI2
aI4
atp397
Rp398
ag1
((lp399
I1
aI3
aI4
atp400
Rp401
ag182
ag74
ag1
((lp402
I2
aI3
aI4
aI5
atp403
Rp404
atp405
Rp406
I180
sg1
((lp407
g1
((lp408
I1
aI3
aI5
atp409
Rp410
ag26
ag74
ag1
((lp411
I2
aI3
aI4
aI6
atp412
Rp413
ag1
((lp414
I2
aI4
aI5
aI6
atp415
Rp416
ag1
((lp417
I1
aI2
aI3
atp418
Rp419
atp420
Rp421
I360
sg1
((lp422
g26
ag89
ag1
((lp423
I2
aI3
aI4
atp424
Rp425
ag1
((lp426
I4
aI5
aI6
atp427
Rp428
ag1
((lp429
I1
aI2
aI5
aI6
atp430
Rp431
ag1
((lp432
I1
aI2
aI3
aI6
atp433
Rp434
atp435
Rp436
I360
sg1
((lp437
g5
ag383
ag1
((lp438
I1
aI2
aI5
atp439
Rp440
ag278
ag1
((lp441
I1
aI4
aI5
aI6
atp442
Rp443
ag1
((lp444
I2
aI4
aI5
aI6
atp445
Rp446
atp447
Rp448
I360
sg1
((lp449
g1
((lp450
I2
aI4
aI6
atp451
Rp452
ag98
ag59
ag1
((lp453
I1
aI3
aI4
aI5
atp454
Rp455
ag1
((lp456
I1
aI2
aI6
atp457
Rp458
ag1
((lp459
I1
aI3
aI4
aI6
atp460
Rp461
atp462
Rp463
I360
sg1
((lp464
g1
((lp465
I2
aI3
aI5
atp466
Rp467
ag1
((lp468
I2
aI3
aI4
atp469
Rp470
ag182
ag74
ag1
((lp471
I1
aI3
aI4
aI5
atp472
Rp473
ag1
((lp474
I1
aI2
aI4
aI5
atp475
Rp476
atp477
Rp478
I360
sg1
((lp479
g5
ag1
((lp480
I1
aI2
aI3
aI4
atp481
Rp482
ag89
ag1
((lp483
I1
aI2
aI5
atp484
Rp485
ag1
((lp486
I1
aI4
aI5
aI6
atp487
Rp488
ag1
((lp489
I2
aI4
aI5
atp490
Rp491
atp492
Rp493
I360
sg1
((lp494
g1
((lp495
I1
aI3
aI5
aI6
atp496
Rp497
ag245
ag1
((lp498
I1
aI4
aI5
aI6
atp499
Rp500
ag98
ag59
ag458
atp501
Rp502
I360
sg1
((lp503
g1
((lp504
I1
aI3
aI5
aI6
atp505
Rp506
ag1
((lp507
I1
aI4
aI5
aI6
atp508
Rp509
ag1
((lp510
I2
aI4
aI6
atp511
Rp512
ag278
ag59
ag1
((lp513
I1
aI2
aI6
atp514
Rp515
atp516
Rp517
I720
sg1
((lp518
g1
((lp519
I3
aI4
aI6
atp520
Rp521
ag1
((lp522
I1
aI3
aI5
atp523
Rp524
ag113
ag1
((lp525
I1
aI4
aI5
aI6
atp526
Rp527
ag98
ag1
((lp528
I2
aI4
aI5
aI6
atp529
Rp530
atp531
Rp532
I360
sg1
((lp533
g254
ag1
((lp534
I2
aI3
aI5
aI6
atp535
Rp536
ag1
((lp537
I3
aI4
aI5
aI6
atp538
Rp539
ag1
((lp540
I1
aI2
aI5
atp541
Rp542
ag74
ag1
((lp543
I1
aI2
aI3
atp544
Rp545
atp546
Rp547
I360
sg1
((lp548
g254
ag1
((lp549
I1
aI3
aI5
aI6
atp550
Rp551
ag1
((lp552
I3
aI4
aI5
atp553
Rp554
ag59
ag1
((lp555
I1
aI2
aI6
atp556
Rp557
ag1
((lp558
I1
aI3
aI4
aI6
atp559
Rp560
atp561
Rp562
I180
sg1
((lp563
g1
((lp564
I1
aI2
aI4
aI6
atp565
Rp566
ag1
((lp567
I3
aI4
aI5
atp568
Rp569
ag5
ag1
((lp570
I1
aI2
aI5
aI6
atp571
Rp572
ag35
ag1
((lp573
I2
aI4
aI5
atp574
Rp575
atp576
Rp577
I180
s.