(dp0
c__builtin__
frozenset
p1
((lp2
g1
((lp3
I5
aI6
atp4
Rp5
ag1
((lp6
I1
aI2
aI3
atp7
Rp8
ag1
((lp9
I2
aI5
atp10
Rp11
atp12
Rp13
I360
sg1
((lp14
g1
((lp15
I3
aI4
atp16
Rp17
ag1
((lp18
I1
aI4
atp19
Rp20
ag1
((lp21
I4
aI5
aI6
atp22
Rp23
atp24
Rp25
I180
sg1
((lp26
g1
((lp27
I2
aI3
aI5
atp28
Rp29
ag1
((lp30
I1
aI5
atp31
Rp32
ag1
((lp33
I3
aI6
atp34
Rp35
atp36
Rp37
I360
sg1
((lp38
g1
((lp39
I1
aI2
aI6
atp40
Rp41
ag1
((lp42
I2
aI3
atp43
Rp44
ag35
atp45
Rp46
I180
sg1
((lp47
g1
((lp48
I1
aI2
atp49
Rp50
ag1
((lp51
I1
aI3
aI4
atp52
Rp53
ag5
atp54
Rp55
I180
sg1
((lp56
g32
ag1
((lp57
I1
aI6
atp58
Rp59
ag1
((lp60
I2
aI3
aI4
atp61
Rp62
atp63
Rp64
I60
s.