(dp0
c__builtin__
frozenset
p1
((lp2
g1
((lp3
I3
aI4
aI6
atp4
Rp5
ag1
((lp6
I1
aI2
aI4
aI6
atp7
Rp8
ag1
((lp9
I1
aI2
aI3
aI4
atp10
Rp11
ag1
((lp12
I5
aI6
atp13
Rp14
ag1
((lp15
I1
aI5
atp16
Rp17
ag1
((lp18
I2
aI3
aI5
atp19
Rp20
ag1
((lp21
I4
aI5
atp22
Rp23
atp24
Rp25
I720
sg1
((lp26
g1
((lp27
I2
aI6
atp28
Rp29
ag1
((lp30
I1
aI2
aI3
aI5
atp31
Rp32
ag1
((lp33
I1
aI2
aI4
atp34
Rp35
ag1
((lp36
I1
aI4
aI5
atp37
Rp38
ag1
((lp39
I4
aI6
atp40
Rp41
ag1
((lp42
I1
aI6
atp43
Rp44
ag1
((lp45
I2
aI3
aI4
aI5
atp46
Rp47
atp48
Rp49
I360
sg1
((lp50
g1
((lp51
I2
aI5
aI6
atp52
Rp53
ag1
((lp54
I3
aI6
atp55
Rp56
ag1
((lp57
I1
aI2
aI3
aI4
atp58
Rp59
ag1
((lp60
I3
aI5
atp61
Rp62
ag1
((lp63
I1
aI5
aI6
atp64
Rp65
ag23
ag1
((lp66
I1
aI2
aI4
aI6
atp67
Rp68
atp69
Rp70
I360
sg1
((lp71
g14
ag1
((lp72
I1
aI2
aI3
aI5
atp73
Rp74
ag1
((lp75
I1
aI2
aI4
atp76
Rp77
ag1
((lp78
I2
aI4
aI6
atp79
Rp80
ag1
((lp81
I3
aI4
atp82
Rp83
ag1
((lp84
I1
aI2
aI3
aI6
atp85
Rp86
ag23
atp87
Rp88
I720
sg1
((lp89
g1
((lp90
I2
aI4
atp91
Rp92
ag1
((lp93
I3
aI4
aI6
atp94
Rp95
ag1
((lp96
I1
aI3
aI6
atp97
Rp98
ag1
((lp99
I1
aI4
atp100
Rp101
ag1
((lp102
I1
aI2
aI3
aI5
atp103
Rp104
ag1
((lp105
I1
aI2
aI5
aI6
atp106
Rp107
ag23
atp108
Rp109
I180
sg1
((lp110
g1
((lp111
I2
aI3
aI6
atp112
Rp113
ag1
((lp114
I1
aI2
aI3
aI4
atp115
Rp116
ag14
ag1
((lp117
I1
aI4
aI5
atp118
Rp119
ag41
ag44
ag1
((lp120
I2
aI3
aI4
aI5
atp121
Rp122
atp123
Rp124
I180
sg1
((lp125
g14
ag17
ag1
((lp126
I1
aI2
aI3
aI6
atp127
Rp128
ag1
((lp129
I1
aI2
aI4
atp130
Rp131
ag1
((lp132
I1
aI3
aI4
atp133
Rp134
ag1
((lp135
I2
aI3
aI4
aI6
atp136
Rp137
ag23
atp138
Rp139
I180
sg1
((lp140
g1
((lp141
I1
aI2
atp142
Rp143
ag1
((lp144
I4
aI5
aI6
atp145
Rp146
ag1
((lp147
I1
aI4
aI5
atp148
Rp149
ag44
ag1
((lp150
I2
aI3
aI4
aI6
atp151
Rp152
ag1
((lp153
I1
aI3
atp154
Rp155
ag1
((lp156
I2
aI3
aI4
aI5
atp157
Rp158
atp159
Rp160
I360
sg1
((lp161
g56
ag62
ag1
((lp162
I1
aI4
aI5
aI6
atp163
Rp164
ag1
((lp165
I1
aI2
aI4
atp166
Rp167
ag1
((lp168
I1
aI2
aI5
aI6
atp169
Rp170
ag155
ag1
((lp171
I2
aI4
aI5
atp172
Rp173
atp174
Rp175
I180
sg1
((lp176
g56
ag1
((lp177
I1
aI2
aI3
aI4
atp178
Rp179
ag41
ag1
((lp180
I2
aI5
atp181
Rp182
ag1
((lp183
I1
aI3
aI4
aI5
atp184
Rp185
ag1
((lp186
I1
aI2
aI6
atp187
Rp188
ag1
((lp189
I1
aI5
aI6
atp190
Rp191
atp192
Rp193
I180
sg1
((lp194
g1
((lp195
I2
aI5
aI6
atp196
Rp197
ag1
((lp198
I3
aI4
aI5
aI6
atp199
Rp200
ag1
((lp201
I2
aI4
aI6
atp202
Rp203
ag1
((lp204
I2
aI3
atp205
Rp206
ag44
ag155
ag1
((lp207
I1
aI2
aI4
aI5
atp208
Rp209
atp210
Rp211
I180
sg1
((lp212
g14
ag17
ag1
((lp213
I1
aI3
aI4
atp214
Rp215
ag44
ag1
((lp216
I2
aI3
aI4
aI6
atp217
Rp218
ag1
((lp219
I1
aI2
aI3
atp220
Rp221
ag1
((lp222
I2
aI3
aI4
aI5
atp223
Rp224
atp225
Rp226
I180
sg1
((lp227
g56
ag1
((lp228
I1
aI4
aI5
aI6
atp229
Rp230
ag83
ag1
((lp231
I1
aI2
aI5
atp232
Rp233
ag1
((lp234
I2
aI4
aI5
aI6
atp235
Rp236
ag155
ag1
((lp237
I1
aI2
aI6
atp238
Rp239
atp240
Rp241
I720
sg1
((lp242
g1
((lp243
I2
aI5
aI6
atp244
Rp245
ag62
ag1
((lp246
I4
aI5
aI6
atp247
Rp248
ag83
ag206
ag1
((lp249
I1
aI2
aI4
aI5
atp250
Rp251
ag1
((lp252
I1
aI2
aI4
aI6
atp253
Rp254
atp255
Rp256
I360
sg1
((lp257
g1
((lp258
I1
aI2
aI4
aI6
atp259
Rp260
ag14
ag62
ag1
((lp261
I1
aI2
aI3
aI6
atp262
Rp263
ag1
((lp264
I1
aI2
aI5
atp265
Rp266
ag1
((lp267
I1
aI3
aI4
atp268
Rp269
ag23
atp270
Rp271
I360
s.