(dp0
c__builtin__
frozenset
p1
((lp2
g1
((lp3
I3
aI4
aI6
atp4
Rp5
ag1
((lp6
I2
aI5
aI6
atp7
Rp8
ag1
((lp9
I2
aI3
aI5
atp10
Rp11
ag1
((lp12
I1
aI4
atp13
Rp14
ag1
((lp15
I2
aI3
aI4
atp16
Rp17
ag1
((lp18
I1
aI2
aI5
atp19
Rp20
ag1
((lp21
I1
aI3
atp22
Rp23
ag1
((lp24
I1
aI2
aI6
atp25
Rp26
ag1
((lp27
I3
aI5
aI6
atp28
Rp29
ag1
((lp30
I4
aI5
atp31
Rp32
atp33
Rp34
I720
sg1
((lp35
g1
((lp36
I1
aI3
aI5
atp37
Rp38
ag1
((lp39
I2
aI5
aI6
atp40
Rp41
ag1
((lp42
I1
aI3
aI6
atp43
Rp44
ag1
((lp45
I1
aI2
aI3
atp46
Rp47
ag14
ag1
((lp48
I3
aI4
atp49
Rp50
ag1
((lp51
I4
aI6
atp52
Rp53
ag1
((lp54
I1
aI2
aI6
atp55
Rp56
ag1
((lp57
I2
aI4
aI5
atp58
Rp59
ag1
((lp60
I3
aI5
aI6
atp61
Rp62
atp63
Rp64
I360
sg1
((lp65
g1
((lp66
I2
aI5
aI6
atp67
Rp68
ag1
((lp69
I3
aI4
aI5
atp70
Rp71
ag1
((lp72
I1
aI2
aI5
atp73
Rp74
ag1
((lp75
I1
aI2
aI4
atp76
Rp77
ag1
((lp78
I1
aI4
aI5
atp79
Rp80
ag53
ag1
((lp81
I1
aI6
atp82
Rp83
ag23
ag1
((lp84
I2
aI4
aI5
atp85
Rp86
ag1
((lp87
I3
aI5
aI6
atp88
Rp89
atp90
Rp91
I720
sg1
((lp92
g1
((lp93
I3
aI4
aI6
atp94
Rp95
ag1
((lp96
I2
aI3
aI6
atp97
Rp98
ag1
((lp99
I2
aI5
aI6
atp100
Rp101
ag1
((lp102
I3
aI4
aI5
atp103
Rp104
ag1
((lp105
I2
aI3
aI5
atp106
Rp107
ag1
((lp108
I1
aI2
atp109
Rp110
ag14
ag1
((lp111
I2
aI3
aI4
atp112
Rp113
ag1
((lp114
I4
aI5
aI6
atp115
Rp116
ag23
atp117
Rp118
I180
sg1
((lp119
g1
((lp120
I3
aI4
aI6
atp121
Rp122
ag1
((lp123
I2
aI3
aI6
atp124
Rp125
ag1
((lp126
I3
aI4
aI5
atp127
Rp128
ag110
ag1
((lp129
I1
aI5
atp130
Rp131
ag1
((lp132
I2
aI3
aI4
atp133
Rp134
ag1
((lp135
I1
aI3
aI4
atp136
Rp137
ag1
((lp138
I2
aI5
atp139
Rp140
ag1
((lp141
I1
aI4
aI6
atp142
Rp143
ag1
((lp144
I3
aI5
aI6
atp145
Rp146
atp147
Rp148
I360
sg1
((lp149
g1
((lp150
I3
aI4
aI6
atp151
Rp152
ag1
((lp153
I1
aI3
aI5
atp154
Rp155
ag1
((lp156
I1
aI3
aI6
atp157
Rp158
ag110
ag1
((lp159
I2
aI6
atp160
Rp161
ag1
((lp162
I4
aI5
aI6
atp163
Rp164
ag1
((lp165
I1
aI4
aI5
atp166
Rp167
ag140
ag1
((lp168
I1
aI4
aI6
atp169
Rp170
ag1
((lp171
I3
aI5
aI6
atp172
Rp173
atp174
Rp175
I180
sg1
((lp176
g1
((lp177
I2
aI3
aI6
atp178
Rp179
ag1
((lp180
I1
aI3
aI6
atp181
Rp182
ag1
((lp183
I5
aI6
atp184
Rp185
ag14
ag1
((lp186
I1
aI2
aI5
atp187
Rp188
ag1
((lp189
I2
aI4
aI6
atp190
Rp191
ag1
((lp192
I2
aI3
aI5
atp193
Rp194
ag1
((lp195
I1
aI2
aI6
atp196
Rp197
ag1
((lp198
I1
aI2
aI3
atp199
Rp200
ag32
atp201
Rp202
I720
sg1
((lp203
g1
((lp204
I1
aI3
aI5
atp205
Rp206
ag161
ag1
((lp207
I2
aI3
aI4
atp208
Rp209
ag1
((lp210
I1
aI2
aI4
atp211
Rp212
ag1
((lp213
I1
aI4
aI5
atp214
Rp215
ag1
((lp216
I1
aI3
aI4
atp217
Rp218
ag53
ag140
ag1
((lp219
I1
aI5
aI6
atp220
Rp221
ag1
((lp222
I3
aI5
aI6
atp223
Rp224
atp225
Rp226
I360
sg1
((lp227
g1
((lp228
I2
aI5
aI6
atp229
Rp230
ag1
((lp231
I3
aI4
aI5
atp232
Rp233
ag1
((lp234
I3
aI6
atp235
Rp236
ag1
((lp237
I2
aI3
aI5
atp238
Rp239
ag1
((lp240
I1
aI2
aI4
atp241
Rp242
ag53
ag23
ag1
((lp243
I1
aI2
aI6
atp244
Rp245
ag1
((lp246
I1
aI5
aI6
atp247
Rp248
ag1
((lp249
I2
aI4
aI5
atp250
Rp251
atp252
Rp253
I720
sg1
((lp254
g1
((lp255
I2
aI3
aI6
atp256
Rp257
ag1
((lp258
I3
aI4
aI5
atp259
Rp260
ag1
((lp261
I1
aI3
aI6
atp262
Rp263
ag185
ag131
ag1
((lp264
I2
aI3
aI4
atp265
Rp266
ag1
((lp267
I2
aI4
aI6
atp268
Rp269
ag140
ag1
((lp270
I1
aI2
aI6
atp271
Rp272
ag1
((lp273
I1
aI4
aI6
atp274
Rp275
atp276
Rp277
I360
sg1
((lp278
g1
((lp279
I2
aI4
atp280
Rp281
ag1
((lp282
I1
aI3
aI5
atp283
Rp284
ag1
((lp285
I2
aI5
aI6
atp286
Rp287
ag1
((lp288
I2
aI3
aI5
atp289
Rp290
ag1
((lp291
I1
aI2
aI5
atp292
Rp293
ag1
((lp294
I1
aI4
aI5
atp295
Rp296
ag1
((lp297
I1
aI3
aI4
atp298
Rp299
ag53
ag83
ag1
((lp300
I3
aI5
aI6
atp301
Rp302
atp303
Rp304
I720
sg1
((lp305
g1
((lp306
I3
aI4
aI6
atp307
Rp308
ag1
((lp309
I2
aI3
aI6
atp310
Rp311
ag1
((lp312
I1
aI2
aI3
atp313
Rp314
ag131
ag1
((lp315
I1
aI2
aI4
atp316
Rp317
ag1
((lp318
I1
aI3
aI4
atp319
Rp320
ag140
ag1
((lp321
I1
aI4
aI6
atp322
Rp323
ag1
((lp324
I3
aI5
aI6
atp325
Rp326
ag32
atp327
Rp328
I720
sg1
((lp329
g281
ag1
((lp330
I2
aI3
aI6
atp331
Rp332
ag1
((lp333
I3
aI4
aI5
atp334
Rp335
ag1
((lp336
I1
aI2
aI3
atp337
Rp338
ag1
((lp339
I1
aI4
aI5
atp340
Rp341
ag1
((lp342
I1
aI3
aI4
atp343
Rp344
ag53
ag140
ag1
((lp345
I1
aI5
aI6
atp346
Rp347
ag1
((lp348
I3
aI5
aI6
atp349
Rp350
atp351
Rp352
I720
sg1
((lp353
g1
((lp354
I1
aI3
aI6
atp355
Rp356
ag131
ag1
((lp357
I3
aI5
atp358
Rp359
ag1
((lp360
I2
aI3
aI4
atp361
Rp362
ag1
((lp363
I1
aI2
aI4
atp364
Rp365
ag1
((lp366
I1
aI3
aI4
atp367
Rp368
ag140
ag1
((lp369
I1
aI2
aI6
atp370
Rp371
ag1
((lp372
I4
aI5
aI6
atp373
Rp374
ag1
((lp375
I1
aI2
aI3
atp376
Rp377
atp378
Rp379
I360
sg1
((lp380
g1
((lp381
I3
aI4
aI6
atp382
Rp383
ag1
((lp384
I2
aI3
aI6
atp385
Rp386
ag1
((lp387
I2
aI5
aI6
atp388
Rp389
ag1
((lp390
I3
aI4
aI5
atp391
Rp392
ag1
((lp393
I2
aI4
aI6
atp394
Rp395
ag110
ag1
((lp396
I4
aI5
aI6
atp397
Rp398
ag1
((lp399
I1
aI4
aI5
atp400
Rp401
ag83
ag23
atp402
Rp403
I720
sg1
((lp404
g1
((lp405
I2
aI3
aI6
atp406
Rp407
ag1
((lp408
I2
aI5
aI6
atp409
Rp410
ag359
ag1
((lp411
I1
aI2
aI5
atp412
Rp413
ag1
((lp414
I1
aI2
aI4
atp415
Rp416
ag1
((lp417
I2
aI4
aI6
atp418
Rp419
ag50
ag23
ag1
((lp420
I1
aI2
aI6
atp421
Rp422
ag1
((lp423
I4
aI5
aI6
atp424
Rp425
atp426
Rp427
I360
sg1
((lp428
g1
((lp429
I3
aI4
aI6
atp430
Rp431
ag1
((lp432
I2
aI3
aI6
atp433
Rp434
ag185
ag131
ag359
ag1
((lp435
I2
aI3
aI4
atp436
Rp437
ag1
((lp438
I2
aI4
aI6
atp439
Rp440
ag1
((lp441
I1
aI2
aI6
atp442
Rp443
ag1
((lp444
I1
aI4
aI6
atp445
Rp446
ag1
((lp447
I1
aI2
aI3
atp448
Rp449
atp450
Rp451
I720
sg1
((lp452
g281
ag1
((lp453
I3
aI4
aI6
atp454
Rp455
ag1
((lp456
I1
aI3
aI5
atp457
Rp458
ag1
((lp459
I1
aI2
aI3
atp460
Rp461
ag161
ag1
((lp462
I1
aI2
aI5
atp463
Rp464
ag1
((lp465
I4
aI5
aI6
atp466
Rp467
ag1
((lp468
I1
aI4
aI5
atp469
Rp470
ag83
ag1
((lp471
I3
aI5
aI6
atp472
Rp473
atp474
Rp475
I720
sg1
((lp476
g1
((lp477
I2
aI5
aI6
atp478
Rp479
ag359
ag1
((lp480
I2
aI3
aI4
atp481
Rp482
ag1
((lp483
I1
aI2
aI5
atp484
Rp485
ag1
((lp486
I1
aI2
aI4
atp487
Rp488
ag1
((lp489
I2
aI4
aI6
atp490
Rp491
ag23
ag1
((lp492
I1
aI5
aI6
atp493
Rp494
ag1
((lp495
I1
aI4
aI6
atp496
Rp497
ag32
atp498
Rp499
I720
sg1
((lp500
g1
((lp501
I1
aI3
aI5
atp502
Rp503
ag1
((lp504
I1
aI3
aI6
atp505
Rp506
ag1
((lp507
I1
aI2
aI3
atp508
Rp509
ag161
ag1
((lp510
I2
aI3
aI4
atp511
Rp512
ag1
((lp513
I1
aI2
aI4
atp514
Rp515
ag1
((lp516
I1
aI3
aI4
atp517
Rp518
ag53
ag1
((lp519
I3
aI5
aI6
atp520
Rp521
ag32
atp522
Rp523
I720
sg1
((lp524
g152
ag158
ag110
ag161
ag164
ag167
ag1
((lp525
I1
aI3
aI4
atp526
Rp527
ag140
ag1
((lp528
I1
aI5
aI6
atp529
Rp530
ag170
atp531
Rp532
I360
sg1
((lp533
g1
((lp534
I1
aI4
aI6
atp535
Rp536
ag236
ag1
((lp537
I2
aI3
aI5
atp538
Rp539
ag110
ag131
ag1
((lp540
I2
aI3
aI4
atp541
Rp542
ag1
((lp543
I4
aI5
aI6
atp544
Rp545
ag1
((lp546
I2
aI4
aI6
atp547
Rp548
ag1
((lp549
I1
aI3
aI4
atp550
Rp551
ag1
((lp552
I2
aI4
aI5
atp553
Rp554
atp555
Rp556
I720
sg1
((lp557
g1
((lp558
I1
aI4
aI6
atp559
Rp560
ag1
((lp561
I2
aI5
aI6
atp562
Rp563
ag1
((lp564
I1
aI2
aI4
atp565
Rp566
ag50
ag1
((lp567
I2
aI3
atp568
Rp569
ag23
ag1
((lp570
I1
aI2
aI6
atp571
Rp572
ag1
((lp573
I1
aI5
aI6
atp574
Rp575
ag1
((lp576
I2
aI4
aI5
atp577
Rp578
ag1
((lp579
I3
aI5
aI6
atp580
Rp581
atp582
Rp583
I720
sg1
((lp584
g1
((lp585
I1
aI3
aI5
atp586
Rp587
ag1
((lp588
I3
aI4
aI5
atp589
Rp590
ag161
ag1
((lp591
I1
aI2
aI5
atp592
Rp593
ag1
((lp594
I1
aI2
aI4
atp595
Rp596
ag1
((lp597
I1
aI4
aI5
atp598
Rp599
ag1
((lp600
I1
aI3
aI4
atp601
Rp602
ag569
ag53
ag1
((lp603
I2
aI4
aI5
atp604
Rp605
atp606
Rp607
I360
sg1
((lp608
g281
ag1
((lp609
I1
aI3
aI5
atp610
Rp611
ag1
((lp612
I1
aI3
aI6
atp613
Rp614
ag185
ag1
((lp615
I1
aI2
aI5
atp616
Rp617
ag1
((lp618
I1
aI4
aI5
atp619
Rp620
ag1
((lp621
I1
aI3
aI4
atp622
Rp623
ag53
ag1
((lp624
I1
aI2
aI6
atp625
Rp626
ag1
((lp627
I1
aI2
aI3
atp628
Rp629
atp630
Rp631
I360
sg1
((lp632
g1
((lp633
I1
aI3
aI5
atp634
Rp635
ag1
((lp636
I1
aI3
aI6
atp637
Rp638
ag161
ag1
((lp639
I2
aI3
aI4
atp640
Rp641
ag1
((lp642
I1
aI2
aI4
atp643
Rp644
ag140
ag1
((lp645
I1
aI5
aI6
atp646
Rp647
ag1
((lp648
I1
aI4
aI6
atp649
Rp650
ag1
((lp651
I3
aI5
aI6
atp652
Rp653
ag32
atp654
Rp655
I720
sg1
((lp656
g1
((lp657
I1
aI3
aI5
atp658
Rp659
ag1
((lp660
I3
aI4
aI5
atp661
Rp662
ag236
ag1
((lp663
I2
aI3
aI5
atp664
Rp665
ag185
ag1
((lp666
I1
aI2
aI5
atp667
Rp668
ag1
((lp669
I2
aI4
aI6
atp670
Rp671
ag1
((lp672
I1
aI3
aI4
atp673
Rp674
ag83
ag1
((lp675
I2
aI4
aI5
atp676
Rp677
atp678
Rp679
I720
sg1
((lp680
g1
((lp681
I3
aI4
aI6
atp682
Rp683
ag1
((lp684
I2
aI5
aI6
atp685
Rp686
ag1
((lp687
I2
aI3
aI5
atp688
Rp689
ag14
ag1
((lp690
I1
aI2
aI5
atp691
Rp692
ag1
((lp693
I4
aI5
aI6
atp694
Rp695
ag83
ag23
ag1
((lp696
I2
aI4
aI5
atp697
Rp698
ag1
((lp699
I3
aI5
aI6
atp700
Rp701
atp702
Rp703
I360
sg1
((lp704
g1
((lp705
I3
aI4
aI6
atp706
Rp707
ag1
((lp708
I3
aI4
aI5
atp709
Rp710
ag1
((lp711
I1
aI3
aI6
atp712
Rp713
ag185
ag131
ag1
((lp714
I1
aI2
aI4
atp715
Rp716
ag1
((lp717
I1
aI3
aI4
atp718
Rp719
ag569
ag1
((lp720
I1
aI2
aI6
atp721
Rp722
ag1
((lp723
I2
aI4
aI5
atp724
Rp725
atp726
Rp727
I720
sg1
((lp728
g1
((lp729
I1
aI4
aI5
atp730
Rp731
ag1
((lp732
I1
aI4
aI6
atp733
Rp734
ag236
ag1
((lp735
I1
aI2
aI4
atp736
Rp737
ag1
((lp738
I2
aI4
aI6
atp739
Rp740
ag50
ag569
ag1
((lp741
I1
aI2
aI6
atp742
Rp743
ag1
((lp744
I1
aI5
aI6
atp745
Rp746
ag1
((lp747
I2
aI4
aI5
atp748
Rp749
atp750
Rp751
I720
sg1
((lp752
g1
((lp753
I2
aI3
aI6
atp754
Rp755
ag41
ag50
ag44
ag14
ag1
((lp756
I2
aI3
aI5
atp757
Rp758
ag53
ag56
ag59
ag62
atp759
Rp760
I720
sg1
((lp761
g1
((lp762
I1
aI3
aI5
atp763
Rp764
ag236
ag1
((lp765
I2
aI3
aI5
atp766
Rp767
ag185
ag1
((lp768
I1
aI2
aI4
atp769
Rp770
ag1
((lp771
I1
aI4
aI5
atp772
Rp773
ag53
ag1
((lp774
I1
aI2
aI6
atp775
Rp776
ag1
((lp777
I2
aI4
aI5
atp778
Rp779
ag1
((lp780
I1
aI2
aI3
atp781
Rp782
atp783
Rp784
I180
sg1
((lp785
g1
((lp786
I2
aI4
aI5
atp787
Rp788
ag1
((lp789
I3
aI4
aI5
atp790
Rp791
ag236
ag185
ag131
ag1
((lp792
I2
aI3
aI4
atp793
Rp794
ag1
((lp795
I1
aI2
aI4
atp796
Rp797
ag1
((lp798
I2
aI4
aI6
atp799
Rp800
ag1
((lp801
I1
aI4
aI6
atp802
Rp803
ag1
((lp804
I1
aI2
aI3
atp805
Rp806
atp807
Rp808
I360
sg1
((lp809
g281
ag1
((lp810
I3
aI4
aI6
atp811
Rp812
ag1
((lp813
I1
aI3
aI5
atp814
Rp815
ag1
((lp816
I3
aI4
aI5
atp817
Rp818
ag161
ag1
((lp819
I1
aI2
aI5
atp820
Rp821
ag1
((lp822
I1
aI4
aI5
atp823
Rp824
ag569
ag1
((lp825
I1
aI5
aI6
atp826
Rp827
ag1
((lp828
I1
aI4
aI6
atp829
Rp830
atp831
Rp832
I360
sg1
((lp833
g662
ag236
ag185
ag1
((lp834
I2
aI3
aI4
atp835
Rp836
ag668
ag671
ag674
ag83
ag677
ag1
((lp837
I1
aI2
aI3
atp838
Rp839
atp840
Rp841
I720
sg1
((lp842
g1
((lp843
I3
aI4
aI6
atp844
Rp845
ag1
((lp846
I3
aI4
aI5
atp847
Rp848
ag1
((lp849
I2
aI3
aI5
atp850
Rp851
ag185
ag131
ag1
((lp852
I2
aI3
aI4
atp853
Rp854
ag1
((lp855
I1
aI2
aI4
atp856
Rp857
ag83
ag1
((lp858
I2
aI4
aI5
atp859
Rp860
ag1
((lp861
I1
aI2
aI3
atp862
Rp863
atp864
Rp865
I360
sg1
((lp866
g1
((lp867
I3
aI4
aI6
atp868
Rp869
ag1
((lp870
I2
aI3
aI6
atp871
Rp872
ag1
((lp873
I2
aI5
aI6
atp874
Rp875
ag110
ag14
ag359
ag1
((lp876
I2
aI3
aI4
atp877
Rp878
ag1
((lp879
I4
aI5
aI6
atp880
Rp881
ag1
((lp882
I2
aI4
aI6
atp883
Rp884
ag1
((lp885
I1
aI5
aI6
atp886
Rp887
atp888
Rp889
I360
sg1
((lp890
g1
((lp891
I3
aI4
aI6
atp892
Rp893
ag1
((lp894
I1
aI3
aI5
atp895
Rp896
ag1
((lp897
I3
aI4
aI5
atp898
Rp899
ag14
ag1
((lp900
I2
aI3
aI4
atp901
Rp902
ag1
((lp903
I4
aI5
aI6
atp904
Rp905
ag1
((lp906
I2
aI3
aI6
atp907
Rp908
ag83
ag1
((lp909
I3
aI5
aI6
atp910
Rp911
ag140
atp912
Rp913
I360
sg1
((lp914
g1
((lp915
I1
aI4
aI6
atp916
Rp917
ag1
((lp918
I1
aI3
aI6
atp919
Rp920
ag359
ag1
((lp921
I1
aI2
aI5
atp922
Rp923
ag1
((lp924
I1
aI2
aI4
atp925
Rp926
ag50
ag569
ag1
((lp927
I1
aI5
aI6
atp928
Rp929
ag1
((lp930
I2
aI4
aI5
atp931
Rp932
ag1
((lp933
I4
aI5
aI6
atp934
Rp935
atp936
Rp937
I360
sg1
((lp938
g1
((lp939
I1
aI4
aI5
atp940
Rp941
ag1
((lp942
I1
aI3
aI5
atp943
Rp944
ag1
((lp945
I2
aI5
aI6
atp946
Rp947
ag1
((lp948
I2
aI3
aI5
atp949
Rp950
ag110
ag1
((lp951
I2
aI4
aI6
atp952
Rp953
ag50
ag1
((lp954
I2
aI3
aI6
atp955
Rp956
ag83
ag1
((lp957
I2
aI4
aI5
atp958
Rp959
atp960
Rp961
I360
sg1
((lp962
g236
ag1
((lp963
I2
aI3
aI5
atp964
Rp965
ag185
ag161
ag1
((lp966
I2
aI3
aI4
atp967
Rp968
ag1
((lp969
I1
aI2
aI5
atp970
Rp971
ag1
((lp972
I1
aI2
aI4
atp973
Rp974
ag1
((lp975
I1
aI3
aI4
atp976
Rp977
ag1
((lp978
I2
aI4
aI5
atp979
Rp980
ag1
((lp981
I1
aI2
aI3
atp982
Rp983
atp984
Rp985
I360
sg1
((lp986
g281
ag1
((lp987
I3
aI4
aI6
atp988
Rp989
ag1
((lp990
I2
aI5
aI6
atp991
Rp992
ag1
((lp993
I1
aI2
aI5
atp994
Rp995
ag1
((lp996
I1
aI3
aI4
atp997
Rp998
ag569
ag1
((lp999
I1
aI2
aI6
atp1000
Rp1001
ag1
((lp1002
I1
aI4
aI6
atp1003
Rp1004
ag1
((lp1005
I3
aI5
aI6
atp1006
Rp1007
ag32
atp1008
Rp1009
I360
sg1
((lp1010
g1
((lp1011
I3
aI4
aI6
atp1012
Rp1013
ag1
((lp1014
I2
aI3
aI6
atp1015
Rp1016
ag1
((lp1017
I2
aI5
aI6
atp1018
Rp1019
ag131
ag359
ag1
((lp1020
I2
aI3
aI4
atp1021
Rp1022
ag1
((lp1023
I1
aI4
aI6
atp1024
Rp1025
ag23
ag1
((lp1026
I1
aI2
aI6
atp1027
Rp1028
ag1
((lp1029
I2
aI4
aI5
atp1030
Rp1031
atp1032
Rp1033
I360
sg1
((lp1034
g281
ag1
((lp1035
I2
aI3
aI6
atp1036
Rp1037
ag1
((lp1038
I2
aI5
aI6
atp1039
Rp1040
ag359
ag1
((lp1041
I1
aI2
aI5
atp1042
Rp1043
ag1
((lp1044
I4
aI5
aI6
atp1045
Rp1046
ag1
((lp1047
I1
aI4
aI5
atp1048
Rp1049
ag23
ag1
((lp1050
I1
aI5
aI6
atp1051
Rp1052
ag1
((lp1053
I1
aI4
aI6
atp1054
Rp1055
atp1056
Rp1057
I720
sg1
((lp1058
g1
((lp1059
I1
aI3
aI6
atp1060
Rp1061
ag185
ag131
ag1
((lp1062
I1
aI2
aI4
atp1063
Rp1064
ag1
((lp1065
I2
aI4
aI6
atp1066
Rp1067
ag1
((lp1068
I1
aI3
aI4
atp1069
Rp1070
ag1
((lp1071
I1
aI2
aI6
atp1072
Rp1073
ag1
((lp1074
I1
aI4
aI6
atp1075
Rp1076
ag1
((lp1077
I1
aI2
aI3
atp1078
Rp1079
ag32
atp1080
Rp1081
I360
sg1
((lp1082
g1
((lp1083
I3
aI4
aI5
atp1084
Rp1085
ag236
ag161
ag1
((lp1086
I2
aI3
aI4
atp1087
Rp1088
ag1
((lp1089
I1
aI2
aI4
atp1090
Rp1091
ag1
((lp1092
I1
aI3
aI4
atp1093
Rp1094
ag140
ag1
((lp1095
I1
aI5
aI6
atp1096
Rp1097
ag1
((lp1098
I1
aI4
aI6
atp1099
Rp1100
ag1
((lp1101
I4
aI5
aI6
atp1102
Rp1103
atp1104
Rp1105
I720
sg1
((lp1106
g236
ag359
ag1
((lp1107
I2
aI3
aI4
atp1108
Rp1109
ag1
((lp1110
I1
aI2
aI5
atp1111
Rp1112
ag1
((lp1113
I1
aI2
aI4
atp1114
Rp1115
ag1
((lp1116
I2
aI4
aI6
atp1117
Rp1118
ag1
((lp1119
I1
aI2
aI6
atp1120
Rp1121
ag1
((lp1122
I1
aI4
aI6
atp1123
Rp1124
ag1
((lp1125
I1
aI2
aI3
atp1126
Rp1127
ag32
atp1128
Rp1129
I720
sg1
((lp1130
g1
((lp1131
I1
aI4
aI6
atp1132
Rp1133
ag1
((lp1134
I2
aI5
aI6
atp1135
Rp1136
ag236
ag1
((lp1137
I1
aI2
aI5
atp1138
Rp1139
ag1
((lp1140
I4
aI5
aI6
atp1141
Rp1142
ag1
((lp1143
I1
aI4
aI5
atp1144
Rp1145
ag50
ag23
ag1
((lp1146
I1
aI2
aI6
atp1147
Rp1148
ag1
((lp1149
I2
aI4
aI5
atp1150
Rp1151
atp1152
Rp1153
I360
sg1
((lp1154
g1
((lp1155
I1
aI3
aI5
atp1156
Rp1157
ag1
((lp1158
I1
aI3
aI6
atp1159
Rp1160
ag1
((lp1161
I1
aI2
aI3
atp1162
Rp1163
ag14
ag1
((lp1164
I2
aI3
aI4
atp1165
Rp1166
ag53
ag1
((lp1167
I1
aI2
aI6
atp1168
Rp1169
ag1
((lp1170
I1
aI5
aI6
atp1171
Rp1172
ag1
((lp1173
I3
aI5
aI6
atp1174
Rp1175
ag32
atp1176
Rp1177
I720
sg1
((lp1178
g281
ag1
((lp1179
I3
aI4
aI6
atp1180
Rp1181
ag1
((lp1182
I2
aI5
aI6
atp1183
Rp1184
ag1
((lp1185
I3
aI4
aI5
atp1186
Rp1187
ag1
((lp1188
I2
aI3
aI5
atp1189
Rp1190
ag110
ag131
ag1
((lp1191
I4
aI5
aI6
atp1192
Rp1193
ag1
((lp1194
I1
aI3
aI4
atp1195
Rp1196
ag1
((lp1197
I1
aI4
aI6
atp1198
Rp1199
atp1200
Rp1201
I360
sg1
((lp1202
g1
((lp1203
I3
aI4
aI6
atp1204
Rp1205
ag1
((lp1206
I1
aI4
aI6
atp1207
Rp1208
ag1
((lp1209
I3
aI4
aI5
atp1210
Rp1211
ag161
ag1
((lp1212
I1
aI2
aI4
atp1213
Rp1214
ag569
ag23
ag1
((lp1215
I1
aI5
aI6
atp1216
Rp1217
ag1
((lp1218
I2
aI4
aI5
atp1219
Rp1220
ag1
((lp1221
I4
aI5
aI6
atp1222
Rp1223
atp1224
Rp1225
I720
sg1
((lp1226
g1
((lp1227
I3
aI4
aI6
atp1228
Rp1229
ag1
((lp1230
I2
aI3
aI6
atp1231
Rp1232
ag1
((lp1233
I2
aI5
aI6
atp1234
Rp1235
ag1
((lp1236
I3
aI4
aI5
atp1237
Rp1238
ag1
((lp1239
I2
aI3
aI5
atp1240
Rp1241
ag110
ag131
ag14
ag1
((lp1242
I4
aI5
aI6
atp1243
Rp1244
ag1
((lp1245
I3
aI5
aI6
atp1246
Rp1247
atp1248
Rp1249
I180
sg1
((lp1250
g281
ag1
((lp1251
I1
aI3
aI5
atp1252
Rp1253
ag1
((lp1254
I3
aI4
aI5
atp1255
Rp1256
ag1
((lp1257
I1
aI3
aI6
atp1258
Rp1259
ag185
ag14
ag1
((lp1260
I1
aI2
aI5
atp1261
Rp1262
ag1
((lp1263
I2
aI3
aI5
atp1264
Rp1265
ag1
((lp1266
I1
aI2
aI6
atp1267
Rp1268
ag1
((lp1269
I1
aI2
aI3
atp1270
Rp1271
atp1272
Rp1273
I720
sg1
((lp1274
g1
((lp1275
I2
aI3
aI6
atp1276
Rp1277
ag1
((lp1278
I2
aI5
aI6
atp1279
Rp1280
ag1
((lp1281
I2
aI3
aI5
atp1282
Rp1283
ag110
ag1
((lp1284
I2
aI4
aI6
atp1285
Rp1286
ag50
ag1
((lp1287
I1
aI4
aI6
atp1288
Rp1289
ag23
ag1
((lp1290
I1
aI5
aI6
atp1291
Rp1292
ag1
((lp1293
I2
aI4
aI5
atp1294
Rp1295
atp1296
Rp1297
I720
sg1
((lp1298
g281
ag1
((lp1299
I3
aI4
aI6
atp1300
Rp1301
ag1
((lp1302
I2
aI3
aI5
atp1303
Rp1304
ag161
ag1
((lp1305
I1
aI3
aI6
atp1306
Rp1307
ag1
((lp1308
I1
aI3
aI4
atp1309
Rp1310
ag1
((lp1311
I1
aI5
aI6
atp1312
Rp1313
ag1
((lp1314
I1
aI4
aI6
atp1315
Rp1316
ag1
((lp1317
I1
aI2
aI3
atp1318
Rp1319
ag32
atp1320
Rp1321
I720
sg1
((lp1322
g1
((lp1323
I3
aI4
aI5
atp1324
Rp1325
ag1
((lp1326
I1
aI3
aI6
atp1327
Rp1328
ag1
((lp1329
I1
aI2
aI3
atp1330
Rp1331
ag161
ag14
ag1
((lp1332
I1
aI2
aI5
atp1333
Rp1334
ag1
((lp1335
I2
aI3
aI5
atp1336
Rp1337
ag53
ag1
((lp1338
I2
aI4
aI5
atp1339
Rp1340
ag1
((lp1341
I3
aI5
aI6
atp1342
Rp1343
atp1344
Rp1345
I720
sg1
((lp1346
g1
((lp1347
I2
aI3
aI6
atp1348
Rp1349
ag1
((lp1350
I2
aI5
aI6
atp1351
Rp1352
ag1160
ag1163
ag14
ag1
((lp1353
I1
aI2
aI5
atp1354
Rp1355
ag1157
ag53
ag1175
ag32
atp1356
Rp1357
I360
sg1
((lp1358
g281
ag1
((lp1359
I3
aI4
aI6
atp1360
Rp1361
ag1
((lp1362
I2
aI3
aI6
atp1363
Rp1364
ag1
((lp1365
I2
aI5
aI6
atp1366
Rp1367
ag1
((lp1368
I2
aI3
aI5
atp1369
Rp1370
ag1
((lp1371
I1
aI2
aI3
atp1372
Rp1373
ag131
ag1
((lp1374
I1
aI3
aI4
atp1375
Rp1376
ag83
ag1
((lp1377
I3
aI5
aI6
atp1378
Rp1379
atp1380
Rp1381
I720
sg1
((lp1382
g1
((lp1383
I3
aI4
aI5
atp1384
Rp1385
ag161
ag1
((lp1386
I2
aI3
aI4
atp1387
Rp1388
ag1
((lp1389
I1
aI2
aI4
atp1390
Rp1391
ag1
((lp1392
I1
aI4
aI5
atp1393
Rp1394
ag1
((lp1395
I1
aI3
aI4
atp1396
Rp1397
ag53
ag83
ag1
((lp1398
I2
aI4
aI5
atp1399
Rp1400
ag1
((lp1401
I3
aI5
aI6
atp1402
Rp1403
atp1404
Rp1405
I180
sg1
((lp1406
g1
((lp1407
I1
aI3
aI6
atp1408
Rp1409
ag1
((lp1410
I1
aI2
aI3
atp1411
Rp1412
ag1
((lp1413
I2
aI3
aI4
atp1414
Rp1415
ag1
((lp1416
I1
aI3
aI4
atp1417
Rp1418
ag53
ag140
ag1
((lp1419
I1
aI2
aI6
atp1420
Rp1421
ag1
((lp1422
I1
aI5
aI6
atp1423
Rp1424
ag1
((lp1425
I3
aI5
aI6
atp1426
Rp1427
ag32
atp1428
Rp1429
I720
sg1
((lp1430
g1
((lp1431
I3
aI4
aI6
atp1432
Rp1433
ag1
((lp1434
I3
aI4
aI5
atp1435
Rp1436
ag110
ag161
ag1
((lp1437
I2
aI3
aI4
atp1438
Rp1439
ag1
((lp1440
I4
aI5
aI6
atp1441
Rp1442
ag23
ag1
((lp1443
I1
aI5
aI6
atp1444
Rp1445
ag1
((lp1446
I1
aI4
aI6
atp1447
Rp1448
ag1
((lp1449
I3
aI5
aI6
atp1450
Rp1451
atp1452
Rp1453
I720
sg1
((lp1454
g1
((lp1455
I1
aI3
aI5
atp1456
Rp1457
ag1
((lp1458
I2
aI5
aI6
atp1459
Rp1460
ag236
ag1
((lp1461
I2
aI3
aI5
atp1462
Rp1463
ag1
((lp1464
I1
aI2
aI4
atp1465
Rp1466
ag50
ag53
ag1
((lp1467
I1
aI2
aI6
atp1468
Rp1469
ag1
((lp1470
I1
aI5
aI6
atp1471
Rp1472
ag1
((lp1473
I1
aI2
aI3
atp1474
Rp1475
atp1476
Rp1477
I180
sg1
((lp1478
g1
((lp1479
I3
aI4
aI6
atp1480
Rp1481
ag179
ag194
ag185
ag14
ag1
((lp1482
I2
aI3
aI4
atp1483
Rp1484
ag191
ag197
ag200
ag32
atp1485
Rp1486
I720
sg1
((lp1487
g281
ag812
ag818
ag1
((lp1488
I1
aI3
aI6
atp1489
Rp1490
ag161
ag1
((lp1491
I4
aI5
aI6
atp1492
Rp1493
ag1
((lp1494
I1
aI3
aI4
atp1495
Rp1496
ag569
ag830
ag1
((lp1497
I3
aI5
aI6
atp1498
Rp1499
atp1500
Rp1501
I60
sg1
((lp1502
g1
((lp1503
I2
aI5
aI6
atp1504
Rp1505
ag1
((lp1506
I3
aI4
aI5
atp1507
Rp1508
ag236
ag1
((lp1509
I2
aI3
aI5
atp1510
Rp1511
ag14
ag1
((lp1512
I2
aI3
aI4
atp1513
Rp1514
ag1
((lp1515
I1
aI2
aI5
atp1516
Rp1517
ag1
((lp1518
I4
aI5
aI6
atp1519
Rp1520
ag1
((lp1521
I2
aI4
aI6
atp1522
Rp1523
ag23
atp1524
Rp1525
I360
sg1
((lp1526
g1
((lp1527
I3
aI4
aI6
atp1528
Rp1529
ag1
((lp1530
I1
aI3
aI5
atp1531
Rp1532
ag1
((lp1533
I2
aI3
aI5
atp1534
Rp1535
ag110
ag161
ag1
((lp1536
I2
aI3
aI4
atp1537
Rp1538
ag1
((lp1539
I1
aI4
aI5
atp1540
Rp1541
ag1
((lp1542
I1
aI3
aI4
atp1543
Rp1544
ag83
ag1
((lp1545
I3
aI5
aI6
atp1546
Rp1547
atp1548
Rp1549
I180
sg1
((lp1550
g845
ag1
((lp1551
I2
aI3
aI6
atp1552
Rp1553
ag848
ag185
ag131
ag854
ag857
ag1
((lp1554
I2
aI4
aI6
atp1555
Rp1556
ag83
ag860
atp1557
Rp1558
I720
sg1
((lp1559
g1
((lp1560
I3
aI4
aI6
atp1561
Rp1562
ag1
((lp1563
I1
aI3
aI5
atp1564
Rp1565
ag1
((lp1566
I1
aI3
aI6
atp1567
Rp1568
ag1
((lp1569
I1
aI2
aI3
atp1570
Rp1571
ag14
ag1
((lp1572
I2
aI4
aI6
atp1573
Rp1574
ag1
((lp1575
I2
aI3
aI6
atp1576
Rp1577
ag140
ag1
((lp1578
I3
aI5
aI6
atp1579
Rp1580
ag32
atp1581
Rp1582
I720
sg1
((lp1583
g281
ag1
((lp1584
I3
aI4
aI6
atp1585
Rp1586
ag1
((lp1587
I1
aI3
aI5
atp1588
Rp1589
ag110
ag1
((lp1590
I4
aI5
aI6
atp1591
Rp1592
ag1
((lp1593
I1
aI4
aI5
atp1594
Rp1595
ag1
((lp1596
I1
aI3
aI4
atp1597
Rp1598
ag569
ag1
((lp1599
I1
aI5
aI6
atp1600
Rp1601
ag1
((lp1602
I1
aI4
aI6
atp1603
Rp1604
atp1605
Rp1606
I360
sg1
((lp1607
g917
ag1
((lp1608
I2
aI5
aI6
atp1609
Rp1610
ag920
ag359
ag923
ag50
ag569
ag1
((lp1611
I1
aI2
aI6
atp1612
Rp1613
ag929
ag932
atp1614
Rp1615
I180
sg1
((lp1616
g281
ag455
ag461
ag161
ag464
ag467
ag470
ag1
((lp1617
I1
aI3
aI4
atp1618
Rp1619
ag83
ag473
atp1620
Rp1621
I360
sg1
((lp1622
g281
ag1586
ag1
((lp1623
I1
aI3
aI6
atp1624
Rp1625
ag110
ag1592
ag1595
ag569
ag1601
ag1604
ag1
((lp1626
I3
aI5
aI6
atp1627
Rp1628
atp1629
Rp1630
I360
sg1
((lp1631
g1
((lp1632
I2
aI5
aI6
atp1633
Rp1634
ag1
((lp1635
I3
aI4
aI5
atp1636
Rp1637
ag236
ag1
((lp1638
I2
aI3
aI5
atp1639
Rp1640
ag131
ag1
((lp1641
I2
aI3
aI4
atp1642
Rp1643
ag1
((lp1644
I1
aI2
aI4
atp1645
Rp1646
ag1
((lp1647
I1
aI3
aI4
atp1648
Rp1649
ag53
ag1
((lp1650
I1
aI2
aI6
atp1651
Rp1652
atp1653
Rp1654
I360
sg1
((lp1655
g1
((lp1656
I2
aI3
aI6
atp1657
Rp1658
ag1
((lp1659
I2
aI5
aI6
atp1660
Rp1661
ag1
((lp1662
I1
aI3
aI6
atp1663
Rp1664
ag110
ag359
ag1
((lp1665
I2
aI3
aI4
atp1666
Rp1667
ag1
((lp1668
I1
aI4
aI5
atp1669
Rp1670
ag1
((lp1671
I1
aI3
aI4
atp1672
Rp1673
ag53
ag1
((lp1674
I1
aI5
aI6
atp1675
Rp1676
atp1677
Rp1678
I120
sg1
((lp1679
g281
ag1
((lp1680
I3
aI4
aI6
atp1681
Rp1682
ag1
((lp1683
I1
aI3
aI5
atp1684
Rp1685
ag1
((lp1686
I1
aI2
aI3
atp1687
Rp1688
ag1
((lp1689
I4
aI5
aI6
atp1690
Rp1691
ag1
((lp1692
I1
aI3
aI4
atp1693
Rp1694
ag1
((lp1695
I2
aI3
aI6
atp1696
Rp1697
ag83
ag1
((lp1698
I3
aI5
aI6
atp1699
Rp1700
ag140
atp1701
Rp1702
I360
sg1
((lp1703
g1
((lp1704
I3
aI4
aI6
atp1705
Rp1706
ag1
((lp1707
I3
aI4
aI5
atp1708
Rp1709
ag185
ag161
ag1
((lp1710
I2
aI3
aI4
atp1711
Rp1712
ag1
((lp1713
I1
aI2
aI5
atp1714
Rp1715
ag1
((lp1716
I1
aI2
aI4
atp1717
Rp1718
ag1
((lp1719
I1
aI4
aI5
atp1720
Rp1721
ag83
ag1
((lp1722
I2
aI4
aI5
atp1723
Rp1724
atp1725
Rp1726
I360
sg1
((lp1727
g1
((lp1728
I2
aI3
aI6
atp1729
Rp1730
ag1
((lp1731
I2
aI5
aI6
atp1732
Rp1733
ag1
((lp1734
I3
aI4
aI5
atp1735
Rp1736
ag1
((lp1737
I1
aI3
aI6
atp1738
Rp1739
ag131
ag14
ag1
((lp1740
I2
aI3
aI4
atp1741
Rp1742
ag1
((lp1743
I2
aI3
aI5
atp1744
Rp1745
ag53
ag1
((lp1746
I2
aI4
aI5
atp1747
Rp1748
atp1749
Rp1750
I720
sg1
((lp1751
g1
((lp1752
I3
aI4
aI6
atp1753
Rp1754
ag1
((lp1755
I1
aI3
aI5
atp1756
Rp1757
ag1
((lp1758
I1
aI3
aI6
atp1759
Rp1760
ag110
ag1
((lp1761
I4
aI5
aI6
atp1762
Rp1763
ag1
((lp1764
I1
aI4
aI5
atp1765
Rp1766
ag1
((lp1767
I1
aI3
aI4
atp1768
Rp1769
ag569
ag140
ag1
((lp1770
I3
aI5
aI6
atp1771
Rp1772
atp1773
Rp1774
I720
sg1
((lp1775
g1
((lp1776
I2
aI5
aI6
atp1777
Rp1778
ag1
((lp1779
I3
aI4
aI5
atp1780
Rp1781
ag1
((lp1782
I2
aI3
aI5
atp1783
Rp1784
ag131
ag1
((lp1785
I2
aI3
aI4
atp1786
Rp1787
ag1
((lp1788
I2
aI4
aI6
atp1789
Rp1790
ag83
ag23
ag1
((lp1791
I2
aI4
aI5
atp1792
Rp1793
ag1
((lp1794
I3
aI5
aI6
atp1795
Rp1796
atp1797
Rp1798
I720
sg1
((lp1799
g1
((lp1800
I3
aI4
aI6
atp1801
Rp1802
ag1
((lp1803
I2
aI3
aI6
atp1804
Rp1805
ag1
((lp1806
I2
aI5
aI6
atp1807
Rp1808
ag1
((lp1809
I1
aI3
aI6
atp1810
Rp1811
ag110
ag131
ag359
ag1
((lp1812
I4
aI5
aI6
atp1813
Rp1814
ag1
((lp1815
I2
aI4
aI6
atp1816
Rp1817
ag1
((lp1818
I2
aI4
aI5
atp1819
Rp1820
atp1821
Rp1822
I720
sg1
((lp1823
g308
ag311
ag131
ag1
((lp1824
I2
aI3
aI4
atp1825
Rp1826
ag1
((lp1827
I2
aI4
aI6
atp1828
Rp1829
ag320
ag140
ag323
ag326
ag32
atp1830
Rp1831
I360
sg1
((lp1832
g1754
ag1757
ag1
((lp1833
I3
aI4
aI5
atp1834
Rp1835
ag110
ag1763
ag1766
ag1769
ag569
ag140
ag1
((lp1836
I1
aI4
aI6
atp1837
Rp1838
atp1839
Rp1840
I120
sg1
((lp1841
g407
ag410
ag359
ag413
ag416
ag50
ag23
ag1
((lp1842
I1
aI5
aI6
atp1843
Rp1844
ag1
((lp1845
I2
aI4
aI5
atp1846
Rp1847
ag425
atp1848
Rp1849
I360
sg1
((lp1850
g1
((lp1851
I3
aI4
aI6
atp1852
Rp1853
ag1
((lp1854
I1
aI3
aI6
atp1855
Rp1856
ag359
ag1
((lp1857
I4
aI5
aI6
atp1858
Rp1859
ag1
((lp1860
I2
aI4
aI6
atp1861
Rp1862
ag569
ag140
ag1
((lp1863
I1
aI2
aI6
atp1864
Rp1865
ag1
((lp1866
I1
aI5
aI6
atp1867
Rp1868
ag1
((lp1869
I1
aI4
aI6
atp1870
Rp1871
atp1872
Rp1873
I60
sg1
((lp1874
g1
((lp1875
I1
aI4
aI6
atp1876
Rp1877
ag236
ag1
((lp1878
I2
aI3
aI5
atp1879
Rp1880
ag185
ag1
((lp1881
I2
aI3
aI4
atp1882
Rp1883
ag1
((lp1884
I1
aI2
aI5
atp1885
Rp1886
ag1
((lp1887
I1
aI2
aI4
atp1888
Rp1889
ag1
((lp1890
I1
aI4
aI5
atp1891
Rp1892
ag23
ag1
((lp1893
I2
aI4
aI5
atp1894
Rp1895
atp1896
Rp1897
I720
sg1
((lp1898
g1
((lp1899
I1
aI3
aI5
atp1900
Rp1901
ag1
((lp1902
I1
aI3
aI6
atp1903
Rp1904
ag161
ag1
((lp1905
I1
aI2
aI4
atp1906
Rp1907
ag1
((lp1908
I1
aI4
aI5
atp1909
Rp1910
ag1
((lp1911
I1
aI3
aI4
atp1912
Rp1913
ag569
ag140
ag1
((lp1914
I1
aI5
aI6
atp1915
Rp1916
ag1
((lp1917
I1
aI4
aI6
atp1918
Rp1919
atp1920
Rp1921
I120
sg1
((lp1922
g1
((lp1923
I3
aI4
aI6
atp1924
Rp1925
ag1
((lp1926
I3
aI4
aI5
atp1927
Rp1928
ag131
ag1
((lp1929
I1
aI2
aI4
atp1930
Rp1931
ag1
((lp1932
I2
aI4
aI6
atp1933
Rp1934
ag569
ag140
ag1
((lp1935
I1
aI2
aI6
atp1936
Rp1937
ag1
((lp1938
I4
aI5
aI6
atp1939
Rp1940
ag1
((lp1941
I3
aI5
aI6
atp1942
Rp1943
atp1944
Rp1945
I360
sg1
((lp1946
g1
((lp1947
I3
aI4
aI6
atp1948
Rp1949
ag1
((lp1950
I2
aI5
aI6
atp1951
Rp1952
ag1
((lp1953
I3
aI4
aI5
atp1954
Rp1955
ag131
ag14
ag1
((lp1956
I2
aI3
aI4
atp1957
Rp1958
ag1
((lp1959
I4
aI5
aI6
atp1960
Rp1961
ag83
ag1
((lp1962
I2
aI4
aI5
atp1963
Rp1964
ag1
((lp1965
I3
aI5
aI6
atp1966
Rp1967
atp1968
Rp1969
I720
sg1
((lp1970
g281
ag1
((lp1971
I1
aI3
aI5
atp1972
Rp1973
ag1
((lp1974
I2
aI5
aI6
atp1975
Rp1976
ag1
((lp1977
I2
aI3
aI5
atp1978
Rp1979
ag1
((lp1980
I1
aI4
aI5
atp1981
Rp1982
ag50
ag53
ag1
((lp1983
I1
aI2
aI6
atp1984
Rp1985
ag1
((lp1986
I1
aI5
aI6
atp1987
Rp1988
ag1
((lp1989
I3
aI5
aI6
atp1990
Rp1991
atp1992
Rp1993
I720
sg1
((lp1994
g1
((lp1995
I2
aI5
aI6
atp1996
Rp1997
ag236
ag1
((lp1998
I2
aI3
aI5
atp1999
Rp2000
ag14
ag1
((lp2001
I2
aI3
aI4
atp2002
Rp2003
ag1
((lp2004
I1
aI2
aI5
atp2005
Rp2006
ag1
((lp2007
I2
aI4
aI6
atp2008
Rp2009
ag1
((lp2010
I1
aI2
aI6
atp2011
Rp2012
ag1
((lp2013
I1
aI2
aI3
atp2014
Rp2015
ag32
atp2016
Rp2017
I180
sg1
((lp2018
g1
((lp2019
I3
aI4
aI6
atp2020
Rp2021
ag1
((lp2022
I1
aI3
aI5
atp2023
Rp2024
ag1
((lp2025
I2
aI5
aI6
atp2026
Rp2027
ag1
((lp2028
I2
aI3
aI5
atp2029
Rp2030
ag110
ag14
ag1
((lp2031
I2
aI3
aI4
atp2032
Rp2033
ag1
((lp2034
I2
aI3
aI6
atp2035
Rp2036
ag83
ag1
((lp2037
I3
aI5
aI6
atp2038
Rp2039
atp2040
Rp2041
I360
sg1
((lp2042
g1
((lp2043
I1
aI4
aI6
atp2044
Rp2045
ag1
((lp2046
I3
aI4
aI5
atp2047
Rp2048
ag1
((lp2049
I1
aI3
aI6
atp2050
Rp2051
ag185
ag131
ag1
((lp2052
I2
aI3
aI4
atp2053
Rp2054
ag1
((lp2055
I2
aI3
aI5
atp2056
Rp2057
ag1
((lp2058
I1
aI3
aI4
atp2059
Rp2060
ag1
((lp2061
I2
aI4
aI5
atp2062
Rp2063
ag161
atp2064
Rp2065
I360
sg1
((lp2066
g38
ag41
ag758
ag14
ag50
ag755
ag53
ag56
ag59
ag62
atp2067
Rp2068
I360
sg1
((lp2069
g1
((lp2070
I3
aI4
aI6
atp2071
Rp2072
ag1
((lp2073
I2
aI3
aI6
atp2074
Rp2075
ag14
ag359
ag1
((lp2076
I2
aI3
aI4
atp2077
Rp2078
ag1
((lp2079
I1
aI2
aI5
atp2080
Rp2081
ag1
((lp2082
I4
aI5
aI6
atp2083
Rp2084
ag1
((lp2085
I2
aI4
aI6
atp2086
Rp2087
ag83
ag1
((lp2088
I1
aI2
aI3
atp2089
Rp2090
atp2091
Rp2092
I360
sg1
((lp2093
g1
((lp2094
I1
aI3
aI5
atp2095
Rp2096
ag1
((lp2097
I2
aI5
aI6
atp2098
Rp2099
ag236
ag1
((lp2100
I2
aI3
aI5
atp2101
Rp2102
ag1
((lp2103
I2
aI3
aI4
atp2104
Rp2105
ag1
((lp2106
I1
aI2
aI5
atp2107
Rp2108
ag1
((lp2109
I1
aI2
aI4
atp2110
Rp2111
ag1
((lp2112
I1
aI3
aI4
atp2113
Rp2114
ag83
ag32
atp2115
Rp2116
I360
sg1
((lp2117
g1
((lp2118
I1
aI3
aI5
atp2119
Rp2120
ag236
ag965
ag185
ag161
ag968
ag971
ag1
((lp2121
I1
aI4
aI5
atp2122
Rp2123
ag1
((lp2124
I1
aI4
aI6
atp2125
Rp2126
ag983
atp2127
Rp2128
I360
sg1
((lp2129
g281
ag1
((lp2130
I3
aI4
aI6
atp2131
Rp2132
ag359
ag1
((lp2133
I4
aI5
aI6
atp2134
Rp2135
ag1
((lp2136
I1
aI4
aI5
atp2137
Rp2138
ag1
((lp2139
I1
aI3
aI4
atp2140
Rp2141
ag140
ag1
((lp2142
I1
aI2
aI6
atp2143
Rp2144
ag1
((lp2145
I1
aI5
aI6
atp2146
Rp2147
ag1
((lp2148
I1
aI4
aI6
atp2149
Rp2150
atp2151
Rp2152
I360
sg1
((lp2153
g1
((lp2154
I3
aI4
aI6
atp2155
Rp2156
ag1
((lp2157
I2
aI3
aI6
atp2158
Rp2159
ag1
((lp2160
I2
aI5
aI6
atp2161
Rp2162
ag110
ag359
ag1
((lp2163
I2
aI3
aI4
atp2164
Rp2165
ag1
((lp2166
I4
aI5
aI6
atp2167
Rp2168
ag1
((lp2169
I2
aI4
aI6
atp2170
Rp2171
ag83
ag1
((lp2172
I2
aI4
aI5
atp2173
Rp2174
atp2175
Rp2176
I180
sg1
((lp2177
g281
ag1
((lp2178
I2
aI3
aI6
atp2179
Rp2180
ag1
((lp2181
I2
aI5
aI6
atp2182
Rp2183
ag1
((lp2184
I1
aI3
aI6
atp2185
Rp2186
ag50
ag1
((lp2187
I1
aI3
aI5
atp2188
Rp2189
ag1
((lp2190
I1
aI2
aI6
atp2191
Rp2192
ag1
((lp2193
I1
aI5
aI6
atp2194
Rp2195
ag1
((lp2196
I1
aI2
aI3
atp2197
Rp2198
ag32
atp2199
Rp2200
I360
sg1
((lp2201
g1
((lp2202
I2
aI5
aI6
atp2203
Rp2204
ag1
((lp2205
I1
aI3
aI6
atp2206
Rp2207
ag131
ag359
ag1
((lp2208
I1
aI2
aI4
atp2209
Rp2210
ag1
((lp2211
I2
aI4
aI6
atp2212
Rp2213
ag50
ag1
((lp2214
I1
aI2
aI6
atp2215
Rp2216
ag1
((lp2217
I1
aI4
aI6
atp2218
Rp2219
ag1
((lp2220
I1
aI2
aI3
atp2221
Rp2222
atp2223
Rp2224
I360
sg1
((lp2225
g1
((lp2226
I2
aI5
aI6
atp2227
Rp2228
ag1
((lp2229
I3
aI4
aI5
atp2230
Rp2231
ag236
ag1
((lp2232
I1
aI2
aI5
atp2233
Rp2234
ag1
((lp2235
I1
aI2
aI4
atp2236
Rp2237
ag569
ag23
ag1
((lp2238
I1
aI5
aI6
atp2239
Rp2240
ag1
((lp2241
I1
aI4
aI6
atp2242
Rp2243
ag1
((lp2244
I4
aI5
aI6
atp2245
Rp2246
atp2247
Rp2248
I720
sg1
((lp2249
g1
((lp2250
I2
aI5
aI6
atp2251
Rp2252
ag14
ag1
((lp2253
I1
aI2
aI5
atp2254
Rp2255
ag1
((lp2256
I4
aI5
aI6
atp2257
Rp2258
ag1
((lp2259
I2
aI4
aI6
atp2260
Rp2261
ag50
ag23
ag1
((lp2262
I1
aI2
aI6
atp2263
Rp2264
ag1
((lp2265
I1
aI5
aI6
atp2266
Rp2267
ag1
((lp2268
I2
aI4
aI5
atp2269
Rp2270
atp2271
Rp2272
I60
sg1
((lp2273
g1901
ag1
((lp2274
I3
aI4
aI5
atp2275
Rp2276
ag161
ag1907
ag1910
ag1913
ag569
ag140
ag1916
ag1919
atp2277
Rp2278
I720
sg1
((lp2279
g359
ag1
((lp2280
I2
aI3
aI4
atp2281
Rp2282
ag1
((lp2283
I1
aI2
aI4
atp2284
Rp2285
ag1
((lp2286
I1
aI4
aI5
atp2287
Rp2288
ag140
ag23
ag1
((lp2289
I1
aI2
aI6
atp2290
Rp2291
ag1
((lp2292
I1
aI5
aI6
atp2293
Rp2294
ag1
((lp2295
I1
aI4
aI6
atp2296
Rp2297
ag1
((lp2298
I4
aI5
aI6
atp2299
Rp2300
atp2301
Rp2302
I720
sg1
((lp2303
g1
((lp2304
I3
aI4
aI6
atp2305
Rp2306
ag1
((lp2307
I2
aI3
aI6
atp2308
Rp2309
ag1
((lp2310
I2
aI5
aI6
atp2311
Rp2312
ag1
((lp2313
I1
aI2
aI3
atp2314
Rp2315
ag131
ag14
ag1
((lp2316
I2
aI3
aI4
atp2317
Rp2318
ag1
((lp2319
I1
aI2
aI6
atp2320
Rp2321
ag1
((lp2322
I3
aI5
aI6
atp2323
Rp2324
ag32
atp2325
Rp2326
I120
sg1
((lp2327
g1
((lp2328
I3
aI4
aI5
atp2329
Rp2330
ag1
((lp2331
I1
aI3
aI6
atp2332
Rp2333
ag185
ag161
ag1
((lp2334
I2
aI3
aI4
atp2335
Rp2336
ag1
((lp2337
I1
aI2
aI5
atp2338
Rp2339
ag1
((lp2340
I1
aI2
aI4
atp2341
Rp2342
ag1
((lp2343
I1
aI4
aI5
atp2344
Rp2345
ag1
((lp2346
I2
aI3
aI5
atp2347
Rp2348
ag53
atp2349
Rp2350
I60
s.