(dp0
c__builtin__
frozenset
p1
((lp2
g1
((lp3
I1
aI2
aI3
aI4
atp4
Rp5
ag1
((lp6
I1
aI5
atp7
Rp8
ag1
((lp9
I1
aI4
aI6
atp10
Rp11
ag1
((lp12
I2
aI6
atp13
Rp14
ag1
((lp15
I2
aI5
atp16
Rp17
atp18
Rp19
I720
sg1
((lp20
g1
((lp21
I1
aI2
aI3
aI4
atp22
Rp23
ag1
((lp24
I5
aI6
atp25
Rp26
ag8
ag1
((lp27
I1
aI4
aI6
atp28
Rp29
ag1
((lp30
I3
aI5
atp31
Rp32
atp33
Rp34
I720
sg1
((lp35
g1
((lp36
I1
aI3
atp37
Rp38
ag1
((lp39
I3
aI4
atp40
Rp41
ag8
ag1
((lp42
I1
aI2
aI4
atp43
Rp44
ag1
((lp45
I2
aI4
aI5
aI6
atp46
Rp47
atp48
Rp49
I720
sg1
((lp50
g1
((lp51
I2
aI3
aI5
atp52
Rp53
ag1
((lp54
I1
aI2
aI4
aI5
atp55
Rp56
ag1
((lp57
I4
aI6
atp58
Rp59
ag1
((lp60
I1
aI6
atp61
Rp62
ag1
((lp63
I3
aI6
atp64
Rp65
atp66
Rp67
I180
sg1
((lp68
g1
((lp69
I2
aI4
atp70
Rp71
ag1
((lp72
I1
aI2
aI6
atp73
Rp74
ag1
((lp75
I2
aI3
atp76
Rp77
ag32
ag1
((lp78
I1
aI4
aI5
aI6
atp79
Rp80
atp81
Rp82
I360
sg1
((lp83
g1
((lp84
I1
aI2
aI5
aI6
atp85
Rp86
ag1
((lp87
I1
aI4
atp88
Rp89
ag32
ag1
((lp90
I2
aI3
aI4
atp91
Rp92
ag65
atp93
Rp94
I360
sg1
((lp95
g38
ag26
ag1
((lp96
I4
aI5
atp97
Rp98
ag1
((lp99
I2
aI3
aI4
atp100
Rp101
ag1
((lp102
I1
aI2
aI4
aI6
atp103
Rp104
atp105
Rp106
I720
sg1
((lp107
g1
((lp108
I4
aI5
aI6
atp109
Rp110
ag89
ag32
ag17
ag1
((lp111
I2
aI3
aI4
aI6
atp112
Rp113
atp114
Rp115
I360
sg1
((lp116
g1
((lp117
I1
aI2
atp118
Rp119
ag1
((lp120
I1
aI3
aI4
atp121
Rp122
ag77
ag17
ag1
((lp123
I1
aI3
aI5
aI6
atp124
Rp125
atp126
Rp127
I360
sg1
((lp128
g26
ag8
ag1
((lp129
I1
aI2
aI4
aI6
atp130
Rp131
ag1
((lp132
I3
aI4
aI5
atp133
Rp134
ag65
atp135
Rp136
I720
sg1
((lp137
g71
ag26
ag77
ag1
((lp138
I1
aI3
aI4
aI6
atp139
Rp140
ag1
((lp141
I3
aI4
aI5
atp142
Rp143
atp144
Rp145
I360
sg1
((lp146
g1
((lp147
I1
aI2
aI5
aI6
atp148
Rp149
ag1
((lp150
I1
aI3
aI4
atp151
Rp152
ag77
ag32
ag65
atp153
Rp154
I120
sg1
((lp155
g8
ag59
ag62
ag1
((lp156
I2
aI3
aI5
aI6
atp157
Rp158
ag1
((lp159
I2
aI3
aI4
atp160
Rp161
atp162
Rp163
I360
sg1
((lp164
g14
ag77
ag59
ag1
((lp165
I1
aI5
aI6
atp166
Rp167
ag1
((lp168
I1
aI2
aI4
aI5
atp169
Rp170
atp171
Rp172
I360
sg1
((lp173
g119
ag14
ag17
ag1
((lp174
I1
aI5
aI6
atp175
Rp176
ag1
((lp177
I1
aI3
aI4
aI5
atp178
Rp179
atp180
Rp181
I180
sg1
((lp182
g71
ag41
ag77
ag1
((lp183
I3
aI5
aI6
atp184
Rp185
ag1
((lp186
I1
aI2
aI5
aI6
atp187
Rp188
atp189
Rp190
I360
sg1
((lp191
g71
ag1
((lp192
I1
aI3
aI4
atp193
Rp194
ag59
ag1
((lp195
I1
aI2
aI3
aI5
atp196
Rp197
ag98
atp198
Rp199
I180
sg1
((lp200
g26
ag59
ag62
ag1
((lp201
I2
aI3
aI4
atp202
Rp203
ag1
((lp204
I1
aI3
aI4
aI5
atp205
Rp206
atp207
Rp208
I360
s.