(dp0
c__builtin__
frozenset
p1
((lp2
g1
((lp3
I1
aI3
atp4
Rp5
ag1
((lp6
I5
aI6
atp7
Rp8
ag1
((lp9
I2
aI3
aI5
atp10
Rp11
ag1
((lp12
I2
aI4
aI5
atp13
Rp14
ag1
((lp15
I4
aI6
atp16
Rp17
atp18
Rp19
I720
sg1
((lp20
g1
((lp21
I2
aI4
atp22
Rp23
ag1
((lp24
I2
aI6
atp25
Rp26
ag17
ag1
((lp27
I1
aI3
aI4
atp28
Rp29
ag1
((lp30
I3
aI4
aI5
atp31
Rp32
atp33
Rp34
I180
sg1
((lp35
g1
((lp36
I1
aI2
atp37
Rp38
ag1
((lp39
I2
aI5
aI6
atp40
Rp41
ag17
ag1
((lp42
I1
aI6
atp43
Rp44
ag1
((lp45
I2
aI3
aI4
atp46
Rp47
atp48
Rp49
I720
sg1
((lp50
g1
((lp51
I1
aI4
aI5
atp52
Rp53
ag1
((lp54
I3
aI4
atp55
Rp56
ag1
((lp57
I1
aI5
aI6
atp58
Rp59
ag1
((lp60
I2
aI3
atp61
Rp62
ag1
((lp63
I2
aI5
atp64
Rp65
atp66
Rp67
I720
sg1
((lp68
g8
ag1
((lp69
I4
aI5
atp70
Rp71
ag44
ag1
((lp72
I2
aI3
aI4
atp73
Rp74
ag1
((lp75
I3
aI4
aI6
atp76
Rp77
atp78
Rp79
I720
sg1
((lp80
g1
((lp81
I2
aI4
aI6
atp82
Rp83
ag1
((lp84
I3
aI4
aI6
atp85
Rp86
ag62
ag1
((lp87
I3
aI5
atp88
Rp89
ag1
((lp90
I1
aI4
atp91
Rp92
atp93
Rp94
I720
sg1
((lp95
g17
ag26
ag1
((lp96
I2
aI4
aI5
atp97
Rp98
ag1
((lp99
I3
aI5
aI6
atp100
Rp101
ag92
atp102
Rp103
I720
sg1
((lp104
g1
((lp105
I1
aI3
aI6
atp106
Rp107
ag1
((lp108
I1
aI5
atp109
Rp110
ag62
ag17
ag1
((lp111
I3
aI4
aI5
atp112
Rp113
atp114
Rp115
I180
sg1
((lp116
g110
ag1
((lp117
I2
aI4
aI5
atp118
Rp119
ag17
ag1
((lp120
I3
aI4
aI5
atp121
Rp122
ag92
atp123
Rp124
I360
sg1
((lp125
g23
ag1
((lp126
I1
aI5
aI6
atp127
Rp128
ag92
ag1
((lp129
I2
aI5
aI6
atp130
Rp131
ag71
atp132
Rp133
I360
sg1
((lp134
g1
((lp135
I1
aI3
aI6
atp136
Rp137
ag56
ag26
ag92
ag1
((lp138
I2
aI3
aI5
atp139
Rp140
atp141
Rp142
I720
sg1
((lp143
g1
((lp144
I2
aI3
aI5
atp145
Rp146
ag26
ag92
ag1
((lp147
I3
aI6
atp148
Rp149
ag1
((lp150
I4
aI5
aI6
atp151
Rp152
atp153
Rp154
I360
sg1
((lp155
g1
((lp156
I1
aI3
aI5
atp157
Rp158
ag38
ag62
ag65
ag1
((lp159
I4
aI5
aI6
atp160
Rp161
atp162
Rp163
I180
sg1
((lp164
g1
((lp165
I1
aI2
aI6
atp166
Rp167
ag110
ag1
((lp168
I3
aI5
aI6
atp169
Rp170
ag65
ag71
atp171
Rp172
I360
sg1
((lp173
g5
ag38
ag1
((lp174
I1
aI4
aI6
atp175
Rp176
ag1
((lp177
I2
aI5
aI6
atp178
Rp179
ag56
atp180
Rp181
I720
sg1
((lp182
g5
ag110
ag89
ag1
((lp183
I2
aI3
aI4
atp184
Rp185
ag1
((lp186
I4
aI5
aI6
atp187
Rp188
atp189
Rp190
I360
sg1
((lp191
g23
ag1
((lp192
I3
aI4
aI6
atp193
Rp194
ag92
ag44
ag1
((lp195
I1
aI2
aI5
atp196
Rp197
atp198
Rp199
I360
sg1
((lp200
g8
ag26
ag89
ag1
((lp201
I2
aI3
aI4
atp202
Rp203
ag1
((lp204
I3
aI4
aI6
atp205
Rp206
atp207
Rp208
I720
sg1
((lp209
g26
ag92
ag1
((lp210
I1
aI2
aI3
atp211
Rp212
ag1
((lp213
I2
aI3
aI4
atp214
Rp215
ag149
atp216
Rp217
I180
sg1
((lp218
g1
((lp219
I2
aI3
aI5
atp220
Rp221
ag110
ag92
ag44
ag1
((lp222
I2
aI3
aI4
atp223
Rp224
atp225
Rp226
I180
sg1
((lp227
g1
((lp228
I1
aI3
aI6
atp229
Rp230
ag56
ag26
ag89
ag1
((lp231
I1
aI2
aI5
atp232
Rp233
atp234
Rp235
I720
sg1
((lp236
g1
((lp237
I3
aI4
aI6
atp238
Rp239
ag1
((lp240
I1
aI3
aI4
atp241
Rp242
ag62
ag65
ag71
atp243
Rp244
I180
sg1
((lp245
g1
((lp246
I2
aI4
aI6
atp247
Rp248
ag8
ag44
ag65
ag1
((lp249
I3
aI4
aI6
atp250
Rp251
atp252
Rp253
I720
sg1
((lp254
g23
ag1
((lp255
I2
aI3
aI5
atp256
Rp257
ag92
ag1
((lp258
I3
aI5
aI6
atp259
Rp260
ag44
atp261
Rp262
I180
sg1
((lp263
g1
((lp264
I2
aI3
aI5
atp265
Rp266
ag38
ag26
ag1
((lp267
I3
aI5
aI6
atp268
Rp269
ag17
atp270
Rp271
I180
sg1
((lp272
g1
((lp273
I1
aI4
aI5
atp274
Rp275
ag26
ag62
ag149
ag1
((lp276
I4
aI5
aI6
atp277
Rp278
atp279
Rp280
I180
sg1
((lp281
g23
ag56
ag1
((lp282
I1
aI3
aI5
atp283
Rp284
ag1
((lp285
I2
aI5
aI6
atp286
Rp287
ag71
atp288
Rp289
I360
sg1
((lp290
g62
ag1
((lp291
I1
aI3
aI5
atp292
Rp293
ag17
ag1
((lp294
I1
aI2
aI5
atp295
Rp296
ag71
atp297
Rp298
I360
sg1
((lp299
g1
((lp300
I1
aI4
aI5
atp301
Rp302
ag38
ag1
((lp303
I1
aI5
aI6
atp304
Rp305
ag89
ag56
atp306
Rp307
I720
sg1
((lp308
g110
ag62
ag1
((lp309
I2
aI5
aI6
atp310
Rp311
ag1
((lp312
I3
aI4
aI5
atp313
Rp314
ag149
atp315
Rp316
I360
sg1
((lp317
g8
ag26
ag1
((lp318
I1
aI3
aI5
atp319
Rp320
ag17
ag1
((lp321
I3
aI4
aI5
atp322
Rp323
atp324
Rp325
I720
sg1
((lp326
g26
ag62
ag1
((lp327
I3
aI5
aI6
atp328
Rp329
ag71
ag1
((lp330
I1
aI2
aI4
atp331
Rp332
atp333
Rp334
I360
sg1
((lp335
g23
ag1
((lp336
I1
aI3
aI5
atp337
Rp338
ag1
((lp339
I1
aI2
aI3
atp340
Rp341
ag71
ag149
atp342
Rp343
I360
sg1
((lp344
g1
((lp345
I1
aI4
aI5
atp346
Rp347
ag62
ag1
((lp348
I1
aI3
aI5
atp349
Rp350
ag17
ag149
atp351
Rp352
I360
sg1
((lp353
g38
ag1
((lp354
I1
aI5
aI6
atp355
Rp356
ag89
ag1
((lp357
I2
aI5
aI6
atp358
Rp359
ag71
atp360
Rp361
I180
sg1
((lp362
g38
ag1
((lp363
I1
aI3
aI5
atp364
Rp365
ag65
ag1
((lp366
I2
aI3
aI6
atp367
Rp368
ag8
atp369
Rp370
I360
sg1
((lp371
g1
((lp372
I2
aI4
aI6
atp373
Rp374
ag110
ag62
ag1
((lp375
I1
aI3
aI4
atp376
Rp377
ag65
atp378
Rp379
I720
sg1
((lp380
g38
ag110
ag1
((lp381
I3
aI5
aI6
atp382
Rp383
ag44
ag1
((lp384
I2
aI5
aI6
atp385
Rp386
atp387
Rp388
I360
sg1
((lp389
g1
((lp390
I3
aI4
aI6
atp391
Rp392
ag110
ag1
((lp393
I1
aI3
aI4
atp394
Rp395
ag65
ag44
atp396
Rp397
I360
sg1
((lp398
g23
ag1
((lp399
I3
aI4
aI6
atp400
Rp401
ag89
ag44
ag1
((lp402
I1
aI2
aI5
atp403
Rp404
atp405
Rp406
I60
sg1
((lp407
g23
ag1
((lp408
I3
aI4
aI6
atp409
Rp410
ag92
ag1
((lp411
I1
aI2
aI5
atp412
Rp413
ag71
atp414
Rp415
I60
sg1
((lp416
g1
((lp417
I2
aI4
aI6
atp418
Rp419
ag38
ag110
ag65
ag1
((lp420
I4
aI5
aI6
atp421
Rp422
atp423
Rp424
I180
sg1
((lp425
g17
ag62
ag1
((lp426
I3
aI5
aI6
atp427
Rp428
ag1
((lp429
I1
aI2
aI5
atp430
Rp431
ag92
atp432
Rp433
I360
sg1
((lp434
g1
((lp435
I2
aI3
aI5
atp436
Rp437
ag38
ag110
ag1
((lp438
I2
aI5
aI6
atp439
Rp440
ag56
atp441
Rp442
I360
sg1
((lp443
g38
ag26
ag62
ag1
((lp444
I3
aI4
aI5
atp445
Rp446
ag1
((lp447
I1
aI4
aI6
atp448
Rp449
atp450
Rp451
I360
sg1
((lp452
g5
ag1
((lp453
I2
aI3
aI5
atp454
Rp455
ag110
ag92
ag1
((lp456
I3
aI5
aI6
atp457
Rp458
atp459
Rp460
I180
sg1
((lp461
g8
ag71
ag89
ag1
((lp462
I1
aI2
aI5
atp463
Rp464
ag1
((lp465
I1
aI2
aI4
atp466
Rp467
atp468
Rp469
I180
sg1
((lp470
g1
((lp471
I2
aI3
aI5
atp472
Rp473
ag38
ag1
((lp474
I1
aI3
aI5
atp475
Rp476
ag8
ag56
atp477
Rp478
I180
s.