(dp0
c__builtin__
frozenset
p1
((lp2
g1
((lp3
I1
aI3
atp4
Rp5
ag1
((lp6
I2
aI3
atp7
Rp8
ag1
((lp9
I3
aI5
atp10
Rp11
ag1
((lp12
I1
aI2
aI4
aI5
aI6
atp13
Rp14
ag1
((lp15
I3
aI6
atp16
Rp17
atp18
Rp19
I30
s.