(dp0
c__builtin__
frozenset
p1
((lp2
g1
((lp3
I2
aI4
atp4
Rp5
ag1
((lp6
I1
aI3
aI5
atp7
Rp8
ag1
((lp9
I2
aI5
aI6
atp10
Rp11
ag1
((lp12
I3
aI4
atp13
Rp14
ag1
((lp15
I1
aI3
aI6
atp16
Rp17
ag1
((lp18
I1
aI2
aI3
atp19
Rp20
ag1
((lp21
I1
aI4
atp22
Rp23
ag1
((lp24
I1
aI2
aI5
atp25
Rp26
ag1
((lp27
I2
aI3
aI5
atp28
Rp29
ag1
((lp30
I2
aI3
aI6
atp31
Rp32
ag1
((lp33
I4
aI6
atp34
Rp35
ag1
((lp36
I1
aI2
aI6
atp37
Rp38
ag1
((lp39
I1
aI5
aI6
atp40
Rp41
ag1
((lp42
I3
aI5
aI6
atp43
Rp44
ag1
((lp45
I4
aI5
atp46
Rp47
atp48
Rp49
I6
s.