(dp0
c__builtin__
frozenset
p1
((lp2
g1
((lp3
I2
aI4
atp4
Rp5
ag1
((lp6
I1
aI3
aI5
atp7
Rp8
ag1
((lp9
I3
aI4
aI5
atp10
Rp11
ag1
((lp12
I3
aI6
atp13
Rp14
ag1
((lp15
I5
aI6
atp16
Rp17
ag1
((lp18
I1
aI2
aI5
atp19
Rp20
ag1
((lp21
I1
aI4
aI5
atp22
Rp23
ag1
((lp24
I1
aI3
aI4
atp25
Rp26
ag1
((lp27
I4
aI6
atp28
Rp29
ag1
((lp30
I1
aI6
atp31
Rp32
atp33
Rp34
I360
sg1
((lp35
g5
ag1
((lp36
I1
aI3
aI5
atp37
Rp38
ag1
((lp39
I1
aI3
aI6
atp40
Rp41
ag1
((lp42
I1
aI4
atp43
Rp44
ag29
ag1
((lp45
I2
aI5
atp46
Rp47
ag1
((lp48
I1
aI2
aI6
atp49
Rp50
ag1
((lp51
I1
aI5
aI6
atp52
Rp53
ag1
((lp54
I1
aI2
aI3
atp55
Rp56
ag1
((lp57
I4
aI5
atp58
Rp59
atp60
Rp61
I360
sg1
((lp62
g1
((lp63
I1
aI3
aI5
atp64
Rp65
ag1
((lp66
I3
aI4
aI5
atp67
Rp68
ag14
ag1
((lp69
I1
aI2
atp70
Rp71
ag1
((lp72
I2
aI6
atp73
Rp74
ag1
((lp75
I4
aI5
aI6
atp76
Rp77
ag1
((lp78
I1
aI4
aI5
atp79
Rp80
ag1
((lp81
I1
aI3
aI4
atp82
Rp83
ag1
((lp84
I2
aI3
atp85
Rp86
ag32
atp87
Rp88
I180
sg1
((lp89
g5
ag1
((lp90
I1
aI3
aI6
atp91
Rp92
ag1
((lp93
I1
aI2
aI3
atp94
Rp95
ag74
ag1
((lp96
I1
aI3
aI4
atp97
Rp98
ag29
ag47
ag1
((lp99
I1
aI5
aI6
atp100
Rp101
ag1
((lp102
I3
aI5
aI6
atp103
Rp104
ag59
atp105
Rp106
I180
sg1
((lp107
g1
((lp108
I2
aI5
aI6
atp109
Rp110
ag14
ag1
((lp111
I3
aI5
atp112
Rp113
ag1
((lp114
I1
aI2
aI5
atp115
Rp116
ag1
((lp117
I1
aI2
aI4
atp118
Rp119
ag1
((lp120
I1
aI4
aI5
atp121
Rp122
ag1
((lp123
I3
aI4
atp124
Rp125
ag29
ag1
((lp126
I1
aI3
atp127
Rp128
ag1
((lp129
I1
aI2
aI6
atp130
Rp131
atp132
Rp133
I720
sg1
((lp134
g14
ag1
((lp135
I2
aI3
aI5
atp136
Rp137
ag17
ag1
((lp138
I1
aI5
atp139
Rp140
ag44
ag1
((lp141
I2
aI4
aI6
atp142
Rp143
ag125
ag1
((lp144
I1
aI2
aI6
atp145
Rp146
ag1
((lp147
I2
aI4
aI5
atp148
Rp149
ag1
((lp150
I1
aI2
aI3
atp151
Rp152
atp153
Rp154
I72
sg1
((lp155
g1
((lp156
I3
aI4
aI6
atp157
Rp158
ag1
((lp159
I1
aI3
aI5
atp160
Rp161
ag1
((lp162
I3
aI4
aI5
atp163
Rp164
ag71
ag74
ag44
ag1
((lp165
I2
aI3
aI4
atp166
Rp167
ag32
ag1
((lp168
I3
aI5
aI6
atp169
Rp170
ag47
atp171
Rp172
I360
sg1
((lp173
g5
ag1
((lp174
I2
aI5
aI6
atp175
Rp176
ag1
((lp177
I3
aI4
aI5
atp178
Rp179
ag14
ag71
ag1
((lp180
I4
aI5
aI6
atp181
Rp182
ag86
ag128
ag1
((lp183
I1
aI5
aI6
atp184
Rp185
ag1
((lp186
I1
aI4
aI6
atp187
Rp188
atp189
Rp190
I720
sg1
((lp191
g1
((lp192
I1
aI3
aI5
atp193
Rp194
ag1
((lp195
I3
aI4
aI5
atp196
Rp197
ag14
ag71
ag1
((lp198
I4
aI5
aI6
atp199
Rp200
ag1
((lp201
I2
aI4
aI6
atp202
Rp203
ag1
((lp204
I1
aI3
aI4
atp205
Rp206
ag86
ag32
ag47
atp207
Rp208
I720
sg1
((lp209
g14
ag17
ag74
ag113
ag1
((lp210
I2
aI3
aI4
atp211
Rp212
ag1
((lp213
I1
aI2
aI4
atp214
Rp215
ag1
((lp216
I1
aI4
aI5
atp217
Rp218
ag1
((lp219
I1
aI3
aI4
atp220
Rp221
ag47
ag1
((lp222
I1
aI4
aI6
atp223
Rp224
atp225
Rp226
I180
sg1
((lp227
g5
ag1
((lp228
I2
aI5
aI6
atp229
Rp230
ag1
((lp231
I2
aI3
aI5
atp232
Rp233
ag1
((lp234
I1
aI2
aI3
atp235
Rp236
ag1
((lp237
I1
aI2
aI5
atp238
Rp239
ag125
ag29
ag32
ag1
((lp240
I3
aI5
aI6
atp241
Rp242
ag59
atp243
Rp244
I720
sg1
((lp245
g5
ag1
((lp246
I2
aI3
aI6
atp247
Rp248
ag1
((lp249
I2
aI5
aI6
atp250
Rp251
ag125
ag1
((lp252
I1
aI3
aI6
atp253
Rp254
ag44
ag1
((lp255
I2
aI3
aI5
atp256
Rp257
ag29
ag1
((lp258
I1
aI5
aI6
atp259
Rp260
ag59
atp261
Rp262
I360
sg1
((lp263
g5
ag1
((lp264
I2
aI5
aI6
atp265
Rp266
ag14
ag113
ag1
((lp267
I1
aI2
aI5
atp268
Rp269
ag1
((lp270
I1
aI4
aI5
atp271
Rp272
ag125
ag128
ag1
((lp273
I1
aI2
aI6
atp274
Rp275
ag1
((lp276
I1
aI4
aI6
atp277
Rp278
atp279
Rp280
I360
sg1
((lp281
g5
ag1
((lp282
I1
aI3
aI5
atp283
Rp284
ag125
ag254
ag44
ag257
ag29
ag260
ag1
((lp285
I3
aI5
aI6
atp286
Rp287
ag59
atp288
Rp289
I180
sg1
((lp290
g1
((lp291
I1
aI3
aI5
atp292
Rp293
ag1
((lp294
I3
aI4
aI5
atp295
Rp296
ag14
ag17
ag74
ag1
((lp297
I1
aI2
aI5
atp298
Rp299
ag1
((lp300
I1
aI2
aI4
atp301
Rp302
ag29
ag32
ag1
((lp303
I1
aI2
aI3
atp304
Rp305
atp306
Rp307
I360
sg1
((lp308
g1
((lp309
I2
aI4
aI6
atp310
Rp311
ag1
((lp312
I2
aI5
aI6
atp313
Rp314
ag14
ag113
ag1
((lp315
I1
aI2
aI4
atp316
Rp317
ag1
((lp318
I1
aI4
aI5
atp319
Rp320
ag125
ag86
ag128
ag1
((lp321
I1
aI5
aI6
atp322
Rp323
atp324
Rp325
I72
sg1
((lp326
g5
ag71
ag74
ag1
((lp327
I4
aI5
aI6
atp328
Rp329
ag1
((lp330
I1
aI4
aI5
atp331
Rp332
ag125
ag86
ag1
((lp333
I1
aI5
aI6
atp334
Rp335
ag1
((lp336
I1
aI4
aI6
atp337
Rp338
ag1
((lp339
I3
aI5
aI6
atp340
Rp341
atp342
Rp343
I720
sg1
((lp344
g1
((lp345
I3
aI4
aI6
atp346
Rp347
ag140
ag113
ag1
((lp348
I2
aI3
aI4
atp349
Rp350
ag1
((lp351
I1
aI2
aI4
atp352
Rp353
ag1
((lp354
I2
aI4
aI6
atp355
Rp356
ag1
((lp357
I1
aI3
aI4
atp358
Rp359
ag47
ag59
ag32
atp360
Rp361
I360
sg1
((lp362
g5
ag1
((lp363
I3
aI4
aI6
atp364
Rp365
ag1
((lp366
I3
aI4
aI5
atp367
Rp368
ag71
ag74
ag1
((lp369
I4
aI5
aI6
atp370
Rp371
ag47
ag128
ag1
((lp372
I1
aI5
aI6
atp373
Rp374
ag1
((lp375
I3
aI5
aI6
atp376
Rp377
atp378
Rp379
I360
sg1
((lp380
g1
((lp381
I1
aI3
aI5
atp382
Rp383
ag1
((lp384
I1
aI3
aI6
atp385
Rp386
ag44
ag86
ag29
ag47
ag1
((lp387
I1
aI2
aI6
atp388
Rp389
ag1
((lp390
I1
aI5
aI6
atp391
Rp392
ag1
((lp393
I3
aI5
aI6
atp394
Rp395
ag59
atp396
Rp397
I360
sg1
((lp398
g5
ag1
((lp399
I3
aI4
aI6
atp400
Rp401
ag1
((lp402
I1
aI3
aI6
atp403
Rp404
ag74
ag1
((lp405
I1
aI3
aI4
atp406
Rp407
ag86
ag47
ag1
((lp408
I1
aI5
aI6
atp409
Rp410
ag1
((lp411
I3
aI5
aI6
atp412
Rp413
ag59
atp414
Rp415
I360
sg1
((lp416
g5
ag284
ag251
ag44
ag1
((lp417
I1
aI2
aI5
atp418
Rp419
ag125
ag29
ag260
ag1
((lp420
I1
aI2
aI3
atp421
Rp422
ag59
atp423
Rp424
I360
sg1
((lp425
g5
ag1
((lp426
I2
aI3
aI6
atp427
Rp428
ag1
((lp429
I2
aI5
aI6
atp430
Rp431
ag1
((lp432
I2
aI3
aI5
atp433
Rp434
ag71
ag125
ag1
((lp435
I1
aI3
aI5
atp436
Rp437
ag29
ag32
ag1
((lp438
I3
aI5
aI6
atp439
Rp440
atp441
Rp442
I360
sg1
((lp443
g1
((lp444
I1
aI3
aI5
atp445
Rp446
ag14
ag17
ag1
((lp447
I1
aI2
aI5
atp448
Rp449
ag1
((lp450
I1
aI2
aI4
atp451
Rp452
ag1
((lp453
I2
aI4
aI6
atp454
Rp455
ag1
((lp456
I1
aI3
aI4
atp457
Rp458
ag86
ag32
ag59
atp459
Rp460
I360
sg1
((lp461
g1
((lp462
I2
aI4
aI6
atp463
Rp464
ag14
ag17
ag113
ag1
((lp465
I1
aI2
aI5
atp466
Rp467
ag1
((lp468
I1
aI4
aI5
atp469
Rp470
ag125
ag128
ag1
((lp471
I1
aI2
aI6
atp472
Rp473
ag1
((lp474
I2
aI4
aI5
atp475
Rp476
atp477
Rp478
I360
sg1
((lp479
g5
ag1
((lp480
I3
aI4
aI6
atp481
Rp482
ag1
((lp483
I1
aI3
aI6
atp484
Rp485
ag71
ag113
ag1
((lp486
I4
aI5
aI6
atp487
Rp488
ag86
ag47
ag1
((lp489
I1
aI5
aI6
atp490
Rp491
ag1
((lp492
I1
aI4
aI6
atp493
Rp494
atp495
Rp496
I180
sg1
((lp497
g5
ag1
((lp498
I2
aI5
aI6
atp499
Rp500
ag1
((lp501
I1
aI2
aI5
atp502
Rp503
ag125
ag86
ag128
ag1
((lp504
I1
aI2
aI6
atp505
Rp506
ag1
((lp507
I1
aI5
aI6
atp508
Rp509
ag1
((lp510
I1
aI4
aI6
atp511
Rp512
ag59
atp513
Rp514
I720
sg1
((lp515
g1
((lp516
I1
aI3
aI5
atp517
Rp518
ag14
ag71
ag74
ag1
((lp519
I4
aI5
aI6
atp520
Rp521
ag1
((lp522
I1
aI4
aI5
atp523
Rp524
ag86
ag47
ag1
((lp525
I1
aI5
aI6
atp526
Rp527
ag1
((lp528
I1
aI4
aI6
atp529
Rp530
atp531
Rp532
I360
sg1
((lp533
g1
((lp534
I2
aI5
aI6
atp535
Rp536
ag14
ag1
((lp537
I2
aI3
aI5
atp538
Rp539
ag140
ag1
((lp540
I1
aI2
aI4
atp541
Rp542
ag125
ag29
ag32
ag1
((lp543
I2
aI4
aI5
atp544
Rp545
ag1
((lp546
I1
aI2
aI3
atp547
Rp548
atp549
Rp550
I360
sg1
((lp551
g5
ag1
((lp552
I3
aI4
aI5
atp553
Rp554
ag1
((lp555
I1
aI3
aI6
atp556
Rp557
ag71
ag74
ag1
((lp558
I1
aI4
aI5
atp559
Rp560
ag1
((lp561
I2
aI3
aI5
atp562
Rp563
ag1
((lp564
I1
aI3
aI4
atp565
Rp566
ag29
ag17
atp567
Rp568
I360
sg1
((lp569
g1
((lp570
I1
aI3
aI5
atp571
Rp572
ag14
ag17
ag1
((lp573
I2
aI3
aI4
atp574
Rp575
ag1
((lp576
I1
aI2
aI4
atp577
Rp578
ag1
((lp579
I1
aI3
aI4
atp580
Rp581
ag32
ag47
ag1
((lp582
I1
aI2
aI3
atp583
Rp584
ag59
atp585
Rp586
I180
sg1
((lp587
g5
ag1
((lp588
I1
aI3
aI5
atp589
Rp590
ag1
((lp591
I3
aI4
aI5
atp592
Rp593
ag1
((lp594
I1
aI3
aI6
atp595
Rp596
ag17
ag44
ag29
ag47
ag1
((lp597
I1
aI2
aI6
atp598
Rp599
ag1
((lp600
I1
aI2
aI3
atp601
Rp602
atp603
Rp604
I360
sg1
((lp605
g1
((lp606
I1
aI3
aI5
atp607
Rp608
ag1
((lp609
I1
aI3
aI6
atp610
Rp611
ag44
ag1
((lp612
I2
aI4
aI6
atp613
Rp614
ag125
ag86
ag47
ag1
((lp615
I1
aI5
aI6
atp616
Rp617
ag1
((lp618
I3
aI5
aI6
atp619
Rp620
ag59
atp621
Rp622
I360
sg1
((lp623
g14
ag1
((lp624
I2
aI3
aI5
atp625
Rp626
ag17
ag140
ag1
((lp627
I1
aI2
aI4
atp628
Rp629
ag1
((lp630
I1
aI3
aI4
atp631
Rp632
ag1
((lp633
I1
aI4
aI6
atp634
Rp635
ag1
((lp636
I1
aI2
aI3
atp637
Rp638
ag74
ag59
atp639
Rp640
I360
sg1
((lp641
g5
ag1
((lp642
I1
aI3
aI5
atp643
Rp644
ag1
((lp645
I2
aI5
aI6
atp646
Rp647
ag1
((lp648
I1
aI3
aI6
atp649
Rp650
ag44
ag1
((lp651
I1
aI2
aI5
atp652
Rp653
ag125
ag86
ag1
((lp654
I1
aI2
aI6
atp655
Rp656
ag59
atp657
Rp658
I720
sg1
((lp659
g5
ag1
((lp660
I3
aI4
aI6
atp661
Rp662
ag1
((lp663
I3
aI4
aI5
atp664
Rp665
ag1
((lp666
I1
aI3
aI6
atp667
Rp668
ag71
ag74
ag1
((lp669
I1
aI3
aI4
atp670
Rp671
ag86
ag47
ag1
((lp672
I3
aI5
aI6
atp673
Rp674
atp675
Rp676
I180
sg1
((lp677
g17
ag74
ag113
ag1
((lp678
I2
aI3
aI4
atp679
Rp680
ag1
((lp681
I1
aI2
aI5
atp682
Rp683
ag1
((lp684
I1
aI4
aI5
atp685
Rp686
ag29
ag32
ag1
((lp687
I2
aI4
aI5
atp688
Rp689
ag1
((lp690
I1
aI2
aI3
atp691
Rp692
atp693
Rp694
I360
sg1
((lp695
g1
((lp696
I2
aI5
aI6
atp697
Rp698
ag14
ag44
ag113
ag1
((lp699
I2
aI3
aI4
atp700
Rp701
ag1
((lp702
I1
aI2
aI5
atp703
Rp704
ag29
ag128
ag1
((lp705
I1
aI2
aI6
atp706
Rp707
ag1
((lp708
I2
aI4
aI5
atp709
Rp710
atp711
Rp712
I360
s.