(dp0
c__builtin__
frozenset
p1
((lp2
g1
((lp3
I2
aI4
atp4
Rp5
ag1
((lp6
I1
aI2
atp7
Rp8
ag1
((lp9
I1
aI5
atp10
Rp11
ag1
((lp12
I1
aI3
aI4
atp13
Rp14
ag1
((lp15
I2
aI3
atp16
Rp17
ag1
((lp18
I1
aI6
atp19
Rp20
ag1
((lp21
I2
aI6
atp22
Rp23
atp24
Rp25
I360
sg1
((lp26
g8
ag11
ag1
((lp27
I3
aI5
atp28
Rp29
ag1
((lp30
I2
aI3
aI4
atp31
Rp32
ag1
((lp33
I4
aI6
atp34
Rp35
ag20
ag1
((lp36
I2
aI5
atp37
Rp38
atp39
Rp40
I720
sg1
((lp41
g1
((lp42
I2
aI3
aI6
atp43
Rp44
ag11
ag1
((lp45
I1
aI4
atp46
Rp47
ag29
ag20
ag1
((lp48
I1
aI3
atp49
Rp50
ag1
((lp51
I4
aI5
atp52
Rp53
atp54
Rp55
I720
sg1
((lp56
g1
((lp57
I3
aI6
atp58
Rp59
ag8
ag23
ag29
ag1
((lp60
I3
aI4
atp61
Rp62
ag50
ag1
((lp63
I2
aI4
aI5
atp64
Rp65
atp66
Rp67
I180
sg1
((lp68
g5
ag1
((lp69
I5
aI6
atp70
Rp71
ag11
ag29
ag62
ag1
((lp72
I1
aI4
aI6
atp73
Rp74
ag23
atp75
Rp76
I720
sg1
((lp77
g59
ag71
ag23
ag1
((lp78
I1
aI3
aI4
atp79
Rp80
ag17
ag35
ag8
atp81
Rp82
I720
sg1
((lp83
g1
((lp84
I3
aI4
aI6
atp85
Rp86
ag8
ag47
ag29
ag20
ag50
ag38
atp87
Rp88
I360
sg1
((lp89
g59
ag8
ag11
ag71
ag50
ag1
((lp90
I1
aI4
aI6
atp91
Rp92
ag23
atp93
Rp94
I60
sg1
((lp95
g59
ag8
ag29
ag1
((lp96
I2
aI4
aI6
atp97
Rp98
ag17
ag20
ag50
atp99
Rp100
I360
sg1
((lp101
g59
ag1
((lp102
I2
aI3
aI5
atp103
Rp104
ag11
ag62
ag35
ag50
ag53
atp105
Rp106
I720
sg1
((lp107
g5
ag59
ag23
ag47
ag1
((lp108
I4
aI5
aI6
atp109
Rp110
ag17
ag50
atp111
Rp112
I720
sg1
((lp113
g8
ag11
ag29
ag35
ag20
ag1
((lp114
I2
aI4
aI5
atp115
Rp116
ag23
atp117
Rp118
I720
sg1
((lp119
g5
ag1
((lp120
I3
aI4
aI6
atp121
Rp122
ag71
ag11
ag47
ag8
ag50
atp123
Rp124
I720
sg1
((lp125
g5
ag23
ag47
ag1
((lp126
I1
aI2
aI5
atp127
Rp128
ag35
ag20
ag53
atp129
Rp130
I360
sg1
((lp131
g59
ag47
ag1
((lp132
I2
aI4
aI6
atp133
Rp134
ag62
ag17
ag20
ag38
atp135
Rp136
I360
sg1
((lp137
g5
ag71
ag11
ag38
ag1
((lp138
I1
aI2
aI3
atp139
Rp140
ag23
ag53
atp141
Rp142
I360
sg1
((lp143
g59
ag11
ag47
ag29
ag20
ag1
((lp144
I1
aI2
aI3
atp145
Rp146
ag23
atp147
Rp148
I720
sg1
((lp149
g59
ag71
ag29
ag1
((lp150
I1
aI2
aI5
atp151
Rp152
ag62
ag35
ag53
atp153
Rp154
I60
sg1
((lp155
g1
((lp156
I2
aI5
aI6
atp157
Rp158
ag59
ag8
ag11
ag29
ag17
ag20
atp159
Rp160
I60
sg1
((lp161
g8
ag11
ag1
((lp162
I1
aI3
aI4
atp163
Rp164
ag35
ag38
ag71
ag23
atp165
Rp166
I360
sg1
((lp167
g59
ag71
ag23
ag29
ag35
ag20
ag1
((lp168
I2
aI4
aI5
atp169
Rp170
atp171
Rp172
I360
sg1
((lp173
g5
ag23
ag29
ag1
((lp174
I1
aI4
aI5
atp175
Rp176
ag62
ag35
ag50
atp177
Rp178
I180
sg1
((lp179
g23
ag38
ag35
ag20
ag50
ag1
((lp180
I3
aI5
aI6
atp181
Rp182
ag53
atp183
Rp184
I360
sg1
((lp185
g5
ag1
((lp186
I1
aI3
aI6
atp187
Rp188
ag71
ag23
ag47
ag62
ag38
atp189
Rp190
I360
sg1
((lp191
g11
ag47
ag29
ag1
((lp192
I2
aI4
aI6
atp193
Rp194
ag17
ag20
ag50
atp195
Rp196
I360
sg1
((lp197
g11
ag29
ag1
((lp198
I1
aI2
aI4
atp199
Rp200
ag62
ag20
ag50
ag38
atp201
Rp202
I360
sg1
((lp203
g5
ag1
((lp204
I2
aI5
aI6
atp205
Rp206
ag47
ag17
ag20
ag50
ag53
atp207
Rp208
I720
sg1
((lp209
g71
ag23
ag29
ag1
((lp210
I1
aI4
aI5
atp211
Rp212
ag17
ag35
ag50
atp213
Rp214
I360
sg1
((lp215
g11
ag47
ag62
ag38
ag50
ag1
((lp216
I3
aI5
aI6
atp217
Rp218
ag23
atp219
Rp220
I720
sg1
((lp221
g1
((lp222
I2
aI3
aI5
atp223
Rp224
ag8
ag11
ag62
ag35
ag50
ag53
atp225
Rp226
I360
sg1
((lp227
g5
ag11
ag47
ag29
ag62
ag50
ag1
((lp228
I1
aI2
aI6
atp229
Rp230
atp231
Rp232
I720
sg1
((lp233
g5
ag1
((lp234
I3
aI4
aI6
atp235
Rp236
ag11
ag47
ag17
ag38
ag50
atp237
Rp238
I180
sg1
((lp239
g59
ag47
ag1
((lp240
I4
aI5
aI6
atp241
Rp242
ag62
ag20
ag50
ag38
atp243
Rp244
I180
sg1
((lp245
g59
ag71
ag11
ag1
((lp246
I1
aI2
aI4
atp247
Rp248
ag17
ag20
ag23
atp249
Rp250
I360
sg1
((lp251
g5
ag71
ag47
ag1
((lp252
I1
aI2
aI5
atp253
Rp254
ag62
ag50
ag53
atp255
Rp256
I720
sg1
((lp257
g1
((lp258
I1
aI3
aI5
atp259
Rp260
ag59
ag23
ag47
ag62
ag35
ag53
atp261
Rp262
I360
sg1
((lp263
g59
ag47
ag1
((lp264
I2
aI4
aI6
atp265
Rp266
ag17
ag20
ag53
ag38
atp267
Rp268
I120
sg1
((lp269
g5
ag1
((lp270
I2
aI3
aI6
atp271
Rp272
ag71
ag47
ag29
ag35
ag20
atp273
Rp274
I720
sg1
((lp275
g5
ag1
((lp276
I3
aI4
aI6
atp277
Rp278
ag8
ag47
ag17
ag50
ag53
atp279
Rp280
I360
sg1
((lp281
g59
ag71
ag29
ag1
((lp282
I1
aI2
aI4
atp283
Rp284
ag17
ag20
ag53
atp285
Rp286
I120
sg1
((lp287
g5
ag1
((lp288
I2
aI3
aI5
atp289
Rp290
ag71
ag23
ag47
ag62
ag53
atp291
Rp292
I360
sg1
((lp293
g5
ag11
ag17
ag35
ag20
ag1
((lp294
I3
aI5
aI6
atp295
Rp296
ag53
atp297
Rp298
I360
sg1
((lp299
g71
ag11
ag29
ag1
((lp300
I2
aI3
aI4
atp301
Rp302
ag20
ag38
ag53
atp303
Rp304
I60
sg1
((lp305
g23
ag29
ag1
((lp306
I1
aI2
aI4
atp307
Rp308
ag35
ag20
ag50
ag53
atp309
Rp310
I360
s.