(dp0
c__builtin__
frozenset
p1
((lp2
g1
((lp3
I3
aI4
aI6
atp4
Rp5
ag1
((lp6
I1
aI3
aI6
atp7
Rp8
ag1
((lp9
I1
aI2
atp10
Rp11
ag1
((lp12
I1
aI5
atp13
Rp14
ag1
((lp15
I3
aI5
atp16
Rp17
ag1
((lp18
I2
aI3
aI4
atp19
Rp20
ag1
((lp21
I2
aI4
aI6
atp22
Rp23
ag1
((lp24
I1
aI3
aI4
atp25
Rp26
ag1
((lp27
I2
aI5
atp28
Rp29
ag1
((lp30
I5
aI6
atp31
Rp32
ag1
((lp33
I1
aI4
aI6
atp34
Rp35
ag1
((lp36
I4
aI5
atp37
Rp38
atp39
Rp40
I360
sg1
((lp41
g1
((lp42
I2
aI4
atp43
Rp44
ag1
((lp45
I3
aI4
aI6
atp46
Rp47
ag1
((lp48
I2
aI3
aI6
atp49
Rp50
ag32
ag14
ag17
ag1
((lp51
I1
aI3
aI4
atp52
Rp53
ag29
ag1
((lp54
I1
aI2
aI6
atp55
Rp56
ag1
((lp57
I1
aI4
aI6
atp58
Rp59
ag1
((lp60
I1
aI2
aI3
atp61
Rp62
ag38
atp63
Rp64
I60
s.