(dp0
c__builtin__
frozenset
p1
((lp2
g1
((lp3
I2
aI4
atp4
Rp5
ag1
((lp6
I3
aI4
aI5
atp7
Rp8
ag1
((lp9
I1
aI5
atp10
Rp11
ag1
((lp12
I1
aI4
atp13
Rp14
ag1
((lp15
I4
aI5
aI6
atp16
Rp17
ag1
((lp18
I1
aI6
atp19
Rp20
ag1
((lp21
I1
aI3
atp22
Rp23
ag1
((lp24
I3
aI5
aI6
atp25
Rp26
ag1
((lp27
I2
aI6
atp28
Rp29
ag1
((lp30
I2
aI5
atp31
Rp32
atp33
Rp34
I360
sg1
((lp35
g5
ag1
((lp36
I1
aI3
aI5
atp37
Rp38
ag1
((lp39
I3
aI4
aI5
atp40
Rp41
ag1
((lp42
I3
aI6
atp43
Rp44
ag29
ag14
ag1
((lp45
I4
aI5
aI6
atp46
Rp47
ag1
((lp48
I2
aI3
atp49
Rp50
ag20
ag32
atp51
Rp52
I720
sg1
((lp53
g44
ag1
((lp54
I5
aI6
atp55
Rp56
ag11
ag1
((lp57
I1
aI2
aI4
atp58
Rp59
ag1
((lp60
I2
aI4
aI6
atp61
Rp62
ag1
((lp63
I3
aI4
atp64
Rp65
ag50
ag32
ag23
ag1
((lp66
I1
aI4
aI6
atp67
Rp68
atp69
Rp70
I120
sg1
((lp71
g56
ag1
((lp72
I3
aI5
atp73
Rp74
ag1
((lp75
I1
aI2
aI5
atp76
Rp77
ag1
((lp78
I1
aI2
aI4
atp79
Rp80
ag65
ag50
ag1
((lp81
I4
aI6
atp82
Rp83
ag23
ag1
((lp84
I1
aI2
aI6
atp85
Rp86
ag1
((lp87
I4
aI5
atp88
Rp89
atp90
Rp91
I180
sg1
((lp92
g1
((lp93
I1
aI3
aI5
atp94
Rp95
ag44
ag56
ag29
ag14
ag65
ag83
ag20
ag1
((lp96
I2
aI4
aI5
atp97
Rp98
ag1
((lp99
I1
aI2
aI3
atp100
Rp101
atp102
Rp103
I180
sg1
((lp104
g44
ag1
((lp105
I1
aI2
atp106
Rp107
ag29
ag74
ag1
((lp108
I4
aI5
aI6
atp109
Rp110
ag1
((lp111
I1
aI4
aI5
atp112
Rp113
ag50
ag32
ag23
ag1
((lp114
I1
aI4
aI6
atp115
Rp116
atp117
Rp118
I60
sg1
((lp119
g5
ag1
((lp120
I2
aI3
aI6
atp121
Rp122
ag56
ag11
ag14
ag74
ag83
ag1
((lp123
I1
aI2
aI6
atp124
Rp125
ag1
((lp126
I1
aI2
aI3
atp127
Rp128
ag89
atp129
Rp130
I360
sg1
((lp131
g107
ag11
ag14
ag1
((lp132
I4
aI5
aI6
atp133
Rp134
ag65
ag50
ag20
ag23
ag1
((lp135
I2
aI4
aI5
atp136
Rp137
ag1
((lp138
I3
aI5
aI6
atp139
Rp140
atp141
Rp142
I720
sg1
((lp143
g5
ag1
((lp144
I2
aI3
aI6
atp145
Rp146
ag1
((lp147
I3
aI4
aI5
atp148
Rp149
ag107
ag14
ag83
ag20
ag23
ag1
((lp150
I3
aI5
aI6
atp151
Rp152
ag32
atp153
Rp154
I720
sg1
((lp155
g5
ag1
((lp156
I3
aI4
aI6
atp157
Rp158
ag1
((lp159
I1
aI3
aI6
atp160
Rp161
ag56
ag11
ag74
ag32
ag107
ag1
((lp162
I1
aI4
aI6
atp163
Rp164
ag29
atp165
Rp166
I360
sg1
((lp167
g5
ag1
((lp168
I1
aI3
aI5
atp169
Rp170
ag44
ag107
ag29
ag1
((lp171
I1
aI4
aI5
atp172
Rp173
ag65
ag50
ag32
ag1
((lp174
I1
aI5
aI6
atp175
Rp176
atp177
Rp178
I180
sg1
((lp179
g44
ag56
ag14
ag74
ag1
((lp180
I1
aI2
aI5
atp181
Rp182
ag1
((lp183
I2
aI4
aI6
atp184
Rp185
ag65
ag20
ag23
ag1
((lp186
I2
aI4
aI5
atp187
Rp188
atp189
Rp190
I360
sg1
((lp191
g1
((lp192
I2
aI5
aI6
atp193
Rp194
ag107
ag11
ag14
ag1
((lp195
I2
aI4
aI6
atp196
Rp197
ag65
ag50
ag20
ag23
ag137
atp198
Rp199
I360
sg1
((lp200
g1
((lp201
I2
aI3
aI6
atp202
Rp203
ag1
((lp204
I1
aI3
aI6
atp205
Rp206
ag56
ag11
ag74
ag1
((lp207
I2
aI3
aI4
atp208
Rp209
ag83
ag32
ag107
ag89
atp210
Rp211
I360
sg1
((lp212
g44
ag56
ag11
ag74
ag1
((lp213
I2
aI3
aI4
atp214
Rp215
ag1
((lp216
I1
aI2
aI4
atp217
Rp218
ag83
ag32
ag1
((lp219
I1
aI2
aI3
atp220
Rp221
ag89
atp222
Rp223
I360
sg1
((lp224
g5
ag1
((lp225
I2
aI3
aI6
atp226
Rp227
ag1
((lp228
I3
aI4
aI5
atp229
Rp230
ag56
ag11
ag14
ag83
ag32
ag23
ag1
((lp231
I1
aI2
aI6
atp232
Rp233
atp234
Rp235
I180
sg1
((lp236
g44
ag107
ag11
ag74
ag1
((lp237
I4
aI5
aI6
atp238
Rp239
ag1
((lp240
I1
aI3
aI4
atp241
Rp242
ag50
ag20
ag1
((lp243
I2
aI4
aI5
atp244
Rp245
ag29
atp246
Rp247
I180
sg1
((lp248
g1
((lp249
I2
aI3
aI6
atp250
Rp251
ag56
ag11
ag14
ag74
ag1
((lp252
I2
aI4
aI6
atp253
Rp254
ag65
ag23
ag1
((lp255
I1
aI2
aI6
atp256
Rp257
ag89
atp258
Rp259
I120
sg1
((lp260
g1
((lp261
I3
aI4
aI6
atp262
Rp263
ag107
ag11
ag1
((lp264
I4
aI5
aI6
atp265
Rp266
ag50
ag20
ag23
ag1
((lp267
I3
aI5
aI6
atp268
Rp269
ag29
ag32
atp270
Rp271
I180
s.