(dp0
c__builtin__
frozenset
p1
((lp2
g1
((lp3
I3
aI4
aI5
atp4
Rp5
ag1
((lp6
I3
aI6
atp7
Rp8
ag1
((lp9
I1
aI2
atp10
Rp11
ag1
((lp12
I1
aI4
atp13
Rp14
ag1
((lp15
I2
aI3
aI4
atp16
Rp17
ag1
((lp18
I4
aI6
atp19
Rp20
ag1
((lp21
I1
aI6
atp22
Rp23
ag1
((lp24
I5
aI6
atp25
Rp26
ag1
((lp27
I1
aI3
atp28
Rp29
ag1
((lp30
I2
aI5
atp31
Rp32
atp33
Rp34
I180
sg1
((lp35
g8
ag26
ag1
((lp36
I1
aI5
atp37
Rp38
ag1
((lp39
I3
aI5
atp40
Rp41
ag1
((lp42
I2
aI3
aI4
atp43
Rp44
ag1
((lp45
I1
aI2
aI4
atp46
Rp47
ag20
ag32
ag23
ag1
((lp48
I4
aI5
atp49
Rp50
atp51
Rp52
I360
sg1
((lp53
g1
((lp54
I2
aI4
atp55
Rp56
ag8
ag26
ag38
ag14
ag41
ag1
((lp57
I3
aI4
atp58
Rp59
ag32
ag1
((lp60
I1
aI2
aI6
atp61
Rp62
ag1
((lp63
I1
aI2
aI3
atp64
Rp65
atp66
Rp67
I360
sg1
((lp68
g1
((lp69
I3
aI4
aI5
atp70
Rp71
ag8
ag11
ag38
ag1
((lp72
I2
aI3
atp73
Rp74
ag32
ag26
ag29
ag1
((lp75
I1
aI4
aI6
atp76
Rp77
ag1
((lp78
I2
aI6
atp79
Rp80
atp81
Rp82
I90
sg1
((lp83
g56
ag1
((lp84
I1
aI3
aI5
atp85
Rp86
ag8
ag11
ag1
((lp87
I1
aI4
aI5
atp88
Rp89
ag59
ag74
ag20
ag32
ag26
atp90
Rp91
I360
sg1
((lp92
g8
ag11
ag80
ag14
ag1
((lp93
I2
aI3
aI4
atp94
Rp95
ag20
ag32
ag29
ag1
((lp96
I1
aI5
aI6
atp97
Rp98
ag50
atp99
Rp100
I90
sg1
((lp101
g56
ag1
((lp102
I2
aI3
aI6
atp103
Rp104
ag11
ag14
ag59
ag1
((lp105
I1
aI3
aI5
atp106
Rp107
ag20
ag32
ag26
ag50
atp108
Rp109
I360
sg1
((lp110
g8
ag26
ag41
ag1
((lp111
I1
aI2
aI5
atp112
Rp113
ag1
((lp114
I1
aI2
aI4
atp115
Rp116
ag59
ag74
ag20
ag23
ag50
atp117
Rp118
I180
sg1
((lp119
g56
ag23
ag1
((lp120
I2
aI3
aI6
atp121
Rp122
ag26
ag41
ag59
ag20
ag32
ag1
((lp123
I1
aI2
aI3
atp124
Rp125
ag50
atp126
Rp127
I180
sg1
((lp128
g1
((lp129
I1
aI3
aI5
atp130
Rp131
ag1
((lp132
I2
aI5
aI6
atp133
Rp134
ag8
ag11
ag14
ag59
ag74
ag20
ag23
ag50
atp135
Rp136
I360
sg1
((lp137
g56
ag1
((lp138
I1
aI3
aI5
atp139
Rp140
ag11
ag80
ag59
ag74
ag20
ag23
ag1
((lp141
I3
aI5
aI6
atp142
Rp143
ag32
atp144
Rp145
I720
sg1
((lp146
g8
ag11
ag80
ag41
ag1
((lp147
I4
aI5
aI6
atp148
Rp149
ag1
((lp150
I1
aI4
aI5
atp151
Rp152
ag74
ag23
ag29
ag32
atp153
Rp154
I180
sg1
((lp155
g8
ag26
ag80
ag41
ag1
((lp156
I1
aI2
aI5
atp157
Rp158
ag1
((lp159
I1
aI4
aI5
atp160
Rp161
ag59
ag74
ag23
ag29
atp162
Rp163
I360
sg1
((lp164
g56
ag1
((lp165
I3
aI4
aI6
atp166
Rp167
ag1
((lp168
I1
aI3
aI6
atp169
Rp170
ag11
ag38
ag14
ag74
ag32
ag80
ag50
atp171
Rp172
I180
sg1
((lp173
g56
ag11
ag80
ag41
ag1
((lp174
I4
aI5
aI6
atp175
Rp176
ag1
((lp177
I1
aI4
aI5
atp178
Rp179
ag59
ag74
ag23
ag32
atp180
Rp181
I180
sg1
((lp182
g8
ag11
ag38
ag14
ag41
ag1
((lp183
I4
aI5
aI6
atp184
Rp185
ag59
ag74
ag23
ag1
((lp186
I2
aI4
aI5
atp187
Rp188
atp189
Rp190
I90
sg1
((lp191
g56
ag1
((lp192
I1
aI3
aI6
atp193
Rp194
ag11
ag38
ag41
ag59
ag74
ag32
ag26
ag1
((lp195
I1
aI4
aI6
atp196
Rp197
atp198
Rp199
I720
s.