(dp0
c__builtin__
frozenset
p1
((lp2
g1
((lp3
I3
aI6
atp4
Rp5
ag1
((lp6
I1
aI2
atp7
Rp8
ag1
((lp9
I1
aI5
atp10
Rp11
ag1
((lp12
I2
aI4
aI6
atp13
Rp14
ag1
((lp15
I3
aI4
atp16
Rp17
ag1
((lp18
I2
aI3
atp19
Rp20
ag1
((lp21
I1
aI6
atp22
Rp23
ag1
((lp24
I1
aI3
atp25
Rp26
ag1
((lp27
I2
aI5
atp28
Rp29
atp30
Rp31
I720
sg1
((lp32
g1
((lp33
I2
aI4
atp34
Rp35
ag1
((lp36
I2
aI3
aI5
atp37
Rp38
ag8
ag11
ag1
((lp39
I4
aI6
atp40
Rp41
ag23
ag1
((lp42
I5
aI6
atp43
Rp44
ag1
((lp45
I2
aI6
atp46
Rp47
ag1
((lp48
I4
aI5
atp49
Rp50
atp51
Rp52
I180
sg1
((lp53
g35
ag5
ag1
((lp54
I2
aI3
aI5
atp55
Rp56
ag8
ag47
ag1
((lp57
I1
aI4
atp58
Rp59
ag44
ag26
ag50
atp60
Rp61
I360
sg1
((lp62
g1
((lp63
I2
aI5
aI6
atp64
Rp65
ag8
ag11
ag59
ag1
((lp66
I3
aI5
atp67
Rp68
ag41
ag23
ag26
ag50
atp69
Rp70
I720
sg1
((lp71
g35
ag5
ag11
ag59
ag20
ag41
ag29
ag1
((lp72
I1
aI2
aI6
atp73
Rp74
ag50
atp75
Rp76
I720
sg1
((lp77
g35
ag1
((lp78
I3
aI4
aI5
atp79
Rp80
ag5
ag8
ag41
ag23
ag44
ag26
ag29
atp81
Rp82
I360
sg1
((lp83
g44
ag11
ag1
((lp84
I1
aI2
aI4
atp85
Rp86
ag17
ag41
ag29
ag26
ag23
ag50
atp87
Rp88
I360
sg1
((lp89
g35
ag44
ag59
ag68
ag20
ag29
ag26
ag1
((lp90
I1
aI2
aI6
atp91
Rp92
ag50
atp93
Rp94
I360
sg1
((lp95
g35
ag1
((lp96
I2
aI3
aI6
atp97
Rp98
ag44
ag11
ag59
ag29
ag26
ag23
ag50
atp99
Rp100
I720
sg1
((lp101
g35
ag5
ag44
ag68
ag17
ag20
ag41
ag1
((lp102
I1
aI2
aI6
atp103
Rp104
ag50
atp105
Rp106
I360
sg1
((lp107
g35
ag5
ag8
ag68
ag1
((lp108
I1
aI3
aI4
atp109
Rp110
ag20
ag41
ag23
ag29
atp111
Rp112
I360
sg1
((lp113
g35
ag44
ag11
ag68
ag17
ag20
ag29
ag1
((lp114
I1
aI2
aI6
atp115
Rp116
ag50
atp117
Rp118
I180
sg1
((lp119
g8
ag11
ag59
ag68
ag1
((lp120
I2
aI4
aI6
atp121
Rp122
ag23
ag44
ag26
ag50
atp123
Rp124
I360
sg1
((lp125
g8
ag47
ag59
ag17
ag20
ag41
ag29
ag1
((lp126
I1
aI5
aI6
atp127
Rp128
ag50
atp129
Rp130
I60
sg1
((lp131
g35
ag8
ag47
ag59
ag17
ag41
ag29
ag1
((lp132
I1
aI5
aI6
atp133
Rp134
ag50
atp135
Rp136
I120
sg1
((lp137
g1
((lp138
I3
aI4
aI5
atp139
Rp140
ag5
ag8
ag11
ag20
ag41
ag29
ag26
ag47
atp141
Rp142
I720
sg1
((lp143
g5
ag11
ag68
ag1
((lp144
I1
aI2
aI4
atp145
Rp146
ag17
ag41
ag29
ag47
ag50
atp147
Rp148
I720
sg1
((lp149
g5
ag44
ag11
ag59
ag68
ag1
((lp150
I2
aI3
aI4
atp151
Rp152
ag23
ag26
ag47
atp153
Rp154
I360
sg1
((lp155
g35
ag8
ag59
ag17
ag20
ag41
ag23
ag1
((lp156
I3
aI5
aI6
atp157
Rp158
ag50
atp159
Rp160
I360
sg1
((lp161
g1
((lp162
I3
aI4
aI5
atp163
Rp164
ag5
ag8
ag47
ag59
ag41
ag23
ag26
ag29
atp165
Rp166
I180
sg1
((lp167
g5
ag8
ag11
ag59
ag68
ag17
ag41
ag44
ag1
((lp168
I2
aI4
aI5
atp169
Rp170
atp171
Rp172
I180
sg1
((lp173
g5
ag44
ag1
((lp174
I2
aI4
aI6
atp175
Rp176
ag17
ag20
ag29
ag8
ag23
ag50
atp177
Rp178
I180
sg1
((lp179
g47
ag59
ag68
ag1
((lp180
I1
aI2
aI5
atp181
Rp182
ag17
ag20
ag41
ag23
ag50
atp183
Rp184
I360
sg1
((lp185
g35
ag5
ag8
ag11
ag59
ag1
((lp186
I4
aI5
aI6
atp187
Rp188
ag23
ag26
ag29
atp189
Rp190
I360
sg1
((lp191
g8
ag11
ag59
ag68
ag1
((lp192
I2
aI3
aI4
atp193
Rp194
ag29
ag26
ag47
ag50
atp195
Rp196
I180
sg1
((lp197
g35
ag5
ag1
((lp198
I2
aI3
aI5
atp199
Rp200
ag8
ag11
ag59
ag17
ag23
ag50
atp201
Rp202
I360
s.