(dp0
c__builtin__
frozenset
p1
((lp2
g1
((lp3
I3
aI4
aI6
atp4
Rp5
ag1
((lp6
I1
aI3
aI4
atp7
Rp8
ag1
((lp9
I2
atp10
Rp11
ag1
((lp12
I3
aI4
aI5
atp13
Rp14
atp15
Rp16
I60
sg1
((lp17
g1
((lp18
I2
aI3
aI5
atp19
Rp20
ag1
((lp21
I2
aI3
aI6
atp22
Rp23
ag1
((lp24
I4
atp25
Rp26
ag1
((lp27
I1
aI3
aI5
atp28
Rp29
atp30
Rp31
I360
sg1
((lp32
g1
((lp33
I2
aI4
aI6
atp34
Rp35
ag1
((lp36
I1
aI5
aI6
atp37
Rp38
ag1
((lp39
I3
atp40
Rp41
ag1
((lp42
I1
aI2
aI5
atp43
Rp44
atp45
Rp46
I180
sg1
((lp47
g5
ag11
ag1
((lp48
I3
aI5
aI6
atp49
Rp50
ag14
atp51
Rp52
I120
s.