(dp0
c__builtin__
frozenset
p1
((lp2
g1
((lp3
I1
atp4
Rp5
ag1
((lp6
I4
aI6
atp7
Rp8
ag1
((lp9
I2
aI3
aI4
atp10
Rp11
ag1
((lp12
I2
aI3
aI5
aI6
atp13
Rp14
ag1
((lp15
I4
aI5
atp16
Rp17
atp18
Rp19
I180
s.