(dp0
c__builtin__
frozenset
p1
((lp2
g1
((lp3
I3
aI4
atp4
Rp5
ag1
((lp6
I1
atp7
Rp8
ag1
((lp9
I3
aI5
atp10
Rp11
ag1
((lp12
I2
aI5
atp13
Rp14
ag1
((lp15
I4
aI5
aI6
atp16
Rp17
atp18
Rp19
I720
sg1
((lp20
g1
((lp21
I5
aI6
atp22
Rp23
ag1
((lp24
I1
aI6
atp25
Rp26
ag1
((lp27
I4
aI6
atp28
Rp29
ag1
((lp30
I3
atp31
Rp32
ag1
((lp33
I1
aI2
aI4
atp34
Rp35
atp36
Rp37
I360
sg1
((lp38
g1
((lp39
I3
aI4
atp40
Rp41
ag1
((lp42
I1
aI5
atp43
Rp44
ag1
((lp45
I1
aI4
aI6
atp46
Rp47
ag1
((lp48
I2
atp49
Rp50
ag1
((lp51
I3
aI6
atp52
Rp53
atp54
Rp55
I360
sg1
((lp56
g1
((lp57
I5
aI6
atp58
Rp59
ag44
ag1
((lp60
I1
aI4
aI6
atp61
Rp62
ag50
ag1
((lp63
I4
aI5
atp64
Rp65
atp66
Rp67
I120
sg1
((lp68
g1
((lp69
I2
aI4
atp70
Rp71
ag1
((lp72
I2
aI3
atp73
Rp74
ag1
((lp75
I5
atp76
Rp77
ag1
((lp78
I1
aI3
aI6
atp79
Rp80
ag1
((lp81
I1
aI4
atp82
Rp83
atp84
Rp85
I360
sg1
((lp86
g71
ag1
((lp87
I1
aI3
aI6
atp88
Rp89
ag1
((lp90
I2
aI6
atp91
Rp92
ag77
ag1
((lp93
I4
aI6
atp94
Rp95
atp96
Rp97
I180
s.