(dp0
c__builtin__
frozenset
p1
((lp2
g1
((lp3
I2
aI4
atp4
Rp5
ag1
((lp6
I3
atp7
Rp8
ag1
((lp9
I1
aI2
atp10
Rp11
ag1
((lp12
I2
aI6
atp13
Rp14
ag1
((lp15
I4
aI5
aI6
atp16
Rp17
ag1
((lp18
I1
aI4
aI5
atp19
Rp20
ag1
((lp21
I1
aI5
aI6
atp22
Rp23
atp24
Rp25
I120
sg1
((lp26
g5
ag8
ag14
ag1
((lp27
I1
aI2
aI5
atp28
Rp29
ag1
((lp30
I1
aI5
aI6
atp31
Rp32
ag1
((lp33
I1
aI4
aI6
atp34
Rp35
ag1
((lp36
I4
aI5
atp37
Rp38
atp39
Rp40
I360
sg1
((lp41
g1
((lp42
I6
atp43
Rp44
ag1
((lp45
I3
aI5
atp46
Rp47
ag1
((lp48
I1
aI2
aI5
atp49
Rp50
ag1
((lp51
I1
aI2
aI4
atp52
Rp53
ag1
((lp54
I3
aI4
atp55
Rp56
ag1
((lp57
I2
aI3
atp58
Rp59
ag1
((lp60
I2
aI4
aI5
atp61
Rp62
atp63
Rp64
I360
sg1
((lp65
g1
((lp66
I3
aI4
aI5
atp67
Rp68
ag44
ag1
((lp69
I1
aI2
atp70
Rp71
ag1
((lp72
I1
aI4
aI5
atp73
Rp74
ag59
ag1
((lp75
I1
aI3
atp76
Rp77
ag1
((lp78
I2
aI4
aI5
atp79
Rp80
atp81
Rp82
I60
s.