(dp0
c__builtin__
frozenset
p1
((lp2
g1
((lp3
I3
atp4
Rp5
ag1
((lp6
I5
aI6
atp7
Rp8
ag1
((lp9
I1
aI5
atp10
Rp11
ag1
((lp12
I4
atp13
Rp14
ag1
((lp15
I1
aI6
atp16
Rp17
ag1
((lp18
I2
atp19
Rp20
atp21
Rp22
I20
s.